
IncomSystemTestProjectF103.elf:     file format elf32-littlearm

Sections:
Idx Name          Size      VMA       LMA       File off  Algn
  0 .isr_vector   0000010c  08000000  08000000  00001000  2**0
                  CONTENTS, ALLOC, LOAD, READONLY, DATA
  1 .text         00002570  0800010c  0800010c  0000110c  2**2
                  CONTENTS, ALLOC, LOAD, READONLY, CODE
  2 .rodata       0000003c  0800267c  0800267c  0000367c  2**2
                  CONTENTS, ALLOC, LOAD, READONLY, DATA
  3 .ARM.extab    00000000  080026b8  080026b8  00004120  2**0
                  CONTENTS
  4 .ARM          00000000  080026b8  080026b8  00004120  2**0
                  CONTENTS
  5 .preinit_array 00000000  080026b8  080026b8  00004120  2**0
                  CONTENTS, ALLOC, LOAD, DATA
  6 .init_array   00000004  080026b8  080026b8  000036b8  2**2
                  CONTENTS, ALLOC, LOAD, READONLY, DATA
  7 .fini_array   00000004  080026bc  080026bc  000036bc  2**2
                  CONTENTS, ALLOC, LOAD, READONLY, DATA
  8 .data         00000120  20000000  080026c0  00004000  2**2
                  CONTENTS, ALLOC, LOAD, DATA
  9 .bss          0000047c  20000120  080027e0  00004120  2**2
                  ALLOC
 10 ._user_heap_stack 00000604  2000059c  080027e0  0000459c  2**0
                  ALLOC
 11 .ARM.attributes 00000029  00000000  00000000  00004120  2**0
                  CONTENTS, READONLY
 12 .debug_info   00007d4a  00000000  00000000  00004149  2**0
                  CONTENTS, READONLY, DEBUGGING, OCTETS
 13 .debug_abbrev 00001a4c  00000000  00000000  0000be93  2**0
                  CONTENTS, READONLY, DEBUGGING, OCTETS
 14 .debug_aranges 00000708  00000000  00000000  0000d8e0  2**3
                  CONTENTS, READONLY, DEBUGGING, OCTETS
 15 .debug_rnglists 00000552  00000000  00000000  0000dfe8  2**0
                  CONTENTS, READONLY, DEBUGGING, OCTETS
 16 .debug_macro  000165a8  00000000  00000000  0000e53a  2**0
                  CONTENTS, READONLY, DEBUGGING, OCTETS
 17 .debug_line   00009a82  00000000  00000000  00024ae2  2**0
                  CONTENTS, READONLY, DEBUGGING, OCTETS
 18 .debug_str    0007e84d  00000000  00000000  0002e564  2**0
                  CONTENTS, READONLY, DEBUGGING, OCTETS
 19 .comment      00000043  00000000  00000000  000acdb1  2**0
                  CONTENTS, READONLY
 20 .debug_frame  00001a7c  00000000  00000000  000acdf4  2**2
                  CONTENTS, READONLY, DEBUGGING, OCTETS
 21 .debug_line_str 0000005d  00000000  00000000  000ae870  2**0
                  CONTENTS, READONLY, DEBUGGING, OCTETS

Disassembly of section .text:

0800010c <__do_global_dtors_aux>:
 800010c:	b510      	push	{r4, lr}
 800010e:	4c05      	ldr	r4, [pc, #20]	@ (8000124 <__do_global_dtors_aux+0x18>)
 8000110:	7823      	ldrb	r3, [r4, #0]
 8000112:	b933      	cbnz	r3, 8000122 <__do_global_dtors_aux+0x16>
 8000114:	4b04      	ldr	r3, [pc, #16]	@ (8000128 <__do_global_dtors_aux+0x1c>)
 8000116:	b113      	cbz	r3, 800011e <__do_global_dtors_aux+0x12>
 8000118:	4804      	ldr	r0, [pc, #16]	@ (800012c <__do_global_dtors_aux+0x20>)
 800011a:	f3af 8000 	nop.w
 800011e:	2301      	movs	r3, #1
 8000120:	7023      	strb	r3, [r4, #0]
 8000122:	bd10      	pop	{r4, pc}
 8000124:	20000120 	.word	0x20000120
 8000128:	00000000 	.word	0x00000000
 800012c:	08002664 	.word	0x08002664

08000130 <frame_dummy>:
 8000130:	b508      	push	{r3, lr}
 8000132:	4b03      	ldr	r3, [pc, #12]	@ (8000140 <frame_dummy+0x10>)
 8000134:	b11b      	cbz	r3, 800013e <frame_dummy+0xe>
 8000136:	4903      	ldr	r1, [pc, #12]	@ (8000144 <frame_dummy+0x14>)
 8000138:	4803      	ldr	r0, [pc, #12]	@ (8000148 <frame_dummy+0x18>)
 800013a:	f3af 8000 	nop.w
 800013e:	bd08      	pop	{r3, pc}
 8000140:	00000000 	.word	0x00000000
 8000144:	20000124 	.word	0x20000124
 8000148:	08002664 	.word	0x08002664

0800014c <DataParser>:
#ifndef INC_MODULES_PARSINGMODULE_H_
#define INC_MODULES_PARSINGMODULE_H_

#include "main.h"

void DataParser(uint8_t *data){
 800014c:	b480      	push	{r7}
 800014e:	b085      	sub	sp, #20
 8000150:	af00      	add	r7, sp, #0
 8000152:	6078      	str	r0, [r7, #4]
	switch(recive.command){
 8000154:	4b15      	ldr	r3, [pc, #84]	@ (80001ac <DataParser+0x60>)
 8000156:	781b      	ldrb	r3, [r3, #0]
 8000158:	2b01      	cmp	r3, #1
 800015a:	d002      	beq.n	8000162 <DataParser+0x16>
 800015c:	2b02      	cmp	r3, #2
 800015e:	d005      	beq.n	800016c <DataParser+0x20>
		    for(uint16_t i=0; i<recive.length-1; i++)
		    	action.data[i] = data[i+1];
			action.flag = DATA;
			break;
	}
}
 8000160:	e01e      	b.n	80001a0 <DataParser+0x54>
			action.flag = data[0];
 8000162:	687b      	ldr	r3, [r7, #4]
 8000164:	781a      	ldrb	r2, [r3, #0]
 8000166:	4b12      	ldr	r3, [pc, #72]	@ (80001b0 <DataParser+0x64>)
 8000168:	705a      	strb	r2, [r3, #1]
			break;
 800016a:	e019      	b.n	80001a0 <DataParser+0x54>
		    for(uint16_t i=0; i<recive.length-1; i++)
 800016c:	2300      	movs	r3, #0
 800016e:	81fb      	strh	r3, [r7, #14]
 8000170:	e00c      	b.n	800018c <DataParser+0x40>
		    	action.data[i] = data[i+1];
 8000172:	89fb      	ldrh	r3, [r7, #14]
 8000174:	3301      	adds	r3, #1
 8000176:	687a      	ldr	r2, [r7, #4]
 8000178:	441a      	add	r2, r3
 800017a:	89fb      	ldrh	r3, [r7, #14]
 800017c:	7811      	ldrb	r1, [r2, #0]
 800017e:	4a0c      	ldr	r2, [pc, #48]	@ (80001b0 <DataParser+0x64>)
 8000180:	4413      	add	r3, r2
 8000182:	460a      	mov	r2, r1
 8000184:	709a      	strb	r2, [r3, #2]
		    for(uint16_t i=0; i<recive.length-1; i++)
 8000186:	89fb      	ldrh	r3, [r7, #14]
 8000188:	3301      	adds	r3, #1
 800018a:	81fb      	strh	r3, [r7, #14]
 800018c:	89fa      	ldrh	r2, [r7, #14]
 800018e:	4b07      	ldr	r3, [pc, #28]	@ (80001ac <DataParser+0x60>)
 8000190:	885b      	ldrh	r3, [r3, #2]
 8000192:	3b01      	subs	r3, #1
 8000194:	429a      	cmp	r2, r3
 8000196:	dbec      	blt.n	8000172 <DataParser+0x26>
			action.flag = DATA;
 8000198:	4b05      	ldr	r3, [pc, #20]	@ (80001b0 <DataParser+0x64>)
 800019a:	22cc      	movs	r2, #204	@ 0xcc
 800019c:	705a      	strb	r2, [r3, #1]
			break;
 800019e:	bf00      	nop
}
 80001a0:	bf00      	nop
 80001a2:	3714      	adds	r7, #20
 80001a4:	46bd      	mov	sp, r7
 80001a6:	bc80      	pop	{r7}
 80001a8:	4770      	bx	lr
 80001aa:	bf00      	nop
 80001ac:	20000000 	.word	0x20000000
 80001b0:	20000004 	.word	0x20000004

080001b4 <HAL_UART_RxCpltCallback>:

uint16_t recived_bytes = 0;
uint8_t buffer[1024] = {};
uint32_t timer = 0;

void HAL_UART_RxCpltCallback(UART_HandleTypeDef *huart){
 80001b4:	b580      	push	{r7, lr}
 80001b6:	b082      	sub	sp, #8
 80001b8:	af00      	add	r7, sp, #0
 80001ba:	6078      	str	r0, [r7, #4]
//	if((HAL_GetTick()-timer) >= 5)
//		recived_bytes = 0;
	buffer[recived_bytes] = rxcall;
 80001bc:	4b13      	ldr	r3, [pc, #76]	@ (800020c <HAL_UART_RxCpltCallback+0x58>)
 80001be:	881b      	ldrh	r3, [r3, #0]
 80001c0:	461a      	mov	r2, r3
 80001c2:	4b13      	ldr	r3, [pc, #76]	@ (8000210 <HAL_UART_RxCpltCallback+0x5c>)
 80001c4:	7819      	ldrb	r1, [r3, #0]
 80001c6:	4b13      	ldr	r3, [pc, #76]	@ (8000214 <HAL_UART_RxCpltCallback+0x60>)
 80001c8:	5499      	strb	r1, [r3, r2]
	recived_bytes++;
 80001ca:	4b10      	ldr	r3, [pc, #64]	@ (800020c <HAL_UART_RxCpltCallback+0x58>)
 80001cc:	881b      	ldrh	r3, [r3, #0]
 80001ce:	3301      	adds	r3, #1
 80001d0:	b29a      	uxth	r2, r3
 80001d2:	4b0e      	ldr	r3, [pc, #56]	@ (800020c <HAL_UART_RxCpltCallback+0x58>)
 80001d4:	801a      	strh	r2, [r3, #0]
	if(recived_bytes == recive.length){
 80001d6:	4b10      	ldr	r3, [pc, #64]	@ (8000218 <HAL_UART_RxCpltCallback+0x64>)
 80001d8:	885a      	ldrh	r2, [r3, #2]
 80001da:	4b0c      	ldr	r3, [pc, #48]	@ (800020c <HAL_UART_RxCpltCallback+0x58>)
 80001dc:	881b      	ldrh	r3, [r3, #0]
 80001de:	429a      	cmp	r2, r3
 80001e0:	d105      	bne.n	80001ee <HAL_UART_RxCpltCallback+0x3a>
		recived_bytes = 0;
 80001e2:	4b0a      	ldr	r3, [pc, #40]	@ (800020c <HAL_UART_RxCpltCallback+0x58>)
 80001e4:	2200      	movs	r2, #0
 80001e6:	801a      	strh	r2, [r3, #0]
		DataParser(buffer);
 80001e8:	480a      	ldr	r0, [pc, #40]	@ (8000214 <HAL_UART_RxCpltCallback+0x60>)
 80001ea:	f7ff ffaf 	bl	800014c <DataParser>
	}
	timer = HAL_GetTick();
 80001ee:	f000 fcd1 	bl	8000b94 <HAL_GetTick>
 80001f2:	4603      	mov	r3, r0
 80001f4:	4a09      	ldr	r2, [pc, #36]	@ (800021c <HAL_UART_RxCpltCallback+0x68>)
 80001f6:	6013      	str	r3, [r2, #0]
	HAL_UART_Receive_IT(huart,&rxcall,1);
 80001f8:	2201      	movs	r2, #1
 80001fa:	4905      	ldr	r1, [pc, #20]	@ (8000210 <HAL_UART_RxCpltCallback+0x5c>)
 80001fc:	6878      	ldr	r0, [r7, #4]
 80001fe:	f001 fccd 	bl	8001b9c <HAL_UART_Receive_IT>
}
 8000202:	bf00      	nop
 8000204:	3708      	adds	r7, #8
 8000206:	46bd      	mov	sp, r7
 8000208:	bd80      	pop	{r7, pc}
 800020a:	bf00      	nop
 800020c:	2000013c 	.word	0x2000013c
 8000210:	20000544 	.word	0x20000544
 8000214:	20000140 	.word	0x20000140
 8000218:	20000000 	.word	0x20000000
 800021c:	20000540 	.word	0x20000540

08000220 <TransmitOnAN3155>:

void TransmitOnAN3155(uint8_t *data, uint16_t len){
 8000220:	b580      	push	{r7, lr}
 8000222:	b084      	sub	sp, #16
 8000224:	af00      	add	r7, sp, #0
 8000226:	6078      	str	r0, [r7, #4]
 8000228:	460b      	mov	r3, r1
 800022a:	807b      	strh	r3, [r7, #2]
	for (uint16_t i = 0; i<len; i++){
 800022c:	2300      	movs	r3, #0
 800022e:	81fb      	strh	r3, [r7, #14]
 8000230:	e00b      	b.n	800024a <TransmitOnAN3155+0x2a>
		USART1->DR = data[i];
 8000232:	89fb      	ldrh	r3, [r7, #14]
 8000234:	687a      	ldr	r2, [r7, #4]
 8000236:	4413      	add	r3, r2
 8000238:	781a      	ldrb	r2, [r3, #0]
 800023a:	4b08      	ldr	r3, [pc, #32]	@ (800025c <TransmitOnAN3155+0x3c>)
 800023c:	605a      	str	r2, [r3, #4]
		HAL_Delay(1);
 800023e:	2001      	movs	r0, #1
 8000240:	f000 fcb2 	bl	8000ba8 <HAL_Delay>
	for (uint16_t i = 0; i<len; i++){
 8000244:	89fb      	ldrh	r3, [r7, #14]
 8000246:	3301      	adds	r3, #1
 8000248:	81fb      	strh	r3, [r7, #14]
 800024a:	89fa      	ldrh	r2, [r7, #14]
 800024c:	887b      	ldrh	r3, [r7, #2]
 800024e:	429a      	cmp	r2, r3
 8000250:	d3ef      	bcc.n	8000232 <TransmitOnAN3155+0x12>
	}
}
 8000252:	bf00      	nop
 8000254:	bf00      	nop
 8000256:	3710      	adds	r7, #16
 8000258:	46bd      	mov	sp, r7
 800025a:	bd80      	pop	{r7, pc}
 800025c:	40013800 	.word	0x40013800

08000260 <MX_GPIO_Init>:
        * Output
        * EVENT_OUT
        * EXTI
*/
void MX_GPIO_Init(void)
{
 8000260:	b580      	push	{r7, lr}
 8000262:	b088      	sub	sp, #32
 8000264:	af00      	add	r7, sp, #0

  GPIO_InitTypeDef GPIO_InitStruct = {0};
 8000266:	f107 0310 	add.w	r3, r7, #16
 800026a:	2200      	movs	r2, #0
 800026c:	601a      	str	r2, [r3, #0]
 800026e:	605a      	str	r2, [r3, #4]
 8000270:	609a      	str	r2, [r3, #8]
 8000272:	60da      	str	r2, [r3, #12]

  /* GPIO Ports Clock Enable */
  __HAL_RCC_GPIOC_CLK_ENABLE();
 8000274:	4b21      	ldr	r3, [pc, #132]	@ (80002fc <MX_GPIO_Init+0x9c>)
 8000276:	699b      	ldr	r3, [r3, #24]
 8000278:	4a20      	ldr	r2, [pc, #128]	@ (80002fc <MX_GPIO_Init+0x9c>)
 800027a:	f043 0310 	orr.w	r3, r3, #16
 800027e:	6193      	str	r3, [r2, #24]
 8000280:	4b1e      	ldr	r3, [pc, #120]	@ (80002fc <MX_GPIO_Init+0x9c>)
 8000282:	699b      	ldr	r3, [r3, #24]
 8000284:	f003 0310 	and.w	r3, r3, #16
 8000288:	60fb      	str	r3, [r7, #12]
 800028a:	68fb      	ldr	r3, [r7, #12]
  __HAL_RCC_GPIOD_CLK_ENABLE();
 800028c:	4b1b      	ldr	r3, [pc, #108]	@ (80002fc <MX_GPIO_Init+0x9c>)
 800028e:	699b      	ldr	r3, [r3, #24]
 8000290:	4a1a      	ldr	r2, [pc, #104]	@ (80002fc <MX_GPIO_Init+0x9c>)
 8000292:	f043 0320 	orr.w	r3, r3, #32
 8000296:	6193      	str	r3, [r2, #24]
 8000298:	4b18      	ldr	r3, [pc, #96]	@ (80002fc <MX_GPIO_Init+0x9c>)
 800029a:	699b      	ldr	r3, [r3, #24]
 800029c:	f003 0320 	and.w	r3, r3, #32
 80002a0:	60bb      	str	r3, [r7, #8]
 80002a2:	68bb      	ldr	r3, [r7, #8]
  __HAL_RCC_GPIOA_CLK_ENABLE();
 80002a4:	4b15      	ldr	r3, [pc, #84]	@ (80002fc <MX_GPIO_Init+0x9c>)
 80002a6:	699b      	ldr	r3, [r3, #24]
 80002a8:	4a14      	ldr	r2, [pc, #80]	@ (80002fc <MX_GPIO_Init+0x9c>)
 80002aa:	f043 0304 	orr.w	r3, r3, #4
 80002ae:	6193      	str	r3, [r2, #24]
 80002b0:	4b12      	ldr	r3, [pc, #72]	@ (80002fc <MX_GPIO_Init+0x9c>)
 80002b2:	699b      	ldr	r3, [r3, #24]
 80002b4:	f003 0304 	and.w	r3, r3, #4
 80002b8:	607b      	str	r3, [r7, #4]
 80002ba:	687b      	ldr	r3, [r7, #4]

  /*Configure GPIO pin Output Level */
  HAL_GPIO_WritePin(GPIOC, GPIO_PIN_13|GPIO_PIN_14, GPIO_PIN_SET);
 80002bc:	2201      	movs	r2, #1
 80002be:	f44f 41c0 	mov.w	r1, #24576	@ 0x6000
 80002c2:	480f      	ldr	r0, [pc, #60]	@ (8000300 <MX_GPIO_Init+0xa0>)
 80002c4:	f000 ffd8 	bl	8001278 <HAL_GPIO_WritePin>
  HAL_GPIO_WritePin(GPIOC, GPIO_PIN_15, GPIO_PIN_RESET);
 80002c8:	2200      	movs	r2, #0
 80002ca:	f44f 4100 	mov.w	r1, #32768	@ 0x8000
 80002ce:	480c      	ldr	r0, [pc, #48]	@ (8000300 <MX_GPIO_Init+0xa0>)
 80002d0:	f000 ffd2 	bl	8001278 <HAL_GPIO_WritePin>

  /*Configure GPIO pins : PC13 PC14 PC15 */
  GPIO_InitStruct.Pin = GPIO_PIN_13|GPIO_PIN_14|GPIO_PIN_15;
 80002d4:	f44f 4360 	mov.w	r3, #57344	@ 0xe000
 80002d8:	613b      	str	r3, [r7, #16]
  GPIO_InitStruct.Mode = GPIO_MODE_OUTPUT_PP;
 80002da:	2301      	movs	r3, #1
 80002dc:	617b      	str	r3, [r7, #20]
  GPIO_InitStruct.Pull = GPIO_NOPULL;
 80002de:	2300      	movs	r3, #0
 80002e0:	61bb      	str	r3, [r7, #24]
  GPIO_InitStruct.Speed = GPIO_SPEED_FREQ_LOW;
 80002e2:	2302      	movs	r3, #2
 80002e4:	61fb      	str	r3, [r7, #28]
  HAL_GPIO_Init(GPIOC, &GPIO_InitStruct);
 80002e6:	f107 0310 	add.w	r3, r7, #16
 80002ea:	4619      	mov	r1, r3
 80002ec:	4804      	ldr	r0, [pc, #16]	@ (8000300 <MX_GPIO_Init+0xa0>)
 80002ee:	f000 fe3f 	bl	8000f70 <HAL_GPIO_Init>

}
 80002f2:	bf00      	nop
 80002f4:	3720      	adds	r7, #32
 80002f6:	46bd      	mov	sp, r7
 80002f8:	bd80      	pop	{r7, pc}
 80002fa:	bf00      	nop
 80002fc:	40021000 	.word	0x40021000
 8000300:	40011000 	.word	0x40011000

08000304 <crc16>:
  Check : 0x29B1 ("123456789")
  MaxLen: 4095 байт (32767 бит) - обнаружение одинарных, двойных, тройных и всех нечетных ошибок
*/
#define POLY 0x1021

uint16_t crc16(uint16_t crc_now ,uint8_t *data, uint16_t size) {
 8000304:	b480      	push	{r7}
 8000306:	b085      	sub	sp, #20
 8000308:	af00      	add	r7, sp, #0
 800030a:	4603      	mov	r3, r0
 800030c:	6039      	str	r1, [r7, #0]
 800030e:	80fb      	strh	r3, [r7, #6]
 8000310:	4613      	mov	r3, r2
 8000312:	80bb      	strh	r3, [r7, #4]
	uint16_t crc = crc_now;
 8000314:	88fb      	ldrh	r3, [r7, #6]
 8000316:	81fb      	strh	r3, [r7, #14]

	for (uint16_t j = 0; j < size; j++)
 8000318:	2300      	movs	r3, #0
 800031a:	81bb      	strh	r3, [r7, #12]
 800031c:	e028      	b.n	8000370 <crc16+0x6c>
	{
		crc ^= data[j] << 8;
 800031e:	89bb      	ldrh	r3, [r7, #12]
 8000320:	683a      	ldr	r2, [r7, #0]
 8000322:	4413      	add	r3, r2
 8000324:	781b      	ldrb	r3, [r3, #0]
 8000326:	021b      	lsls	r3, r3, #8
 8000328:	b21a      	sxth	r2, r3
 800032a:	f9b7 300e 	ldrsh.w	r3, [r7, #14]
 800032e:	4053      	eors	r3, r2
 8000330:	b21b      	sxth	r3, r3
 8000332:	81fb      	strh	r3, [r7, #14]
		for (uint8_t i = 0; i < 8; i++)
 8000334:	2300      	movs	r3, #0
 8000336:	72fb      	strb	r3, [r7, #11]
 8000338:	e014      	b.n	8000364 <crc16+0x60>
			crc = crc & 0x8000 ? (crc << 1) ^ POLY : crc << 1;
 800033a:	f9b7 300e 	ldrsh.w	r3, [r7, #14]
 800033e:	2b00      	cmp	r3, #0
 8000340:	da09      	bge.n	8000356 <crc16+0x52>
 8000342:	89fb      	ldrh	r3, [r7, #14]
 8000344:	005b      	lsls	r3, r3, #1
 8000346:	b21b      	sxth	r3, r3
 8000348:	f483 5381 	eor.w	r3, r3, #4128	@ 0x1020
 800034c:	f083 0301 	eor.w	r3, r3, #1
 8000350:	b21b      	sxth	r3, r3
 8000352:	b29b      	uxth	r3, r3
 8000354:	e002      	b.n	800035c <crc16+0x58>
 8000356:	89fb      	ldrh	r3, [r7, #14]
 8000358:	005b      	lsls	r3, r3, #1
 800035a:	b29b      	uxth	r3, r3
 800035c:	81fb      	strh	r3, [r7, #14]
		for (uint8_t i = 0; i < 8; i++)
 800035e:	7afb      	ldrb	r3, [r7, #11]
 8000360:	3301      	adds	r3, #1
 8000362:	72fb      	strb	r3, [r7, #11]
 8000364:	7afb      	ldrb	r3, [r7, #11]
 8000366:	2b07      	cmp	r3, #7
 8000368:	d9e7      	bls.n	800033a <crc16+0x36>
	for (uint16_t j = 0; j < size; j++)
 800036a:	89bb      	ldrh	r3, [r7, #12]
 800036c:	3301      	adds	r3, #1
 800036e:	81bb      	strh	r3, [r7, #12]
 8000370:	89ba      	ldrh	r2, [r7, #12]
 8000372:	88bb      	ldrh	r3, [r7, #4]
 8000374:	429a      	cmp	r2, r3
 8000376:	d3d2      	bcc.n	800031e <crc16+0x1a>
	}
	return crc;
 8000378:	89fb      	ldrh	r3, [r7, #14]
}
 800037a:	4618      	mov	r0, r3
 800037c:	3714      	adds	r7, #20
 800037e:	46bd      	mov	sp, r7
 8000380:	bc80      	pop	{r7}
 8000382:	4770      	bx	lr

08000384 <crcAN3155>:

uint8_t crcAN3155(uint8_t *data, uint8_t len){
 8000384:	b480      	push	{r7}
 8000386:	b085      	sub	sp, #20
 8000388:	af00      	add	r7, sp, #0
 800038a:	6078      	str	r0, [r7, #4]
 800038c:	460b      	mov	r3, r1
 800038e:	70fb      	strb	r3, [r7, #3]
	uint8_t numb = 0;
 8000390:	2300      	movs	r3, #0
 8000392:	73fb      	strb	r3, [r7, #15]
	for(int i=0; i<len; i++){
 8000394:	2300      	movs	r3, #0
 8000396:	60bb      	str	r3, [r7, #8]
 8000398:	e009      	b.n	80003ae <crcAN3155+0x2a>
		numb^=data[i];
 800039a:	68bb      	ldr	r3, [r7, #8]
 800039c:	687a      	ldr	r2, [r7, #4]
 800039e:	4413      	add	r3, r2
 80003a0:	781a      	ldrb	r2, [r3, #0]
 80003a2:	7bfb      	ldrb	r3, [r7, #15]
 80003a4:	4053      	eors	r3, r2
 80003a6:	73fb      	strb	r3, [r7, #15]
	for(int i=0; i<len; i++){
 80003a8:	68bb      	ldr	r3, [r7, #8]
 80003aa:	3301      	adds	r3, #1
 80003ac:	60bb      	str	r3, [r7, #8]
 80003ae:	78fb      	ldrb	r3, [r7, #3]
 80003b0:	68ba      	ldr	r2, [r7, #8]
 80003b2:	429a      	cmp	r2, r3
 80003b4:	dbf1      	blt.n	800039a <crcAN3155+0x16>
	}
	return numb;
 80003b6:	7bfb      	ldrb	r3, [r7, #15]
}
 80003b8:	4618      	mov	r0, r3
 80003ba:	3714      	adds	r7, #20
 80003bc:	46bd      	mov	sp, r7
 80003be:	bc80      	pop	{r7}
 80003c0:	4770      	bx	lr
	...

080003c4 <BootModeStart>:
#define RESET_PORT	GPIOC

#define AN_OK	0x01
#define AN_ERROR 0x00

void BootModeStart(){
 80003c4:	b580      	push	{r7, lr}
 80003c6:	af00      	add	r7, sp, #0
	HAL_GPIO_WritePin(BOOT_PORT, BOOT_PIN, GPIO_PIN_SET);
 80003c8:	2201      	movs	r2, #1
 80003ca:	f44f 4100 	mov.w	r1, #32768	@ 0x8000
 80003ce:	480a      	ldr	r0, [pc, #40]	@ (80003f8 <BootModeStart+0x34>)
 80003d0:	f000 ff52 	bl	8001278 <HAL_GPIO_WritePin>
	HAL_GPIO_WritePin(RESET_PORT, RESET_PIN, GPIO_PIN_RESET);
 80003d4:	2200      	movs	r2, #0
 80003d6:	f44f 4180 	mov.w	r1, #16384	@ 0x4000
 80003da:	4807      	ldr	r0, [pc, #28]	@ (80003f8 <BootModeStart+0x34>)
 80003dc:	f000 ff4c 	bl	8001278 <HAL_GPIO_WritePin>
	HAL_Delay(50);
 80003e0:	2032      	movs	r0, #50	@ 0x32
 80003e2:	f000 fbe1 	bl	8000ba8 <HAL_Delay>
	HAL_GPIO_WritePin(RESET_PORT, RESET_PIN, GPIO_PIN_SET);
 80003e6:	2201      	movs	r2, #1
 80003e8:	f44f 4180 	mov.w	r1, #16384	@ 0x4000
 80003ec:	4802      	ldr	r0, [pc, #8]	@ (80003f8 <BootModeStart+0x34>)
 80003ee:	f000 ff43 	bl	8001278 <HAL_GPIO_WritePin>
}
 80003f2:	bf00      	nop
 80003f4:	bd80      	pop	{r7, pc}
 80003f6:	bf00      	nop
 80003f8:	40011000 	.word	0x40011000

080003fc <AwaitResponce>:

uint8_t AwaitResponce(uint8_t status, uint32_t maxWaitTime){
 80003fc:	b580      	push	{r7, lr}
 80003fe:	b084      	sub	sp, #16
 8000400:	af00      	add	r7, sp, #0
 8000402:	4603      	mov	r3, r0
 8000404:	6039      	str	r1, [r7, #0]
 8000406:	71fb      	strb	r3, [r7, #7]
	uint32_t timer = HAL_GetTick();
 8000408:	f000 fbc4 	bl	8000b94 <HAL_GetTick>
 800040c:	60f8      	str	r0, [r7, #12]
	while(action.flag != status){
 800040e:	e00d      	b.n	800042c <AwaitResponce+0x30>
		if((HAL_GetTick()-timer) >= maxWaitTime || action.flag == NACK)
 8000410:	f000 fbc0 	bl	8000b94 <HAL_GetTick>
 8000414:	4602      	mov	r2, r0
 8000416:	68fb      	ldr	r3, [r7, #12]
 8000418:	1ad3      	subs	r3, r2, r3
 800041a:	683a      	ldr	r2, [r7, #0]
 800041c:	429a      	cmp	r2, r3
 800041e:	d903      	bls.n	8000428 <AwaitResponce+0x2c>
 8000420:	4b07      	ldr	r3, [pc, #28]	@ (8000440 <AwaitResponce+0x44>)
 8000422:	785b      	ldrb	r3, [r3, #1]
 8000424:	2b1f      	cmp	r3, #31
 8000426:	d101      	bne.n	800042c <AwaitResponce+0x30>
			return AN_ERROR;
 8000428:	2300      	movs	r3, #0
 800042a:	e005      	b.n	8000438 <AwaitResponce+0x3c>
	while(action.flag != status){
 800042c:	4b04      	ldr	r3, [pc, #16]	@ (8000440 <AwaitResponce+0x44>)
 800042e:	785b      	ldrb	r3, [r3, #1]
 8000430:	79fa      	ldrb	r2, [r7, #7]
 8000432:	429a      	cmp	r2, r3
 8000434:	d1ec      	bne.n	8000410 <AwaitResponce+0x14>
	}
	return AN_OK;
 8000436:	2301      	movs	r3, #1
}
 8000438:	4618      	mov	r0, r3
 800043a:	3710      	adds	r7, #16
 800043c:	46bd      	mov	sp, r7
 800043e:	bd80      	pop	{r7, pc}
 8000440:	20000004 	.word	0x20000004

08000444 <StartCommand>:

void StartCommand(){
 8000444:	b580      	push	{r7, lr}
 8000446:	b082      	sub	sp, #8
 8000448:	af00      	add	r7, sp, #0

	uint8_t data[1] = {START_COMMAND};
 800044a:	237f      	movs	r3, #127	@ 0x7f
 800044c:	703b      	strb	r3, [r7, #0]
	uint32_t timer = 0;
 800044e:	2300      	movs	r3, #0
 8000450:	607b      	str	r3, [r7, #4]
	while(action.flag == NONE){
 8000452:	e00f      	b.n	8000474 <StartCommand+0x30>
	  if((HAL_GetTick()-timer) >= 1000){
 8000454:	f000 fb9e 	bl	8000b94 <HAL_GetTick>
 8000458:	4602      	mov	r2, r0
 800045a:	687b      	ldr	r3, [r7, #4]
 800045c:	1ad3      	subs	r3, r2, r3
 800045e:	f5b3 7f7a 	cmp.w	r3, #1000	@ 0x3e8
 8000462:	d307      	bcc.n	8000474 <StartCommand+0x30>
		  TransmitOnAN3155(data, 1);
 8000464:	463b      	mov	r3, r7
 8000466:	2101      	movs	r1, #1
 8000468:	4618      	mov	r0, r3
 800046a:	f7ff fed9 	bl	8000220 <TransmitOnAN3155>
		  timer = HAL_GetTick();
 800046e:	f000 fb91 	bl	8000b94 <HAL_GetTick>
 8000472:	6078      	str	r0, [r7, #4]
	while(action.flag == NONE){
 8000474:	4b06      	ldr	r3, [pc, #24]	@ (8000490 <StartCommand+0x4c>)
 8000476:	785b      	ldrb	r3, [r3, #1]
 8000478:	2b00      	cmp	r3, #0
 800047a:	d0eb      	beq.n	8000454 <StartCommand+0x10>
	  }
	}
	action.flag = NONE;
 800047c:	4b04      	ldr	r3, [pc, #16]	@ (8000490 <StartCommand+0x4c>)
 800047e:	2200      	movs	r2, #0
 8000480:	705a      	strb	r2, [r3, #1]
	HAL_Delay(200);
 8000482:	20c8      	movs	r0, #200	@ 0xc8
 8000484:	f000 fb90 	bl	8000ba8 <HAL_Delay>

}
 8000488:	bf00      	nop
 800048a:	3708      	adds	r7, #8
 800048c:	46bd      	mov	sp, r7
 800048e:	bd80      	pop	{r7, pc}
 8000490:	20000004 	.word	0x20000004

08000494 <ReadFlashData>:

uint8_t ReadFlashData(uint32_t address, uint16_t len){
 8000494:	b580      	push	{r7, lr}
 8000496:	b084      	sub	sp, #16
 8000498:	af00      	add	r7, sp, #0
 800049a:	6078      	str	r0, [r7, #4]
 800049c:	460b      	mov	r3, r1
 800049e:	807b      	strh	r3, [r7, #2]
	uint8_t data[5] = {READ_COMMAND, 0xFF^READ_COMMAND, 0, 0, 0};
 80004a0:	4a37      	ldr	r2, [pc, #220]	@ (8000580 <ReadFlashData+0xec>)
 80004a2:	f107 0308 	add.w	r3, r7, #8
 80004a6:	e892 0003 	ldmia.w	r2, {r0, r1}
 80004aa:	6018      	str	r0, [r3, #0]
 80004ac:	3304      	adds	r3, #4
 80004ae:	7019      	strb	r1, [r3, #0]
	TransmitOnAN3155(data, 2);
 80004b0:	f107 0308 	add.w	r3, r7, #8
 80004b4:	2102      	movs	r1, #2
 80004b6:	4618      	mov	r0, r3
 80004b8:	f7ff feb2 	bl	8000220 <TransmitOnAN3155>
	if(AwaitResponce(ACK, ANSWER_WAIT_TIME) == AN_ERROR)
 80004bc:	21c8      	movs	r1, #200	@ 0xc8
 80004be:	2079      	movs	r0, #121	@ 0x79
 80004c0:	f7ff ff9c 	bl	80003fc <AwaitResponce>
 80004c4:	4603      	mov	r3, r0
 80004c6:	2b00      	cmp	r3, #0
 80004c8:	d101      	bne.n	80004ce <ReadFlashData+0x3a>
		return AN_ERROR;
 80004ca:	2300      	movs	r3, #0
 80004cc:	e053      	b.n	8000576 <ReadFlashData+0xe2>
	action.flag = NONE;
 80004ce:	4b2d      	ldr	r3, [pc, #180]	@ (8000584 <ReadFlashData+0xf0>)
 80004d0:	2200      	movs	r2, #0
 80004d2:	705a      	strb	r2, [r3, #1]

	data[0] = (uint8_t)(address >> 24);
 80004d4:	687b      	ldr	r3, [r7, #4]
 80004d6:	0e1b      	lsrs	r3, r3, #24
 80004d8:	b2db      	uxtb	r3, r3
 80004da:	723b      	strb	r3, [r7, #8]
	data[1] = (uint8_t)(address >> 16);
 80004dc:	687b      	ldr	r3, [r7, #4]
 80004de:	0c1b      	lsrs	r3, r3, #16
 80004e0:	b2db      	uxtb	r3, r3
 80004e2:	727b      	strb	r3, [r7, #9]
	data[2] = (uint8_t)(address >> 8);
 80004e4:	687b      	ldr	r3, [r7, #4]
 80004e6:	0a1b      	lsrs	r3, r3, #8
 80004e8:	b2db      	uxtb	r3, r3
 80004ea:	72bb      	strb	r3, [r7, #10]
	data[3] = (uint8_t)(address);
 80004ec:	687b      	ldr	r3, [r7, #4]
 80004ee:	b2db      	uxtb	r3, r3
 80004f0:	72fb      	strb	r3, [r7, #11]
	data[4] = crcAN3155(data, 4);
 80004f2:	f107 0308 	add.w	r3, r7, #8
 80004f6:	2104      	movs	r1, #4
 80004f8:	4618      	mov	r0, r3
 80004fa:	f7ff ff43 	bl	8000384 <crcAN3155>
 80004fe:	4603      	mov	r3, r0
 8000500:	733b      	strb	r3, [r7, #12]
	TransmitOnAN3155(data, 5);
 8000502:	f107 0308 	add.w	r3, r7, #8
 8000506:	2105      	movs	r1, #5
 8000508:	4618      	mov	r0, r3
 800050a:	f7ff fe89 	bl	8000220 <TransmitOnAN3155>
	if(AwaitResponce(ACK, ANSWER_WAIT_TIME) == AN_ERROR)
 800050e:	21c8      	movs	r1, #200	@ 0xc8
 8000510:	2079      	movs	r0, #121	@ 0x79
 8000512:	f7ff ff73 	bl	80003fc <AwaitResponce>
 8000516:	4603      	mov	r3, r0
 8000518:	2b00      	cmp	r3, #0
 800051a:	d101      	bne.n	8000520 <ReadFlashData+0x8c>
		return AN_ERROR;
 800051c:	2300      	movs	r3, #0
 800051e:	e02a      	b.n	8000576 <ReadFlashData+0xe2>
	action.flag = NONE;
 8000520:	4b18      	ldr	r3, [pc, #96]	@ (8000584 <ReadFlashData+0xf0>)
 8000522:	2200      	movs	r2, #0
 8000524:	705a      	strb	r2, [r3, #1]

	data[0] = (uint8_t)(len-1);
 8000526:	887b      	ldrh	r3, [r7, #2]
 8000528:	b2db      	uxtb	r3, r3
 800052a:	3b01      	subs	r3, #1
 800052c:	b2db      	uxtb	r3, r3
 800052e:	723b      	strb	r3, [r7, #8]
	data[1] = ((uint8_t)(len-1))^0xFF;
 8000530:	887b      	ldrh	r3, [r7, #2]
 8000532:	b2db      	uxtb	r3, r3
 8000534:	425b      	negs	r3, r3
 8000536:	b2db      	uxtb	r3, r3
 8000538:	727b      	strb	r3, [r7, #9]
	recive.command = RECIVE_DATA;
 800053a:	4b13      	ldr	r3, [pc, #76]	@ (8000588 <ReadFlashData+0xf4>)
 800053c:	2202      	movs	r2, #2
 800053e:	701a      	strb	r2, [r3, #0]
	recive.length = len+1;
 8000540:	887b      	ldrh	r3, [r7, #2]
 8000542:	3301      	adds	r3, #1
 8000544:	b29a      	uxth	r2, r3
 8000546:	4b10      	ldr	r3, [pc, #64]	@ (8000588 <ReadFlashData+0xf4>)
 8000548:	805a      	strh	r2, [r3, #2]
	TransmitOnAN3155(data, 2);
 800054a:	f107 0308 	add.w	r3, r7, #8
 800054e:	2102      	movs	r1, #2
 8000550:	4618      	mov	r0, r3
 8000552:	f7ff fe65 	bl	8000220 <TransmitOnAN3155>
	if(AwaitResponce(DATA, ANSWER_WAIT_TIME) == AN_ERROR)
 8000556:	21c8      	movs	r1, #200	@ 0xc8
 8000558:	20cc      	movs	r0, #204	@ 0xcc
 800055a:	f7ff ff4f 	bl	80003fc <AwaitResponce>
 800055e:	4603      	mov	r3, r0
 8000560:	2b00      	cmp	r3, #0
 8000562:	d101      	bne.n	8000568 <ReadFlashData+0xd4>
		return AN_ERROR;
 8000564:	2300      	movs	r3, #0
 8000566:	e006      	b.n	8000576 <ReadFlashData+0xe2>
	recive.command = RECIVE_STATE;
 8000568:	4b07      	ldr	r3, [pc, #28]	@ (8000588 <ReadFlashData+0xf4>)
 800056a:	2201      	movs	r2, #1
 800056c:	701a      	strb	r2, [r3, #0]
	recive.length = 1;
 800056e:	4b06      	ldr	r3, [pc, #24]	@ (8000588 <ReadFlashData+0xf4>)
 8000570:	2201      	movs	r2, #1
 8000572:	805a      	strh	r2, [r3, #2]

	return AN_OK;
 8000574:	2301      	movs	r3, #1
}
 8000576:	4618      	mov	r0, r3
 8000578:	3710      	adds	r7, #16
 800057a:	46bd      	mov	sp, r7
 800057c:	bd80      	pop	{r7, pc}
 800057e:	bf00      	nop
 8000580:	0800267c 	.word	0x0800267c
 8000584:	20000004 	.word	0x20000004
 8000588:	20000000 	.word	0x20000000

0800058c <GoInProgramm>:

uint8_t GoInProgramm(uint32_t address){
 800058c:	b580      	push	{r7, lr}
 800058e:	b084      	sub	sp, #16
 8000590:	af00      	add	r7, sp, #0
 8000592:	6078      	str	r0, [r7, #4]
	uint8_t data[5] = {GO_COMMAND, 0xFF^GO_COMMAND, 0, 0, 0};
 8000594:	4a28      	ldr	r2, [pc, #160]	@ (8000638 <GoInProgramm+0xac>)
 8000596:	f107 0308 	add.w	r3, r7, #8
 800059a:	e892 0003 	ldmia.w	r2, {r0, r1}
 800059e:	6018      	str	r0, [r3, #0]
 80005a0:	3304      	adds	r3, #4
 80005a2:	7019      	strb	r1, [r3, #0]
	TransmitOnAN3155(data, 2);
 80005a4:	f107 0308 	add.w	r3, r7, #8
 80005a8:	2102      	movs	r1, #2
 80005aa:	4618      	mov	r0, r3
 80005ac:	f7ff fe38 	bl	8000220 <TransmitOnAN3155>
	if(AwaitResponce(ACK, ANSWER_WAIT_TIME) == AN_ERROR)
 80005b0:	21c8      	movs	r1, #200	@ 0xc8
 80005b2:	2079      	movs	r0, #121	@ 0x79
 80005b4:	f7ff ff22 	bl	80003fc <AwaitResponce>
 80005b8:	4603      	mov	r3, r0
 80005ba:	2b00      	cmp	r3, #0
 80005bc:	d101      	bne.n	80005c2 <GoInProgramm+0x36>
		return AN_ERROR;
 80005be:	2300      	movs	r3, #0
 80005c0:	e035      	b.n	800062e <GoInProgramm+0xa2>
	action.flag = NONE;
 80005c2:	4b1e      	ldr	r3, [pc, #120]	@ (800063c <GoInProgramm+0xb0>)
 80005c4:	2200      	movs	r2, #0
 80005c6:	705a      	strb	r2, [r3, #1]

	data[0] = (uint8_t)(address >> 24);
 80005c8:	687b      	ldr	r3, [r7, #4]
 80005ca:	0e1b      	lsrs	r3, r3, #24
 80005cc:	b2db      	uxtb	r3, r3
 80005ce:	723b      	strb	r3, [r7, #8]
	data[1] = (uint8_t)(address >> 16);
 80005d0:	687b      	ldr	r3, [r7, #4]
 80005d2:	0c1b      	lsrs	r3, r3, #16
 80005d4:	b2db      	uxtb	r3, r3
 80005d6:	727b      	strb	r3, [r7, #9]
	data[2] = (uint8_t)(address >> 8);
 80005d8:	687b      	ldr	r3, [r7, #4]
 80005da:	0a1b      	lsrs	r3, r3, #8
 80005dc:	b2db      	uxtb	r3, r3
 80005de:	72bb      	strb	r3, [r7, #10]
	data[3] = (uint8_t)(address);
 80005e0:	687b      	ldr	r3, [r7, #4]
 80005e2:	b2db      	uxtb	r3, r3
 80005e4:	72fb      	strb	r3, [r7, #11]
	data[4] = crcAN3155(data, 4);
 80005e6:	f107 0308 	add.w	r3, r7, #8
 80005ea:	2104      	movs	r1, #4
 80005ec:	4618      	mov	r0, r3
 80005ee:	f7ff fec9 	bl	8000384 <crcAN3155>
 80005f2:	4603      	mov	r3, r0
 80005f4:	733b      	strb	r3, [r7, #12]
	TransmitOnAN3155(data, 5);
 80005f6:	f107 0308 	add.w	r3, r7, #8
 80005fa:	2105      	movs	r1, #5
 80005fc:	4618      	mov	r0, r3
 80005fe:	f7ff fe0f 	bl	8000220 <TransmitOnAN3155>
	if(AwaitResponce(ACK, ANSWER_WAIT_TIME) == AN_ERROR)
 8000602:	21c8      	movs	r1, #200	@ 0xc8
 8000604:	2079      	movs	r0, #121	@ 0x79
 8000606:	f7ff fef9 	bl	80003fc <AwaitResponce>
 800060a:	4603      	mov	r3, r0
 800060c:	2b00      	cmp	r3, #0
 800060e:	d101      	bne.n	8000614 <GoInProgramm+0x88>
		return AN_ERROR;
 8000610:	2300      	movs	r3, #0
 8000612:	e00c      	b.n	800062e <GoInProgramm+0xa2>
	action.flag = NONE;
 8000614:	4b09      	ldr	r3, [pc, #36]	@ (800063c <GoInProgramm+0xb0>)
 8000616:	2200      	movs	r2, #0
 8000618:	705a      	strb	r2, [r3, #1]
	if(AwaitResponce(ACK, ANSWER_WAIT_TIME) == AN_ERROR)
 800061a:	21c8      	movs	r1, #200	@ 0xc8
 800061c:	2079      	movs	r0, #121	@ 0x79
 800061e:	f7ff feed 	bl	80003fc <AwaitResponce>
 8000622:	4603      	mov	r3, r0
 8000624:	2b00      	cmp	r3, #0
 8000626:	d101      	bne.n	800062c <GoInProgramm+0xa0>
			return AN_ERROR;
 8000628:	2300      	movs	r3, #0
 800062a:	e000      	b.n	800062e <GoInProgramm+0xa2>
	return AN_OK;
 800062c:	2301      	movs	r3, #1
}
 800062e:	4618      	mov	r0, r3
 8000630:	3710      	adds	r7, #16
 8000632:	46bd      	mov	sp, r7
 8000634:	bd80      	pop	{r7, pc}
 8000636:	bf00      	nop
 8000638:	08002684 	.word	0x08002684
 800063c:	20000004 	.word	0x20000004

08000640 <main>:
uint16_t read = MAX_DATA;

uint16_t schet = 0;

int main(void)
{
 8000640:	b580      	push	{r7, lr}
 8000642:	af00      	add	r7, sp, #0
  HAL_Init();
 8000644:	f000 fa4e 	bl	8000ae4 <HAL_Init>
  SystemClock_Config();
 8000648:	f000 f904 	bl	8000854 <SystemClock_Config>
  MX_GPIO_Init();
 800064c:	f7ff fe08 	bl	8000260 <MX_GPIO_Init>
  MX_USART1_UART_Init();
 8000650:	f000 f9aa 	bl	80009a8 <MX_USART1_UART_Init>
  HAL_UART_Receive_IT(&huart1,&rxcall,1);
 8000654:	2201      	movs	r2, #1
 8000656:	4974      	ldr	r1, [pc, #464]	@ (8000828 <main+0x1e8>)
 8000658:	4874      	ldr	r0, [pc, #464]	@ (800082c <main+0x1ec>)
 800065a:	f001 fa9f 	bl	8001b9c <HAL_UART_Receive_IT>

  BootModeStart();
 800065e:	f7ff feb1 	bl	80003c4 <BootModeStart>
  HAL_Delay(700);
 8000662:	f44f 702f 	mov.w	r0, #700	@ 0x2bc
 8000666:	f000 fa9f 	bl	8000ba8 <HAL_Delay>
  StartCommand();
 800066a:	f7ff feeb 	bl	8000444 <StartCommand>

  while (1)
  {
	  switch(action.command){
 800066e:	4b70      	ldr	r3, [pc, #448]	@ (8000830 <main+0x1f0>)
 8000670:	781b      	ldrb	r3, [r3, #0]
 8000672:	2b21      	cmp	r3, #33	@ 0x21
 8000674:	d8fb      	bhi.n	800066e <main+0x2e>
 8000676:	a201      	add	r2, pc, #4	@ (adr r2, 800067c <main+0x3c>)
 8000678:	f852 f023 	ldr.w	pc, [r2, r3, lsl #2]
 800067c:	08000805 	.word	0x08000805
 8000680:	08000705 	.word	0x08000705
 8000684:	0800071f 	.word	0x0800071f
 8000688:	0800074b 	.word	0x0800074b
 800068c:	0800066f 	.word	0x0800066f
 8000690:	0800066f 	.word	0x0800066f
 8000694:	0800066f 	.word	0x0800066f
 8000698:	0800066f 	.word	0x0800066f
 800069c:	0800066f 	.word	0x0800066f
 80006a0:	0800066f 	.word	0x0800066f
 80006a4:	0800066f 	.word	0x0800066f
 80006a8:	0800066f 	.word	0x0800066f
 80006ac:	0800066f 	.word	0x0800066f
 80006b0:	0800066f 	.word	0x0800066f
 80006b4:	0800066f 	.word	0x0800066f
 80006b8:	0800066f 	.word	0x0800066f
 80006bc:	0800066f 	.word	0x0800066f
 80006c0:	0800066f 	.word	0x0800066f
 80006c4:	0800066f 	.word	0x0800066f
 80006c8:	0800066f 	.word	0x0800066f
 80006cc:	0800066f 	.word	0x0800066f
 80006d0:	0800066f 	.word	0x0800066f
 80006d4:	0800066f 	.word	0x0800066f
 80006d8:	0800066f 	.word	0x0800066f
 80006dc:	0800066f 	.word	0x0800066f
 80006e0:	0800066f 	.word	0x0800066f
 80006e4:	0800066f 	.word	0x0800066f
 80006e8:	0800066f 	.word	0x0800066f
 80006ec:	0800066f 	.word	0x0800066f
 80006f0:	0800066f 	.word	0x0800066f
 80006f4:	0800066f 	.word	0x0800066f
 80006f8:	0800066f 	.word	0x0800066f
 80006fc:	0800066f 	.word	0x0800066f
 8000700:	080007ef 	.word	0x080007ef
	  	  case(GET_DATA_SIZE):
			  if(ReadFlashData(FLASH_DATA_SIZE_POS, FLASH_DATA_SIZE_LEN)){
 8000704:	2104      	movs	r1, #4
 8000706:	f04f 6000 	mov.w	r0, #134217728	@ 0x8000000
 800070a:	f7ff fec3 	bl	8000494 <ReadFlashData>
 800070e:	4603      	mov	r3, r0
 8000710:	2b00      	cmp	r3, #0
 8000712:	f000 8081 	beq.w	8000818 <main+0x1d8>
//			      (uint32_t)(action.data[1] << 16) | (uint32_t)(action.data[2] << 8) |
//				  (uint32_t)(action.data[3]);
//				  crc_now = crc16(crc_now, action.data, 2);
//				  uint8_t dt[2] = {action.data[2], action.data[3]};
//				  crc_now = crc16(crc_now, dt, 2);
				  action.command = GET_CRC16;
 8000716:	4b46      	ldr	r3, [pc, #280]	@ (8000830 <main+0x1f0>)
 8000718:	2202      	movs	r2, #2
 800071a:	701a      	strb	r2, [r3, #0]
			  }
		  	  break;
 800071c:	e07c      	b.n	8000818 <main+0x1d8>
	  	  case(GET_CRC16):
			  if(ReadFlashData(FLASH_CRC16_POS, 2)){
 800071e:	2102      	movs	r1, #2
 8000720:	f04f 6000 	mov.w	r0, #134217728	@ 0x8000000
 8000724:	f7ff feb6 	bl	8000494 <ReadFlashData>
 8000728:	4603      	mov	r3, r0
 800072a:	2b00      	cmp	r3, #0
 800072c:	d076      	beq.n	800081c <main+0x1dc>
				  crc16_schet = (uint16_t)(action.data[0] << 8) |
 800072e:	4b40      	ldr	r3, [pc, #256]	@ (8000830 <main+0x1f0>)
 8000730:	789b      	ldrb	r3, [r3, #2]
 8000732:	021b      	lsls	r3, r3, #8
 8000734:	b29b      	uxth	r3, r3
				  (uint16_t)(action.data[1]);
 8000736:	4a3e      	ldr	r2, [pc, #248]	@ (8000830 <main+0x1f0>)
 8000738:	78d2      	ldrb	r2, [r2, #3]
				  crc16_schet = (uint16_t)(action.data[0] << 8) |
 800073a:	4313      	orrs	r3, r2
 800073c:	b29a      	uxth	r2, r3
 800073e:	4b3d      	ldr	r3, [pc, #244]	@ (8000834 <main+0x1f4>)
 8000740:	801a      	strh	r2, [r3, #0]
				  action.command = READ_DATA;
 8000742:	4b3b      	ldr	r3, [pc, #236]	@ (8000830 <main+0x1f0>)
 8000744:	2203      	movs	r2, #3
 8000746:	701a      	strb	r2, [r3, #0]
			  }
	  	  	  break;
 8000748:	e068      	b.n	800081c <main+0x1dc>
	  	  case(READ_DATA):
			  if(ReadFlashData(FLASH_ADRESS_START+byteReads, read) && dataSize >= read){
 800074a:	4b3b      	ldr	r3, [pc, #236]	@ (8000838 <main+0x1f8>)
 800074c:	681b      	ldr	r3, [r3, #0]
 800074e:	f103 6300 	add.w	r3, r3, #134217728	@ 0x8000000
 8000752:	4a3a      	ldr	r2, [pc, #232]	@ (800083c <main+0x1fc>)
 8000754:	8812      	ldrh	r2, [r2, #0]
 8000756:	4611      	mov	r1, r2
 8000758:	4618      	mov	r0, r3
 800075a:	f7ff fe9b 	bl	8000494 <ReadFlashData>
 800075e:	4603      	mov	r3, r0
 8000760:	2b00      	cmp	r3, #0
 8000762:	d05d      	beq.n	8000820 <main+0x1e0>
 8000764:	4b35      	ldr	r3, [pc, #212]	@ (800083c <main+0x1fc>)
 8000766:	881b      	ldrh	r3, [r3, #0]
 8000768:	461a      	mov	r2, r3
 800076a:	4b35      	ldr	r3, [pc, #212]	@ (8000840 <main+0x200>)
 800076c:	681b      	ldr	r3, [r3, #0]
 800076e:	429a      	cmp	r2, r3
 8000770:	d856      	bhi.n	8000820 <main+0x1e0>
				  byteReads+=read;
 8000772:	4b32      	ldr	r3, [pc, #200]	@ (800083c <main+0x1fc>)
 8000774:	881b      	ldrh	r3, [r3, #0]
 8000776:	461a      	mov	r2, r3
 8000778:	4b2f      	ldr	r3, [pc, #188]	@ (8000838 <main+0x1f8>)
 800077a:	681b      	ldr	r3, [r3, #0]
 800077c:	4413      	add	r3, r2
 800077e:	4a2e      	ldr	r2, [pc, #184]	@ (8000838 <main+0x1f8>)
 8000780:	6013      	str	r3, [r2, #0]
				  crc_now = crc16(crc_now, action.data, read);
 8000782:	4b30      	ldr	r3, [pc, #192]	@ (8000844 <main+0x204>)
 8000784:	881b      	ldrh	r3, [r3, #0]
 8000786:	4a2d      	ldr	r2, [pc, #180]	@ (800083c <main+0x1fc>)
 8000788:	8812      	ldrh	r2, [r2, #0]
 800078a:	492f      	ldr	r1, [pc, #188]	@ (8000848 <main+0x208>)
 800078c:	4618      	mov	r0, r3
 800078e:	f7ff fdb9 	bl	8000304 <crc16>
 8000792:	4603      	mov	r3, r0
 8000794:	461a      	mov	r2, r3
 8000796:	4b2b      	ldr	r3, [pc, #172]	@ (8000844 <main+0x204>)
 8000798:	801a      	strh	r2, [r3, #0]
				  schet+=1;
 800079a:	4b2c      	ldr	r3, [pc, #176]	@ (800084c <main+0x20c>)
 800079c:	881b      	ldrh	r3, [r3, #0]
 800079e:	3301      	adds	r3, #1
 80007a0:	b29a      	uxth	r2, r3
 80007a2:	4b2a      	ldr	r3, [pc, #168]	@ (800084c <main+0x20c>)
 80007a4:	801a      	strh	r2, [r3, #0]
				  if((dataSize-byteReads) == 0){
 80007a6:	4b26      	ldr	r3, [pc, #152]	@ (8000840 <main+0x200>)
 80007a8:	681a      	ldr	r2, [r3, #0]
 80007aa:	4b23      	ldr	r3, [pc, #140]	@ (8000838 <main+0x1f8>)
 80007ac:	681b      	ldr	r3, [r3, #0]
 80007ae:	429a      	cmp	r2, r3
 80007b0:	d109      	bne.n	80007c6 <main+0x186>
					  HAL_GPIO_WritePin(BOOT_PORT, BOOT_PIN, GPIO_PIN_RESET);
 80007b2:	2200      	movs	r2, #0
 80007b4:	f44f 4100 	mov.w	r1, #32768	@ 0x8000
 80007b8:	4825      	ldr	r0, [pc, #148]	@ (8000850 <main+0x210>)
 80007ba:	f000 fd5d 	bl	8001278 <HAL_GPIO_WritePin>
					  action.command = GO_COMMAND;
 80007be:	4b1c      	ldr	r3, [pc, #112]	@ (8000830 <main+0x1f0>)
 80007c0:	2221      	movs	r2, #33	@ 0x21
 80007c2:	701a      	strb	r2, [r3, #0]
				  }else if((dataSize-byteReads) < read){
					  read = (dataSize-byteReads);
				  }
			  }
	  	  	  break;
 80007c4:	e02c      	b.n	8000820 <main+0x1e0>
				  }else if((dataSize-byteReads) < read){
 80007c6:	4b1e      	ldr	r3, [pc, #120]	@ (8000840 <main+0x200>)
 80007c8:	681a      	ldr	r2, [r3, #0]
 80007ca:	4b1b      	ldr	r3, [pc, #108]	@ (8000838 <main+0x1f8>)
 80007cc:	681b      	ldr	r3, [r3, #0]
 80007ce:	1ad3      	subs	r3, r2, r3
 80007d0:	4a1a      	ldr	r2, [pc, #104]	@ (800083c <main+0x1fc>)
 80007d2:	8812      	ldrh	r2, [r2, #0]
 80007d4:	4293      	cmp	r3, r2
 80007d6:	d223      	bcs.n	8000820 <main+0x1e0>
					  read = (dataSize-byteReads);
 80007d8:	4b19      	ldr	r3, [pc, #100]	@ (8000840 <main+0x200>)
 80007da:	681b      	ldr	r3, [r3, #0]
 80007dc:	b29a      	uxth	r2, r3
 80007de:	4b16      	ldr	r3, [pc, #88]	@ (8000838 <main+0x1f8>)
 80007e0:	681b      	ldr	r3, [r3, #0]
 80007e2:	b29b      	uxth	r3, r3
 80007e4:	1ad3      	subs	r3, r2, r3
 80007e6:	b29a      	uxth	r2, r3
 80007e8:	4b14      	ldr	r3, [pc, #80]	@ (800083c <main+0x1fc>)
 80007ea:	801a      	strh	r2, [r3, #0]
	  	  	  break;
 80007ec:	e018      	b.n	8000820 <main+0x1e0>
	  	  case(GO_COMMAND):
			  if(GoInProgramm(0x80000000)){
 80007ee:	f04f 4000 	mov.w	r0, #2147483648	@ 0x80000000
 80007f2:	f7ff fecb 	bl	800058c <GoInProgramm>
 80007f6:	4603      	mov	r3, r0
 80007f8:	2b00      	cmp	r3, #0
 80007fa:	d013      	beq.n	8000824 <main+0x1e4>
				  action.command = 0x00;
 80007fc:	4b0c      	ldr	r3, [pc, #48]	@ (8000830 <main+0x1f0>)
 80007fe:	2200      	movs	r2, #0
 8000800:	701a      	strb	r2, [r3, #0]
			  }
	  	  	  break;
 8000802:	e00f      	b.n	8000824 <main+0x1e4>
	  	  case(0):
			  HAL_GPIO_TogglePin(GPIOC, GPIO_PIN_13);
 8000804:	f44f 5100 	mov.w	r1, #8192	@ 0x2000
 8000808:	4811      	ldr	r0, [pc, #68]	@ (8000850 <main+0x210>)
 800080a:	f000 fd4d 	bl	80012a8 <HAL_GPIO_TogglePin>
			  HAL_Delay(500);
 800080e:	f44f 70fa 	mov.w	r0, #500	@ 0x1f4
 8000812:	f000 f9c9 	bl	8000ba8 <HAL_Delay>
 8000816:	e72a      	b.n	800066e <main+0x2e>
		  	  break;
 8000818:	bf00      	nop
 800081a:	e728      	b.n	800066e <main+0x2e>
	  	  	  break;
 800081c:	bf00      	nop
 800081e:	e726      	b.n	800066e <main+0x2e>
	  	  	  break;
 8000820:	bf00      	nop
 8000822:	e724      	b.n	800066e <main+0x2e>
	  	  	  break;
 8000824:	bf00      	nop
 8000826:	e722      	b.n	800066e <main+0x2e>
 8000828:	20000544 	.word	0x20000544
 800082c:	20000550 	.word	0x20000550
 8000830:	20000004 	.word	0x20000004
 8000834:	2000010c 	.word	0x2000010c
 8000838:	20000548 	.word	0x20000548
 800083c:	20000110 	.word	0x20000110
 8000840:	20000108 	.word	0x20000108
 8000844:	2000010e 	.word	0x2000010e
 8000848:	20000006 	.word	0x20000006
 800084c:	2000054c 	.word	0x2000054c
 8000850:	40011000 	.word	0x40011000

08000854 <SystemClock_Config>:
	  }
  }
}

void SystemClock_Config(void)
{
 8000854:	b580      	push	{r7, lr}
 8000856:	b090      	sub	sp, #64	@ 0x40
 8000858:	af00      	add	r7, sp, #0
  RCC_OscInitTypeDef RCC_OscInitStruct = {0};
 800085a:	f107 0318 	add.w	r3, r7, #24
 800085e:	2228      	movs	r2, #40	@ 0x28
 8000860:	2100      	movs	r1, #0
 8000862:	4618      	mov	r0, r3
 8000864:	f001 fed2 	bl	800260c <memset>
  RCC_ClkInitTypeDef RCC_ClkInitStruct = {0};
 8000868:	1d3b      	adds	r3, r7, #4
 800086a:	2200      	movs	r2, #0
 800086c:	601a      	str	r2, [r3, #0]
 800086e:	605a      	str	r2, [r3, #4]
 8000870:	609a      	str	r2, [r3, #8]
 8000872:	60da      	str	r2, [r3, #12]
 8000874:	611a      	str	r2, [r3, #16]

  /** Initializes the RCC Oscillators according to the specified parameters
  * in the RCC_OscInitTypeDef structure.
  */
  RCC_OscInitStruct.OscillatorType = RCC_OSCILLATORTYPE_HSE;
 8000876:	2301      	movs	r3, #1
 8000878:	61bb      	str	r3, [r7, #24]
  RCC_OscInitStruct.HSEState = RCC_HSE_ON;
 800087a:	f44f 3380 	mov.w	r3, #65536	@ 0x10000
 800087e:	61fb      	str	r3, [r7, #28]
  RCC_OscInitStruct.HSEPredivValue = RCC_HSE_PREDIV_DIV1;
 8000880:	2300      	movs	r3, #0
 8000882:	623b      	str	r3, [r7, #32]
  RCC_OscInitStruct.HSIState = RCC_HSI_ON;
 8000884:	2301      	movs	r3, #1
 8000886:	62bb      	str	r3, [r7, #40]	@ 0x28
  RCC_OscInitStruct.PLL.PLLState = RCC_PLL_ON;
 8000888:	2302      	movs	r3, #2
 800088a:	637b      	str	r3, [r7, #52]	@ 0x34
  RCC_OscInitStruct.PLL.PLLSource = RCC_PLLSOURCE_HSE;
 800088c:	f44f 3380 	mov.w	r3, #65536	@ 0x10000
 8000890:	63bb      	str	r3, [r7, #56]	@ 0x38
  RCC_OscInitStruct.PLL.PLLMUL = RCC_PLL_MUL8;
 8000892:	f44f 13c0 	mov.w	r3, #1572864	@ 0x180000
 8000896:	63fb      	str	r3, [r7, #60]	@ 0x3c
  HAL_RCC_OscConfig(&RCC_OscInitStruct);
 8000898:	f107 0318 	add.w	r3, r7, #24
 800089c:	4618      	mov	r0, r3
 800089e:	f000 fd1d 	bl	80012dc <HAL_RCC_OscConfig>

  /** Initializes the CPU, AHB and APB buses clocks
  */
  RCC_ClkInitStruct.ClockType = RCC_CLOCKTYPE_HCLK|RCC_CLOCKTYPE_SYSCLK
 80008a2:	230f      	movs	r3, #15
 80008a4:	607b      	str	r3, [r7, #4]
                              |RCC_CLOCKTYPE_PCLK1|RCC_CLOCKTYPE_PCLK2;
  RCC_ClkInitStruct.SYSCLKSource = RCC_SYSCLKSOURCE_PLLCLK;
 80008a6:	2302      	movs	r3, #2
 80008a8:	60bb      	str	r3, [r7, #8]
  RCC_ClkInitStruct.AHBCLKDivider = RCC_SYSCLK_DIV1;
 80008aa:	2300      	movs	r3, #0
 80008ac:	60fb      	str	r3, [r7, #12]
  RCC_ClkInitStruct.APB1CLKDivider = RCC_HCLK_DIV2;
 80008ae:	f44f 6380 	mov.w	r3, #1024	@ 0x400
 80008b2:	613b      	str	r3, [r7, #16]
  RCC_ClkInitStruct.APB2CLKDivider = RCC_HCLK_DIV1;
 80008b4:	2300      	movs	r3, #0
 80008b6:	617b      	str	r3, [r7, #20]

  HAL_RCC_ClockConfig(&RCC_ClkInitStruct, FLASH_LATENCY_2);
 80008b8:	1d3b      	adds	r3, r7, #4
 80008ba:	2102      	movs	r1, #2
 80008bc:	4618      	mov	r0, r3
 80008be:	f000 ff8f 	bl	80017e0 <HAL_RCC_ClockConfig>
}
 80008c2:	bf00      	nop
 80008c4:	3740      	adds	r7, #64	@ 0x40
 80008c6:	46bd      	mov	sp, r7
 80008c8:	bd80      	pop	{r7, pc}
	...

080008cc <HAL_MspInit>:
/* USER CODE END 0 */
/**
  * Initializes the Global MSP.
  */
void HAL_MspInit(void)
{
 80008cc:	b480      	push	{r7}
 80008ce:	b085      	sub	sp, #20
 80008d0:	af00      	add	r7, sp, #0

  /* USER CODE BEGIN MspInit 0 */

  /* USER CODE END MspInit 0 */

  __HAL_RCC_AFIO_CLK_ENABLE();
 80008d2:	4b15      	ldr	r3, [pc, #84]	@ (8000928 <HAL_MspInit+0x5c>)
 80008d4:	699b      	ldr	r3, [r3, #24]
 80008d6:	4a14      	ldr	r2, [pc, #80]	@ (8000928 <HAL_MspInit+0x5c>)
 80008d8:	f043 0301 	orr.w	r3, r3, #1
 80008dc:	6193      	str	r3, [r2, #24]
 80008de:	4b12      	ldr	r3, [pc, #72]	@ (8000928 <HAL_MspInit+0x5c>)
 80008e0:	699b      	ldr	r3, [r3, #24]
 80008e2:	f003 0301 	and.w	r3, r3, #1
 80008e6:	60bb      	str	r3, [r7, #8]
 80008e8:	68bb      	ldr	r3, [r7, #8]
  __HAL_RCC_PWR_CLK_ENABLE();
 80008ea:	4b0f      	ldr	r3, [pc, #60]	@ (8000928 <HAL_MspInit+0x5c>)
 80008ec:	69db      	ldr	r3, [r3, #28]
 80008ee:	4a0e      	ldr	r2, [pc, #56]	@ (8000928 <HAL_MspInit+0x5c>)
 80008f0:	f043 5380 	orr.w	r3, r3, #268435456	@ 0x10000000
 80008f4:	61d3      	str	r3, [r2, #28]
 80008f6:	4b0c      	ldr	r3, [pc, #48]	@ (8000928 <HAL_MspInit+0x5c>)
 80008f8:	69db      	ldr	r3, [r3, #28]
 80008fa:	f003 5380 	and.w	r3, r3, #268435456	@ 0x10000000
 80008fe:	607b      	str	r3, [r7, #4]
 8000900:	687b      	ldr	r3, [r7, #4]

  /* System interrupt init*/

  /** NOJTAG: JTAG-DP Disabled and SW-DP Enabled
  */
  __HAL_AFIO_REMAP_SWJ_NOJTAG();
 8000902:	4b0a      	ldr	r3, [pc, #40]	@ (800092c <HAL_MspInit+0x60>)
 8000904:	685b      	ldr	r3, [r3, #4]
 8000906:	60fb      	str	r3, [r7, #12]
 8000908:	68fb      	ldr	r3, [r7, #12]
 800090a:	f023 63e0 	bic.w	r3, r3, #117440512	@ 0x7000000
 800090e:	60fb      	str	r3, [r7, #12]
 8000910:	68fb      	ldr	r3, [r7, #12]
 8000912:	f043 7300 	orr.w	r3, r3, #33554432	@ 0x2000000
 8000916:	60fb      	str	r3, [r7, #12]
 8000918:	4a04      	ldr	r2, [pc, #16]	@ (800092c <HAL_MspInit+0x60>)
 800091a:	68fb      	ldr	r3, [r7, #12]
 800091c:	6053      	str	r3, [r2, #4]

  /* USER CODE BEGIN MspInit 1 */

  /* USER CODE END MspInit 1 */
}
 800091e:	bf00      	nop
 8000920:	3714      	adds	r7, #20
 8000922:	46bd      	mov	sp, r7
 8000924:	bc80      	pop	{r7}
 8000926:	4770      	bx	lr
 8000928:	40021000 	.word	0x40021000
 800092c:	40010000 	.word	0x40010000

08000930 <NMI_Handler>:
/******************************************************************************/
/**
  * @brief This function handles Non maskable interrupt.
  */
void NMI_Handler(void)
{
 8000930:	b480      	push	{r7}
 8000932:	af00      	add	r7, sp, #0
  /* USER CODE BEGIN NonMaskableInt_IRQn 0 */

  /* USER CODE END NonMaskableInt_IRQn 0 */
  /* USER CODE BEGIN NonMaskableInt_IRQn 1 */
   while (1)
 8000934:	bf00      	nop
 8000936:	e7fd      	b.n	8000934 <NMI_Handler+0x4>

08000938 <HardFault_Handler>:

/**
  * @brief This function handles Hard fault interrupt.
  */
void HardFault_Handler(void)
{
 8000938:	b480      	push	{r7}
 800093a:	af00      	add	r7, sp, #0
  /* USER CODE BEGIN HardFault_IRQn 0 */

  /* USER CODE END HardFault_IRQn 0 */
  while (1)
 800093c:	bf00      	nop
 800093e:	e7fd      	b.n	800093c <HardFault_Handler+0x4>

08000940 <MemManage_Handler>:

/**
  * @brief This function handles Memory management fault.
  */
void MemManage_Handler(void)
{
 8000940:	b480      	push	{r7}
 8000942:	af00      	add	r7, sp, #0
  /* USER CODE BEGIN MemoryManagement_IRQn 0 */

  /* USER CODE END MemoryManagement_IRQn 0 */
  while (1)
 8000944:	bf00      	nop
 8000946:	e7fd      	b.n	8000944 <MemManage_Handler+0x4>

08000948 <BusFault_Handler>:

/**
  * @brief This function handles Prefetch fault, memory access fault.
  */
void BusFault_Handler(void)
{
 8000948:	b480      	push	{r7}
 800094a:	af00      	add	r7, sp, #0
  /* USER CODE BEGIN BusFault_IRQn 0 */

  /* USER CODE END BusFault_IRQn 0 */
  while (1)
 800094c:	bf00      	nop
 800094e:	e7fd      	b.n	800094c <BusFault_Handler+0x4>

08000950 <UsageFault_Handler>:

/**
  * @brief This function handles Undefined instruction or illegal state.
  */
void UsageFault_Handler(void)
{
 8000950:	b480      	push	{r7}
 8000952:	af00      	add	r7, sp, #0
  /* USER CODE BEGIN UsageFault_IRQn 0 */

  /* USER CODE END UsageFault_IRQn 0 */
  while (1)
 8000954:	bf00      	nop
 8000956:	e7fd      	b.n	8000954 <UsageFault_Handler+0x4>

08000958 <SVC_Handler>:

/**
  * @brief This function handles System service call via SWI instruction.
  */
void SVC_Handler(void)
{
 8000958:	b480      	push	{r7}
 800095a:	af00      	add	r7, sp, #0

  /* USER CODE END SVCall_IRQn 0 */
  /* USER CODE BEGIN SVCall_IRQn 1 */

  /* USER CODE END SVCall_IRQn 1 */
}
 800095c:	bf00      	nop
 800095e:	46bd      	mov	sp, r7
 8000960:	bc80      	pop	{r7}
 8000962:	4770      	bx	lr

08000964 <DebugMon_Handler>:

/**
  * @brief This function handles Debug monitor.
  */
void DebugMon_Handler(void)
{
 8000964:	b480      	push	{r7}
 8000966:	af00      	add	r7, sp, #0

  /* USER CODE END DebugMonitor_IRQn 0 */
  /* USER CODE BEGIN DebugMonitor_IRQn 1 */

  /* USER CODE END DebugMonitor_IRQn 1 */
}
 8000968:	bf00      	nop
 800096a:	46bd      	mov	sp, r7
 800096c:	bc80      	pop	{r7}
 800096e:	4770      	bx	lr

08000970 <PendSV_Handler>:

/**
  * @brief This function handles Pendable request for system service.
  */
void PendSV_Handler(void)
{
 8000970:	b480      	push	{r7}
 8000972:	af00      	add	r7, sp, #0

  /* USER CODE END PendSV_IRQn 0 */
  /* USER CODE BEGIN PendSV_IRQn 1 */

  /* USER CODE END PendSV_IRQn 1 */
}
 8000974:	bf00      	nop
 8000976:	46bd      	mov	sp, r7
 8000978:	bc80      	pop	{r7}
 800097a:	4770      	bx	lr

0800097c <SysTick_Handler>:

/**
  * @brief This function handles System tick timer.
  */
void SysTick_Handler(void)
{
 800097c:	b580      	push	{r7, lr}
 800097e:	af00      	add	r7, sp, #0
  /* USER CODE BEGIN SysTick_IRQn 0 */

  /* USER CODE END SysTick_IRQn 0 */
  HAL_IncTick();
 8000980:	f000 f8f6 	bl	8000b70 <HAL_IncTick>
  /* USER CODE BEGIN SysTick_IRQn 1 */

  /* USER CODE END SysTick_IRQn 1 */
}
 8000984:	bf00      	nop
 8000986:	bd80      	pop	{r7, pc}

08000988 <USART1_IRQHandler>:

/**
  * @brief This function handles USART1 global interrupt.
  */
void USART1_IRQHandler(void)
{
 8000988:	b580      	push	{r7, lr}
 800098a:	af00      	add	r7, sp, #0
  /* USER CODE BEGIN USART1_IRQn 0 */

  /* USER CODE END USART1_IRQn 0 */
  HAL_UART_IRQHandler(&huart1);
 800098c:	4802      	ldr	r0, [pc, #8]	@ (8000998 <USART1_IRQHandler+0x10>)
 800098e:	f001 f92b 	bl	8001be8 <HAL_UART_IRQHandler>
  /* USER CODE BEGIN USART1_IRQn 1 */

  /* USER CODE END USART1_IRQn 1 */
}
 8000992:	bf00      	nop
 8000994:	bd80      	pop	{r7, pc}
 8000996:	bf00      	nop
 8000998:	20000550 	.word	0x20000550

0800099c <SystemInit>:
  * @note   This function should be used only after reset.
  * @param  None
  * @retval None
  */
void SystemInit (void)
{
 800099c:	b480      	push	{r7}
 800099e:	af00      	add	r7, sp, #0

  /* Configure the Vector Table location -------------------------------------*/
#if defined(USER_VECT_TAB_ADDRESS)
  SCB->VTOR = VECT_TAB_BASE_ADDRESS | VECT_TAB_OFFSET; /* Vector Table Relocation in Internal SRAM. */
#endif /* USER_VECT_TAB_ADDRESS */
}
 80009a0:	bf00      	nop
 80009a2:	46bd      	mov	sp, r7
 80009a4:	bc80      	pop	{r7}
 80009a6:	4770      	bx	lr

080009a8 <MX_USART1_UART_Init>:
UART_HandleTypeDef huart1;

/* USART1 init function */

void MX_USART1_UART_Init(void)
{
 80009a8:	b580      	push	{r7, lr}
 80009aa:	af00      	add	r7, sp, #0
  /* USER CODE END USART1_Init 0 */

  /* USER CODE BEGIN USART1_Init 1 */

  /* USER CODE END USART1_Init 1 */
  huart1.Instance = USART1;
 80009ac:	4b0e      	ldr	r3, [pc, #56]	@ (80009e8 <MX_USART1_UART_Init+0x40>)
 80009ae:	4a0f      	ldr	r2, [pc, #60]	@ (80009ec <MX_USART1_UART_Init+0x44>)
 80009b0:	601a      	str	r2, [r3, #0]
  huart1.Init.BaudRate = 115200;
 80009b2:	4b0d      	ldr	r3, [pc, #52]	@ (80009e8 <MX_USART1_UART_Init+0x40>)
 80009b4:	f44f 32e1 	mov.w	r2, #115200	@ 0x1c200
 80009b8:	605a      	str	r2, [r3, #4]
  huart1.Init.WordLength = UART_WORDLENGTH_8B;
 80009ba:	4b0b      	ldr	r3, [pc, #44]	@ (80009e8 <MX_USART1_UART_Init+0x40>)
 80009bc:	2200      	movs	r2, #0
 80009be:	609a      	str	r2, [r3, #8]
  huart1.Init.StopBits = UART_STOPBITS_1;
 80009c0:	4b09      	ldr	r3, [pc, #36]	@ (80009e8 <MX_USART1_UART_Init+0x40>)
 80009c2:	2200      	movs	r2, #0
 80009c4:	60da      	str	r2, [r3, #12]
  huart1.Init.Parity = UART_PARITY_NONE;
 80009c6:	4b08      	ldr	r3, [pc, #32]	@ (80009e8 <MX_USART1_UART_Init+0x40>)
 80009c8:	2200      	movs	r2, #0
 80009ca:	611a      	str	r2, [r3, #16]
  huart1.Init.Mode = UART_MODE_TX_RX;
 80009cc:	4b06      	ldr	r3, [pc, #24]	@ (80009e8 <MX_USART1_UART_Init+0x40>)
 80009ce:	220c      	movs	r2, #12
 80009d0:	615a      	str	r2, [r3, #20]
  huart1.Init.HwFlowCtl = UART_HWCONTROL_NONE;
 80009d2:	4b05      	ldr	r3, [pc, #20]	@ (80009e8 <MX_USART1_UART_Init+0x40>)
 80009d4:	2200      	movs	r2, #0
 80009d6:	619a      	str	r2, [r3, #24]
  huart1.Init.OverSampling = UART_OVERSAMPLING_16;
 80009d8:	4b03      	ldr	r3, [pc, #12]	@ (80009e8 <MX_USART1_UART_Init+0x40>)
 80009da:	2200      	movs	r2, #0
 80009dc:	61da      	str	r2, [r3, #28]
  HAL_UART_Init(&huart1);
 80009de:	4802      	ldr	r0, [pc, #8]	@ (80009e8 <MX_USART1_UART_Init+0x40>)
 80009e0:	f001 f88c 	bl	8001afc <HAL_UART_Init>
}
 80009e4:	bf00      	nop
 80009e6:	bd80      	pop	{r7, pc}
 80009e8:	20000550 	.word	0x20000550
 80009ec:	40013800 	.word	0x40013800

080009f0 <HAL_UART_MspInit>:

void HAL_UART_MspInit(UART_HandleTypeDef* uartHandle)
{
 80009f0:	b580      	push	{r7, lr}
 80009f2:	b088      	sub	sp, #32
 80009f4:	af00      	add	r7, sp, #0
 80009f6:	6078      	str	r0, [r7, #4]

  GPIO_InitTypeDef GPIO_InitStruct = {0};
 80009f8:	f107 0310 	add.w	r3, r7, #16
 80009fc:	2200      	movs	r2, #0
 80009fe:	601a      	str	r2, [r3, #0]
 8000a00:	605a      	str	r2, [r3, #4]
 8000a02:	609a      	str	r2, [r3, #8]
 8000a04:	60da      	str	r2, [r3, #12]
  if(uartHandle->Instance==USART1)
 8000a06:	687b      	ldr	r3, [r7, #4]
 8000a08:	681b      	ldr	r3, [r3, #0]
 8000a0a:	4a20      	ldr	r2, [pc, #128]	@ (8000a8c <HAL_UART_MspInit+0x9c>)
 8000a0c:	4293      	cmp	r3, r2
 8000a0e:	d139      	bne.n	8000a84 <HAL_UART_MspInit+0x94>
  {
  /* USER CODE BEGIN USART1_MspInit 0 */

  /* USER CODE END USART1_MspInit 0 */
    /* USART1 clock enable */
    __HAL_RCC_USART1_CLK_ENABLE();
 8000a10:	4b1f      	ldr	r3, [pc, #124]	@ (8000a90 <HAL_UART_MspInit+0xa0>)
 8000a12:	699b      	ldr	r3, [r3, #24]
 8000a14:	4a1e      	ldr	r2, [pc, #120]	@ (8000a90 <HAL_UART_MspInit+0xa0>)
 8000a16:	f443 4380 	orr.w	r3, r3, #16384	@ 0x4000
 8000a1a:	6193      	str	r3, [r2, #24]
 8000a1c:	4b1c      	ldr	r3, [pc, #112]	@ (8000a90 <HAL_UART_MspInit+0xa0>)
 8000a1e:	699b      	ldr	r3, [r3, #24]
 8000a20:	f403 4380 	and.w	r3, r3, #16384	@ 0x4000
 8000a24:	60fb      	str	r3, [r7, #12]
 8000a26:	68fb      	ldr	r3, [r7, #12]

    __HAL_RCC_GPIOA_CLK_ENABLE();
 8000a28:	4b19      	ldr	r3, [pc, #100]	@ (8000a90 <HAL_UART_MspInit+0xa0>)
 8000a2a:	699b      	ldr	r3, [r3, #24]
 8000a2c:	4a18      	ldr	r2, [pc, #96]	@ (8000a90 <HAL_UART_MspInit+0xa0>)
 8000a2e:	f043 0304 	orr.w	r3, r3, #4
 8000a32:	6193      	str	r3, [r2, #24]
 8000a34:	4b16      	ldr	r3, [pc, #88]	@ (8000a90 <HAL_UART_MspInit+0xa0>)
 8000a36:	699b      	ldr	r3, [r3, #24]
 8000a38:	f003 0304 	and.w	r3, r3, #4
 8000a3c:	60bb      	str	r3, [r7, #8]
 8000a3e:	68bb      	ldr	r3, [r7, #8]
    /**USART1 GPIO Configuration
    PA9     ------> USART1_TX
    PA10     ------> USART1_RX
    */
    GPIO_InitStruct.Pin = GPIO_PIN_9;
 8000a40:	f44f 7300 	mov.w	r3, #512	@ 0x200
 8000a44:	613b      	str	r3, [r7, #16]
    GPIO_InitStruct.Mode = GPIO_MODE_AF_PP;
 8000a46:	2302      	movs	r3, #2
 8000a48:	617b      	str	r3, [r7, #20]
    GPIO_InitStruct.Speed = GPIO_SPEED_FREQ_HIGH;
 8000a4a:	2303      	movs	r3, #3
 8000a4c:	61fb      	str	r3, [r7, #28]
    HAL_GPIO_Init(GPIOA, &GPIO_InitStruct);
 8000a4e:	f107 0310 	add.w	r3, r7, #16
 8000a52:	4619      	mov	r1, r3
 8000a54:	480f      	ldr	r0, [pc, #60]	@ (8000a94 <HAL_UART_MspInit+0xa4>)
 8000a56:	f000 fa8b 	bl	8000f70 <HAL_GPIO_Init>

    GPIO_InitStruct.Pin = GPIO_PIN_10;
 8000a5a:	f44f 6380 	mov.w	r3, #1024	@ 0x400
 8000a5e:	613b      	str	r3, [r7, #16]
    GPIO_InitStruct.Mode = GPIO_MODE_INPUT;
 8000a60:	2300      	movs	r3, #0
 8000a62:	617b      	str	r3, [r7, #20]
    GPIO_InitStruct.Pull = GPIO_NOPULL;
 8000a64:	2300      	movs	r3, #0
 8000a66:	61bb      	str	r3, [r7, #24]
    HAL_GPIO_Init(GPIOA, &GPIO_InitStruct);
 8000a68:	f107 0310 	add.w	r3, r7, #16
 8000a6c:	4619      	mov	r1, r3
 8000a6e:	4809      	ldr	r0, [pc, #36]	@ (8000a94 <HAL_UART_MspInit+0xa4>)
 8000a70:	f000 fa7e 	bl	8000f70 <HAL_GPIO_Init>

    /* USART1 interrupt Init */
    HAL_NVIC_SetPriority(USART1_IRQn, 0, 0);
 8000a74:	2200      	movs	r2, #0
 8000a76:	2100      	movs	r1, #0
 8000a78:	2025      	movs	r0, #37	@ 0x25
 8000a7a:	f000 f990 	bl	8000d9e <HAL_NVIC_SetPriority>
    HAL_NVIC_EnableIRQ(USART1_IRQn);
 8000a7e:	2025      	movs	r0, #37	@ 0x25
 8000a80:	f000 f9a9 	bl	8000dd6 <HAL_NVIC_EnableIRQ>
  /* USER CODE BEGIN USART1_MspInit 1 */

  /* USER CODE END USART1_MspInit 1 */
  }
}
 8000a84:	bf00      	nop
 8000a86:	3720      	adds	r7, #32
 8000a88:	46bd      	mov	sp, r7
 8000a8a:	bd80      	pop	{r7, pc}
 8000a8c:	40013800 	.word	0x40013800
 8000a90:	40021000 	.word	0x40021000
 8000a94:	40010800 	.word	0x40010800

08000a98 <Reset_Handler>:
  .weak Reset_Handler
  .type Reset_Handler, %function
Reset_Handler:

/* Call the clock system initialization function.*/
    bl  SystemInit
 8000a98:	f7ff ff80 	bl	800099c <SystemInit>

/* Copy the data segment initializers from flash to SRAM */
  ldr r0, =_sdata
 8000a9c:	480b      	ldr	r0, [pc, #44]	@ (8000acc <LoopFillZerobss+0xe>)
  ldr r1, =_edata
 8000a9e:	490c      	ldr	r1, [pc, #48]	@ (8000ad0 <LoopFillZerobss+0x12>)
  ldr r2, =_sidata
 8000aa0:	4a0c      	ldr	r2, [pc, #48]	@ (8000ad4 <LoopFillZerobss+0x16>)
  movs r3, #0
 8000aa2:	2300      	movs	r3, #0
  b LoopCopyDataInit
 8000aa4:	e002      	b.n	8000aac <LoopCopyDataInit>

08000aa6 <CopyDataInit>:

CopyDataInit:
  ldr r4, [r2, r3]
 8000aa6:	58d4      	ldr	r4, [r2, r3]
  str r4, [r0, r3]
 8000aa8:	50c4      	str	r4, [r0, r3]
  adds r3, r3, #4
 8000aaa:	3304      	adds	r3, #4

08000aac <LoopCopyDataInit>:

LoopCopyDataInit:
  adds r4, r0, r3
 8000aac:	18c4      	adds	r4, r0, r3
  cmp r4, r1
 8000aae:	428c      	cmp	r4, r1
  bcc CopyDataInit
 8000ab0:	d3f9      	bcc.n	8000aa6 <CopyDataInit>
  
/* Zero fill the bss segment. */
  ldr r2, =_sbss
 8000ab2:	4a09      	ldr	r2, [pc, #36]	@ (8000ad8 <LoopFillZerobss+0x1a>)
  ldr r4, =_ebss
 8000ab4:	4c09      	ldr	r4, [pc, #36]	@ (8000adc <LoopFillZerobss+0x1e>)
  movs r3, #0
 8000ab6:	2300      	movs	r3, #0
  b LoopFillZerobss
 8000ab8:	e001      	b.n	8000abe <LoopFillZerobss>

08000aba <FillZerobss>:

FillZerobss:
  str  r3, [r2]
 8000aba:	6013      	str	r3, [r2, #0]
  adds r2, r2, #4
 8000abc:	3204      	adds	r2, #4

08000abe <LoopFillZerobss>:

LoopFillZerobss:
  cmp r2, r4
 8000abe:	42a2      	cmp	r2, r4
  bcc FillZerobss
 8000ac0:	d3fb      	bcc.n	8000aba <FillZerobss>

/* Call static constructors */
    bl __libc_init_array
 8000ac2:	f001 fdab 	bl	800261c <__libc_init_array>
/* Call the application's entry point.*/
  bl main
 8000ac6:	f7ff fdbb 	bl	8000640 <main>
  bx lr
 8000aca:	4770      	bx	lr
  ldr r0, =_sdata
 8000acc:	20000000 	.word	0x20000000
  ldr r1, =_edata
 8000ad0:	20000120 	.word	0x20000120
  ldr r2, =_sidata
 8000ad4:	080026c0 	.word	0x080026c0
  ldr r2, =_sbss
 8000ad8:	20000120 	.word	0x20000120
  ldr r4, =_ebss
 8000adc:	2000059c 	.word	0x2000059c

08000ae0 <ADC1_2_IRQHandler>:
 * @retval : None
*/
    .section .text.Default_Handler,"ax",%progbits
Default_Handler:
Infinite_Loop:
  b Infinite_Loop
 8000ae0:	e7fe      	b.n	8000ae0 <ADC1_2_IRQHandler>
	...

08000ae4 <HAL_Init>:
  *         need to ensure that the SysTick time base is always set to 1 millisecond
  *         to have correct HAL operation.
  * @retval HAL status
  */
HAL_StatusTypeDef HAL_Init(void)
{
 8000ae4:	b580      	push	{r7, lr}
 8000ae6:	af00      	add	r7, sp, #0
    defined(STM32F102x6) || defined(STM32F102xB) || \
    defined(STM32F103x6) || defined(STM32F103xB) || defined(STM32F103xE) || defined(STM32F103xG) || \
    defined(STM32F105xC) || defined(STM32F107xC)

  /* Prefetch buffer is not available on value line devices */
  __HAL_FLASH_PREFETCH_BUFFER_ENABLE();
 8000ae8:	4b08      	ldr	r3, [pc, #32]	@ (8000b0c <HAL_Init+0x28>)
 8000aea:	681b      	ldr	r3, [r3, #0]
 8000aec:	4a07      	ldr	r2, [pc, #28]	@ (8000b0c <HAL_Init+0x28>)
 8000aee:	f043 0310 	orr.w	r3, r3, #16
 8000af2:	6013      	str	r3, [r2, #0]
#endif
#endif /* PREFETCH_ENABLE */

  /* Set Interrupt Group Priority */
  HAL_NVIC_SetPriorityGrouping(NVIC_PRIORITYGROUP_4);
 8000af4:	2003      	movs	r0, #3
 8000af6:	f000 f947 	bl	8000d88 <HAL_NVIC_SetPriorityGrouping>

  /* Use systick as time base source and configure 1ms tick (default clock after Reset is HSI) */
  HAL_InitTick(TICK_INT_PRIORITY);
 8000afa:	200f      	movs	r0, #15
 8000afc:	f000 f808 	bl	8000b10 <HAL_InitTick>

  /* Init the low level hardware */
  HAL_MspInit();
 8000b00:	f7ff fee4 	bl	80008cc <HAL_MspInit>

  /* Return function status */
  return HAL_OK;
 8000b04:	2300      	movs	r3, #0
}
 8000b06:	4618      	mov	r0, r3
 8000b08:	bd80      	pop	{r7, pc}
 8000b0a:	bf00      	nop
 8000b0c:	40022000 	.word	0x40022000

08000b10 <HAL_InitTick>:
  *       implementation  in user file.
  * @param TickPriority Tick interrupt priority.
  * @retval HAL status
  */
__weak HAL_StatusTypeDef HAL_InitTick(uint32_t TickPriority)
{
 8000b10:	b580      	push	{r7, lr}
 8000b12:	b082      	sub	sp, #8
 8000b14:	af00      	add	r7, sp, #0
 8000b16:	6078      	str	r0, [r7, #4]
  /* Configure the SysTick to have interrupt in 1ms time basis*/
  if (HAL_SYSTICK_Config(SystemCoreClock / (1000U / uwTickFreq)) > 0U)
 8000b18:	4b12      	ldr	r3, [pc, #72]	@ (8000b64 <HAL_InitTick+0x54>)
 8000b1a:	681a      	ldr	r2, [r3, #0]
 8000b1c:	4b12      	ldr	r3, [pc, #72]	@ (8000b68 <HAL_InitTick+0x58>)
 8000b1e:	781b      	ldrb	r3, [r3, #0]
 8000b20:	4619      	mov	r1, r3
 8000b22:	f44f 737a 	mov.w	r3, #1000	@ 0x3e8
 8000b26:	fbb3 f3f1 	udiv	r3, r3, r1
 8000b2a:	fbb2 f3f3 	udiv	r3, r2, r3
 8000b2e:	4618      	mov	r0, r3
 8000b30:	f000 f95f 	bl	8000df2 <HAL_SYSTICK_Config>
 8000b34:	4603      	mov	r3, r0
 8000b36:	2b00      	cmp	r3, #0
 8000b38:	d001      	beq.n	8000b3e <HAL_InitTick+0x2e>
  {
    return HAL_ERROR;
 8000b3a:	2301      	movs	r3, #1
 8000b3c:	e00e      	b.n	8000b5c <HAL_InitTick+0x4c>
  }

  /* Configure the SysTick IRQ priority */
  if (TickPriority < (1UL << __NVIC_PRIO_BITS))
 8000b3e:	687b      	ldr	r3, [r7, #4]
 8000b40:	2b0f      	cmp	r3, #15
 8000b42:	d80a      	bhi.n	8000b5a <HAL_InitTick+0x4a>
  {
    HAL_NVIC_SetPriority(SysTick_IRQn, TickPriority, 0U);
 8000b44:	2200      	movs	r2, #0
 8000b46:	6879      	ldr	r1, [r7, #4]
 8000b48:	f04f 30ff 	mov.w	r0, #4294967295
 8000b4c:	f000 f927 	bl	8000d9e <HAL_NVIC_SetPriority>
    uwTickPrio = TickPriority;
 8000b50:	4a06      	ldr	r2, [pc, #24]	@ (8000b6c <HAL_InitTick+0x5c>)
 8000b52:	687b      	ldr	r3, [r7, #4]
 8000b54:	6013      	str	r3, [r2, #0]
  {
    return HAL_ERROR;
  }

  /* Return function status */
  return HAL_OK;
 8000b56:	2300      	movs	r3, #0
 8000b58:	e000      	b.n	8000b5c <HAL_InitTick+0x4c>
    return HAL_ERROR;
 8000b5a:	2301      	movs	r3, #1
}
 8000b5c:	4618      	mov	r0, r3
 8000b5e:	3708      	adds	r7, #8
 8000b60:	46bd      	mov	sp, r7
 8000b62:	bd80      	pop	{r7, pc}
 8000b64:	20000114 	.word	0x20000114
 8000b68:	2000011c 	.word	0x2000011c
 8000b6c:	20000118 	.word	0x20000118

08000b70 <HAL_IncTick>:
  * @note This function is declared as __weak to be overwritten in case of other
  *      implementations in user file.
  * @retval None
  */
__weak void HAL_IncTick(void)
{
 8000b70:	b480      	push	{r7}
 8000b72:	af00      	add	r7, sp, #0
  uwTick += uwTickFreq;
 8000b74:	4b05      	ldr	r3, [pc, #20]	@ (8000b8c <HAL_IncTick+0x1c>)
 8000b76:	781b      	ldrb	r3, [r3, #0]
 8000b78:	461a      	mov	r2, r3
 8000b7a:	4b05      	ldr	r3, [pc, #20]	@ (8000b90 <HAL_IncTick+0x20>)
 8000b7c:	681b      	ldr	r3, [r3, #0]
 8000b7e:	4413      	add	r3, r2
 8000b80:	4a03      	ldr	r2, [pc, #12]	@ (8000b90 <HAL_IncTick+0x20>)
 8000b82:	6013      	str	r3, [r2, #0]
}
 8000b84:	bf00      	nop
 8000b86:	46bd      	mov	sp, r7
 8000b88:	bc80      	pop	{r7}
 8000b8a:	4770      	bx	lr
 8000b8c:	2000011c 	.word	0x2000011c
 8000b90:	20000598 	.word	0x20000598

08000b94 <HAL_GetTick>:
  * @note  This function is declared as __weak to be overwritten in case of other
  *       implementations in user file.
  * @retval tick value
  */
__weak uint32_t HAL_GetTick(void)
{
 8000b94:	b480      	push	{r7}
 8000b96:	af00      	add	r7, sp, #0
  return uwTick;
 8000b98:	4b02      	ldr	r3, [pc, #8]	@ (8000ba4 <HAL_GetTick+0x10>)
 8000b9a:	681b      	ldr	r3, [r3, #0]
}
 8000b9c:	4618      	mov	r0, r3
 8000b9e:	46bd      	mov	sp, r7
 8000ba0:	bc80      	pop	{r7}
 8000ba2:	4770      	bx	lr
 8000ba4:	20000598 	.word	0x20000598

08000ba8 <HAL_Delay>:
  *       implementations in user file.
  * @param Delay specifies the delay time length, in milliseconds.
  * @retval None
  */
__weak void HAL_Delay(uint32_t Delay)
{
 8000ba8:	b580      	push	{r7, lr}
 8000baa:	b084      	sub	sp, #16
 8000bac:	af00      	add	r7, sp, #0
 8000bae:	6078      	str	r0, [r7, #4]
  uint32_t tickstart = HAL_GetTick();
 8000bb0:	f7ff fff0 	bl	8000b94 <HAL_GetTick>
 8000bb4:	60b8      	str	r0, [r7, #8]
  uint32_t wait = Delay;
 8000bb6:	687b      	ldr	r3, [r7, #4]
 8000bb8:	60fb      	str	r3, [r7, #12]

  /* Add a freq to guarantee minimum wait */
  if (wait < HAL_MAX_DELAY)
 8000bba:	68fb      	ldr	r3, [r7, #12]
 8000bbc:	f1b3 3fff 	cmp.w	r3, #4294967295
 8000bc0:	d005      	beq.n	8000bce <HAL_Delay+0x26>
  {
    wait += (uint32_t)(uwTickFreq);
 8000bc2:	4b0a      	ldr	r3, [pc, #40]	@ (8000bec <HAL_Delay+0x44>)
 8000bc4:	781b      	ldrb	r3, [r3, #0]
 8000bc6:	461a      	mov	r2, r3
 8000bc8:	68fb      	ldr	r3, [r7, #12]
 8000bca:	4413      	add	r3, r2
 8000bcc:	60fb      	str	r3, [r7, #12]
  }

  while ((HAL_GetTick() - tickstart) < wait)
 8000bce:	bf00      	nop
 8000bd0:	f7ff ffe0 	bl	8000b94 <HAL_GetTick>
 8000bd4:	4602      	mov	r2, r0
 8000bd6:	68bb      	ldr	r3, [r7, #8]
 8000bd8:	1ad3      	subs	r3, r2, r3
 8000bda:	68fa      	ldr	r2, [r7, #12]
 8000bdc:	429a      	cmp	r2, r3
 8000bde:	d8f7      	bhi.n	8000bd0 <HAL_Delay+0x28>
  {
  }
}
 8000be0:	bf00      	nop
 8000be2:	bf00      	nop
 8000be4:	3710      	adds	r7, #16
 8000be6:	46bd      	mov	sp, r7
 8000be8:	bd80      	pop	{r7, pc}
 8000bea:	bf00      	nop
 8000bec:	2000011c 	.word	0x2000011c

08000bf0 <__NVIC_SetPriorityGrouping>:
           In case of a conflict between priority grouping and available
           priority bits (__NVIC_PRIO_BITS), the smallest possible priority group is set.
  \param [in]      PriorityGroup  Priority grouping field.
 */
__STATIC_INLINE void __NVIC_SetPriorityGrouping(uint32_t PriorityGroup)
{
 8000bf0:	b480      	push	{r7}
 8000bf2:	b085      	sub	sp, #20
 8000bf4:	af00      	add	r7, sp, #0
 8000bf6:	6078      	str	r0, [r7, #4]
  uint32_t reg_value;
  uint32_t PriorityGroupTmp = (PriorityGroup & (uint32_t)0x07UL);             /* only values 0..7 are used          */
 8000bf8:	687b      	ldr	r3, [r7, #4]
 8000bfa:	f003 0307 	and.w	r3, r3, #7
 8000bfe:	60fb      	str	r3, [r7, #12]

  reg_value  =  SCB->AIRCR;                                                   /* read old register configuration    */
 8000c00:	4b0c      	ldr	r3, [pc, #48]	@ (8000c34 <__NVIC_SetPriorityGrouping+0x44>)
 8000c02:	68db      	ldr	r3, [r3, #12]
 8000c04:	60bb      	str	r3, [r7, #8]
  reg_value &= ~((uint32_t)(SCB_AIRCR_VECTKEY_Msk | SCB_AIRCR_PRIGROUP_Msk)); /* clear bits to change               */
 8000c06:	68ba      	ldr	r2, [r7, #8]
 8000c08:	f64f 03ff 	movw	r3, #63743	@ 0xf8ff
 8000c0c:	4013      	ands	r3, r2
 8000c0e:	60bb      	str	r3, [r7, #8]
  reg_value  =  (reg_value                                   |
                ((uint32_t)0x5FAUL << SCB_AIRCR_VECTKEY_Pos) |
                (PriorityGroupTmp << SCB_AIRCR_PRIGROUP_Pos) );               /* Insert write key and priority group */
 8000c10:	68fb      	ldr	r3, [r7, #12]
 8000c12:	021a      	lsls	r2, r3, #8
                ((uint32_t)0x5FAUL << SCB_AIRCR_VECTKEY_Pos) |
 8000c14:	68bb      	ldr	r3, [r7, #8]
 8000c16:	4313      	orrs	r3, r2
  reg_value  =  (reg_value                                   |
 8000c18:	f043 63bf 	orr.w	r3, r3, #100139008	@ 0x5f80000
 8000c1c:	f443 3300 	orr.w	r3, r3, #131072	@ 0x20000
 8000c20:	60bb      	str	r3, [r7, #8]
  SCB->AIRCR =  reg_value;
 8000c22:	4a04      	ldr	r2, [pc, #16]	@ (8000c34 <__NVIC_SetPriorityGrouping+0x44>)
 8000c24:	68bb      	ldr	r3, [r7, #8]
 8000c26:	60d3      	str	r3, [r2, #12]
}
 8000c28:	bf00      	nop
 8000c2a:	3714      	adds	r7, #20
 8000c2c:	46bd      	mov	sp, r7
 8000c2e:	bc80      	pop	{r7}
 8000c30:	4770      	bx	lr
 8000c32:	bf00      	nop
 8000c34:	e000ed00 	.word	0xe000ed00

08000c38 <__NVIC_GetPriorityGrouping>:
  \brief   Get Priority Grouping
  \details Reads the priority grouping field from the NVIC Interrupt Controller.
  \return                Priority grouping field (SCB->AIRCR [10:8] PRIGROUP field).
 */
__STATIC_INLINE uint32_t __NVIC_GetPriorityGrouping(void)
{
 8000c38:	b480      	push	{r7}
 8000c3a:	af00      	add	r7, sp, #0
  return ((uint32_t)((SCB->AIRCR & SCB_AIRCR_PRIGROUP_Msk) >> SCB_AIRCR_PRIGROUP_Pos));
 8000c3c:	4b04      	ldr	r3, [pc, #16]	@ (8000c50 <__NVIC_GetPriorityGrouping+0x18>)
 8000c3e:	68db      	ldr	r3, [r3, #12]
 8000c40:	0a1b      	lsrs	r3, r3, #8
 8000c42:	f003 0307 	and.w	r3, r3, #7
}
 8000c46:	4618      	mov	r0, r3
 8000c48:	46bd      	mov	sp, r7
 8000c4a:	bc80      	pop	{r7}
 8000c4c:	4770      	bx	lr
 8000c4e:	bf00      	nop
 8000c50:	e000ed00 	.word	0xe000ed00

08000c54 <__NVIC_EnableIRQ>:
  \details Enables a device specific interrupt in the NVIC interrupt controller.
  \param [in]      IRQn  Device specific interrupt number.
  \note    IRQn must not be negative.
 */
__STATIC_INLINE void __NVIC_EnableIRQ(IRQn_Type IRQn)
{
 8000c54:	b480      	push	{r7}
 8000c56:	b083      	sub	sp, #12
 8000c58:	af00      	add	r7, sp, #0
 8000c5a:	4603      	mov	r3, r0
 8000c5c:	71fb      	strb	r3, [r7, #7]
  if ((int32_t)(IRQn) >= 0)
 8000c5e:	f997 3007 	ldrsb.w	r3, [r7, #7]
 8000c62:	2b00      	cmp	r3, #0
 8000c64:	db0b      	blt.n	8000c7e <__NVIC_EnableIRQ+0x2a>
  {
    NVIC->ISER[(((uint32_t)IRQn) >> 5UL)] = (uint32_t)(1UL << (((uint32_t)IRQn) & 0x1FUL));
 8000c66:	79fb      	ldrb	r3, [r7, #7]
 8000c68:	f003 021f 	and.w	r2, r3, #31
 8000c6c:	4906      	ldr	r1, [pc, #24]	@ (8000c88 <__NVIC_EnableIRQ+0x34>)
 8000c6e:	f997 3007 	ldrsb.w	r3, [r7, #7]
 8000c72:	095b      	lsrs	r3, r3, #5
 8000c74:	2001      	movs	r0, #1
 8000c76:	fa00 f202 	lsl.w	r2, r0, r2
 8000c7a:	f841 2023 	str.w	r2, [r1, r3, lsl #2]
  }
}
 8000c7e:	bf00      	nop
 8000c80:	370c      	adds	r7, #12
 8000c82:	46bd      	mov	sp, r7
 8000c84:	bc80      	pop	{r7}
 8000c86:	4770      	bx	lr
 8000c88:	e000e100 	.word	0xe000e100

08000c8c <__NVIC_SetPriority>:
  \param [in]      IRQn  Interrupt number.
  \param [in]  priority  Priority to set.
  \note    The priority cannot be set for every processor exception.
 */
__STATIC_INLINE void __NVIC_SetPriority(IRQn_Type IRQn, uint32_t priority)
{
 8000c8c:	b480      	push	{r7}
 8000c8e:	b083      	sub	sp, #12
 8000c90:	af00      	add	r7, sp, #0
 8000c92:	4603      	mov	r3, r0
 8000c94:	6039      	str	r1, [r7, #0]
 8000c96:	71fb      	strb	r3, [r7, #7]
  if ((int32_t)(IRQn) >= 0)
 8000c98:	f997 3007 	ldrsb.w	r3, [r7, #7]
 8000c9c:	2b00      	cmp	r3, #0
 8000c9e:	db0a      	blt.n	8000cb6 <__NVIC_SetPriority+0x2a>
  {
    NVIC->IP[((uint32_t)IRQn)]               = (uint8_t)((priority << (8U - __NVIC_PRIO_BITS)) & (uint32_t)0xFFUL);
 8000ca0:	683b      	ldr	r3, [r7, #0]
 8000ca2:	b2da      	uxtb	r2, r3
 8000ca4:	490c      	ldr	r1, [pc, #48]	@ (8000cd8 <__NVIC_SetPriority+0x4c>)
 8000ca6:	f997 3007 	ldrsb.w	r3, [r7, #7]
 8000caa:	0112      	lsls	r2, r2, #4
 8000cac:	b2d2      	uxtb	r2, r2
 8000cae:	440b      	add	r3, r1
 8000cb0:	f883 2300 	strb.w	r2, [r3, #768]	@ 0x300
  }
  else
  {
    SCB->SHP[(((uint32_t)IRQn) & 0xFUL)-4UL] = (uint8_t)((priority << (8U - __NVIC_PRIO_BITS)) & (uint32_t)0xFFUL);
  }
}
 8000cb4:	e00a      	b.n	8000ccc <__NVIC_SetPriority+0x40>
    SCB->SHP[(((uint32_t)IRQn) & 0xFUL)-4UL] = (uint8_t)((priority << (8U - __NVIC_PRIO_BITS)) & (uint32_t)0xFFUL);
 8000cb6:	683b      	ldr	r3, [r7, #0]
 8000cb8:	b2da      	uxtb	r2, r3
 8000cba:	4908      	ldr	r1, [pc, #32]	@ (8000cdc <__NVIC_SetPriority+0x50>)
 8000cbc:	79fb      	ldrb	r3, [r7, #7]
 8000cbe:	f003 030f 	and.w	r3, r3, #15
 8000cc2:	3b04      	subs	r3, #4
 8000cc4:	0112      	lsls	r2, r2, #4
 8000cc6:	b2d2      	uxtb	r2, r2
 8000cc8:	440b      	add	r3, r1
 8000cca:	761a      	strb	r2, [r3, #24]
}
 8000ccc:	bf00      	nop
 8000cce:	370c      	adds	r7, #12
 8000cd0:	46bd      	mov	sp, r7
 8000cd2:	bc80      	pop	{r7}
 8000cd4:	4770      	bx	lr
 8000cd6:	bf00      	nop
 8000cd8:	e000e100 	.word	0xe000e100
 8000cdc:	e000ed00 	.word	0xe000ed00

08000ce0 <NVIC_EncodePriority>:
  \param [in]   PreemptPriority  Preemptive priority value (starting from 0).
  \param [in]       SubPriority  Subpriority value (starting from 0).
  \return                        Encoded priority. Value can be used in the function \ref NVIC_SetPriority().
 */
__STATIC_INLINE uint32_t NVIC_EncodePriority (uint32_t PriorityGroup, uint32_t PreemptPriority, uint32_t SubPriority)
{
 8000ce0:	b480      	push	{r7}
 8000ce2:	b089      	sub	sp, #36	@ 0x24
 8000ce4:	af00      	add	r7, sp, #0
 8000ce6:	60f8      	str	r0, [r7, #12]
 8000ce8:	60b9      	str	r1, [r7, #8]
 8000cea:	607a      	str	r2, [r7, #4]
  uint32_t PriorityGroupTmp = (PriorityGroup & (uint32_t)0x07UL);   /* only values 0..7 are used          */
 8000cec:	68fb      	ldr	r3, [r7, #12]
 8000cee:	f003 0307 	and.w	r3, r3, #7
 8000cf2:	61fb      	str	r3, [r7, #28]
  uint32_t PreemptPriorityBits;
  uint32_t SubPriorityBits;

  PreemptPriorityBits = ((7UL - PriorityGroupTmp) > (uint32_t)(__NVIC_PRIO_BITS)) ? (uint32_t)(__NVIC_PRIO_BITS) : (uint32_t)(7UL - PriorityGroupTmp);
 8000cf4:	69fb      	ldr	r3, [r7, #28]
 8000cf6:	f1c3 0307 	rsb	r3, r3, #7
 8000cfa:	2b04      	cmp	r3, #4
 8000cfc:	bf28      	it	cs
 8000cfe:	2304      	movcs	r3, #4
 8000d00:	61bb      	str	r3, [r7, #24]
  SubPriorityBits     = ((PriorityGroupTmp + (uint32_t)(__NVIC_PRIO_BITS)) < (uint32_t)7UL) ? (uint32_t)0UL : (uint32_t)((PriorityGroupTmp - 7UL) + (uint32_t)(__NVIC_PRIO_BITS));
 8000d02:	69fb      	ldr	r3, [r7, #28]
 8000d04:	3304      	adds	r3, #4
 8000d06:	2b06      	cmp	r3, #6
 8000d08:	d902      	bls.n	8000d10 <NVIC_EncodePriority+0x30>
 8000d0a:	69fb      	ldr	r3, [r7, #28]
 8000d0c:	3b03      	subs	r3, #3
 8000d0e:	e000      	b.n	8000d12 <NVIC_EncodePriority+0x32>
 8000d10:	2300      	movs	r3, #0
 8000d12:	617b      	str	r3, [r7, #20]

  return (
           ((PreemptPriority & (uint32_t)((1UL << (PreemptPriorityBits)) - 1UL)) << SubPriorityBits) |
 8000d14:	f04f 32ff 	mov.w	r2, #4294967295
 8000d18:	69bb      	ldr	r3, [r7, #24]
 8000d1a:	fa02 f303 	lsl.w	r3, r2, r3
 8000d1e:	43da      	mvns	r2, r3
 8000d20:	68bb      	ldr	r3, [r7, #8]
 8000d22:	401a      	ands	r2, r3
 8000d24:	697b      	ldr	r3, [r7, #20]
 8000d26:	409a      	lsls	r2, r3
           ((SubPriority     & (uint32_t)((1UL << (SubPriorityBits    )) - 1UL)))
 8000d28:	f04f 31ff 	mov.w	r1, #4294967295
 8000d2c:	697b      	ldr	r3, [r7, #20]
 8000d2e:	fa01 f303 	lsl.w	r3, r1, r3
 8000d32:	43d9      	mvns	r1, r3
 8000d34:	687b      	ldr	r3, [r7, #4]
 8000d36:	400b      	ands	r3, r1
           ((PreemptPriority & (uint32_t)((1UL << (PreemptPriorityBits)) - 1UL)) << SubPriorityBits) |
 8000d38:	4313      	orrs	r3, r2
         );
}
 8000d3a:	4618      	mov	r0, r3
 8000d3c:	3724      	adds	r7, #36	@ 0x24
 8000d3e:	46bd      	mov	sp, r7
 8000d40:	bc80      	pop	{r7}
 8000d42:	4770      	bx	lr

08000d44 <SysTick_Config>:
  \note    When the variable <b>__Vendor_SysTickConfig</b> is set to 1, then the
           function <b>SysTick_Config</b> is not included. In this case, the file <b><i>device</i>.h</b>
           must contain a vendor-specific implementation of this function.
 */
__STATIC_INLINE uint32_t SysTick_Config(uint32_t ticks)
{
 8000d44:	b580      	push	{r7, lr}
 8000d46:	b082      	sub	sp, #8
 8000d48:	af00      	add	r7, sp, #0
 8000d4a:	6078      	str	r0, [r7, #4]
  if ((ticks - 1UL) > SysTick_LOAD_RELOAD_Msk)
 8000d4c:	687b      	ldr	r3, [r7, #4]
 8000d4e:	3b01      	subs	r3, #1
 8000d50:	f1b3 7f80 	cmp.w	r3, #16777216	@ 0x1000000
 8000d54:	d301      	bcc.n	8000d5a <SysTick_Config+0x16>
  {
    return (1UL);                                                   /* Reload value impossible */
 8000d56:	2301      	movs	r3, #1
 8000d58:	e00f      	b.n	8000d7a <SysTick_Config+0x36>
  }

  SysTick->LOAD  = (uint32_t)(ticks - 1UL);                         /* set reload register */
 8000d5a:	4a0a      	ldr	r2, [pc, #40]	@ (8000d84 <SysTick_Config+0x40>)
 8000d5c:	687b      	ldr	r3, [r7, #4]
 8000d5e:	3b01      	subs	r3, #1
 8000d60:	6053      	str	r3, [r2, #4]
  NVIC_SetPriority (SysTick_IRQn, (1UL << __NVIC_PRIO_BITS) - 1UL); /* set Priority for Systick Interrupt */
 8000d62:	210f      	movs	r1, #15
 8000d64:	f04f 30ff 	mov.w	r0, #4294967295
 8000d68:	f7ff ff90 	bl	8000c8c <__NVIC_SetPriority>
  SysTick->VAL   = 0UL;                                             /* Load the SysTick Counter Value */
 8000d6c:	4b05      	ldr	r3, [pc, #20]	@ (8000d84 <SysTick_Config+0x40>)
 8000d6e:	2200      	movs	r2, #0
 8000d70:	609a      	str	r2, [r3, #8]
  SysTick->CTRL  = SysTick_CTRL_CLKSOURCE_Msk |
 8000d72:	4b04      	ldr	r3, [pc, #16]	@ (8000d84 <SysTick_Config+0x40>)
 8000d74:	2207      	movs	r2, #7
 8000d76:	601a      	str	r2, [r3, #0]
                   SysTick_CTRL_TICKINT_Msk   |
                   SysTick_CTRL_ENABLE_Msk;                         /* Enable SysTick IRQ and SysTick Timer */
  return (0UL);                                                     /* Function successful */
 8000d78:	2300      	movs	r3, #0
}
 8000d7a:	4618      	mov	r0, r3
 8000d7c:	3708      	adds	r7, #8
 8000d7e:	46bd      	mov	sp, r7
 8000d80:	bd80      	pop	{r7, pc}
 8000d82:	bf00      	nop
 8000d84:	e000e010 	.word	0xe000e010

08000d88 <HAL_NVIC_SetPriorityGrouping>:
  * @note   When the NVIC_PriorityGroup_0 is selected, IRQ preemption is no more possible. 
  *         The pending IRQ priority will be managed only by the subpriority. 
  * @retval None
  */
void HAL_NVIC_SetPriorityGrouping(uint32_t PriorityGroup)
{
 8000d88:	b580      	push	{r7, lr}
 8000d8a:	b082      	sub	sp, #8
 8000d8c:	af00      	add	r7, sp, #0
 8000d8e:	6078      	str	r0, [r7, #4]
  /* Check the parameters */
  assert_param(IS_NVIC_PRIORITY_GROUP(PriorityGroup));
  
  /* Set the PRIGROUP[10:8] bits according to the PriorityGroup parameter value */
  NVIC_SetPriorityGrouping(PriorityGroup);
 8000d90:	6878      	ldr	r0, [r7, #4]
 8000d92:	f7ff ff2d 	bl	8000bf0 <__NVIC_SetPriorityGrouping>
}
 8000d96:	bf00      	nop
 8000d98:	3708      	adds	r7, #8
 8000d9a:	46bd      	mov	sp, r7
 8000d9c:	bd80      	pop	{r7, pc}

08000d9e <HAL_NVIC_SetPriority>:
  *         This parameter can be a value between 0 and 15
  *         A lower priority value indicates a higher priority.          
  * @retval None
  */
void HAL_NVIC_SetPriority(IRQn_Type IRQn, uint32_t PreemptPriority, uint32_t SubPriority)
{ 
 8000d9e:	b580      	push	{r7, lr}
 8000da0:	b086      	sub	sp, #24
 8000da2:	af00      	add	r7, sp, #0
 8000da4:	4603      	mov	r3, r0
 8000da6:	60b9      	str	r1, [r7, #8]
 8000da8:	607a      	str	r2, [r7, #4]
 8000daa:	73fb      	strb	r3, [r7, #15]
  uint32_t prioritygroup = 0x00U;
 8000dac:	2300      	movs	r3, #0
 8000dae:	617b      	str	r3, [r7, #20]
  
  /* Check the parameters */
  assert_param(IS_NVIC_SUB_PRIORITY(SubPriority));
  assert_param(IS_NVIC_PREEMPTION_PRIORITY(PreemptPriority));
  
  prioritygroup = NVIC_GetPriorityGrouping();
 8000db0:	f7ff ff42 	bl	8000c38 <__NVIC_GetPriorityGrouping>
 8000db4:	6178      	str	r0, [r7, #20]
  
  NVIC_SetPriority(IRQn, NVIC_EncodePriority(prioritygroup, PreemptPriority, SubPriority));
 8000db6:	687a      	ldr	r2, [r7, #4]
 8000db8:	68b9      	ldr	r1, [r7, #8]
 8000dba:	6978      	ldr	r0, [r7, #20]
 8000dbc:	f7ff ff90 	bl	8000ce0 <NVIC_EncodePriority>
 8000dc0:	4602      	mov	r2, r0
 8000dc2:	f997 300f 	ldrsb.w	r3, [r7, #15]
 8000dc6:	4611      	mov	r1, r2
 8000dc8:	4618      	mov	r0, r3
 8000dca:	f7ff ff5f 	bl	8000c8c <__NVIC_SetPriority>
}
 8000dce:	bf00      	nop
 8000dd0:	3718      	adds	r7, #24
 8000dd2:	46bd      	mov	sp, r7
 8000dd4:	bd80      	pop	{r7, pc}

08000dd6 <HAL_NVIC_EnableIRQ>:
  *         This parameter can be an enumerator of IRQn_Type enumeration
  *         (For the complete STM32 Devices IRQ Channels list, please refer to the appropriate CMSIS device file (stm32f10xxx.h))
  * @retval None
  */
void HAL_NVIC_EnableIRQ(IRQn_Type IRQn)
{
 8000dd6:	b580      	push	{r7, lr}
 8000dd8:	b082      	sub	sp, #8
 8000dda:	af00      	add	r7, sp, #0
 8000ddc:	4603      	mov	r3, r0
 8000dde:	71fb      	strb	r3, [r7, #7]
  /* Check the parameters */
  assert_param(IS_NVIC_DEVICE_IRQ(IRQn));

  /* Enable interrupt */
  NVIC_EnableIRQ(IRQn);
 8000de0:	f997 3007 	ldrsb.w	r3, [r7, #7]
 8000de4:	4618      	mov	r0, r3
 8000de6:	f7ff ff35 	bl	8000c54 <__NVIC_EnableIRQ>
}
 8000dea:	bf00      	nop
 8000dec:	3708      	adds	r7, #8
 8000dee:	46bd      	mov	sp, r7
 8000df0:	bd80      	pop	{r7, pc}

08000df2 <HAL_SYSTICK_Config>:
  * @param  TicksNumb: Specifies the ticks Number of ticks between two interrupts.
  * @retval status:  - 0  Function succeeded.
  *                  - 1  Function failed.
  */
uint32_t HAL_SYSTICK_Config(uint32_t TicksNumb)
{
 8000df2:	b580      	push	{r7, lr}
 8000df4:	b082      	sub	sp, #8
 8000df6:	af00      	add	r7, sp, #0
 8000df8:	6078      	str	r0, [r7, #4]
   return SysTick_Config(TicksNumb);
 8000dfa:	6878      	ldr	r0, [r7, #4]
 8000dfc:	f7ff ffa2 	bl	8000d44 <SysTick_Config>
 8000e00:	4603      	mov	r3, r0
}
 8000e02:	4618      	mov	r0, r3
 8000e04:	3708      	adds	r7, #8
 8000e06:	46bd      	mov	sp, r7
 8000e08:	bd80      	pop	{r7, pc}

08000e0a <HAL_DMA_Abort>:
  * @param  hdma: pointer to a DMA_HandleTypeDef structure that contains
  *               the configuration information for the specified DMA Channel.
  * @retval HAL status
  */
HAL_StatusTypeDef HAL_DMA_Abort(DMA_HandleTypeDef *hdma)
{
 8000e0a:	b480      	push	{r7}
 8000e0c:	b085      	sub	sp, #20
 8000e0e:	af00      	add	r7, sp, #0
 8000e10:	6078      	str	r0, [r7, #4]
  HAL_StatusTypeDef status = HAL_OK;
 8000e12:	2300      	movs	r3, #0
 8000e14:	73fb      	strb	r3, [r7, #15]
  
  if(hdma->State != HAL_DMA_STATE_BUSY)
 8000e16:	687b      	ldr	r3, [r7, #4]
 8000e18:	f893 3021 	ldrb.w	r3, [r3, #33]	@ 0x21
 8000e1c:	b2db      	uxtb	r3, r3
 8000e1e:	2b02      	cmp	r3, #2
 8000e20:	d008      	beq.n	8000e34 <HAL_DMA_Abort+0x2a>
  {
    /* no transfer ongoing */
    hdma->ErrorCode = HAL_DMA_ERROR_NO_XFER;
 8000e22:	687b      	ldr	r3, [r7, #4]
 8000e24:	2204      	movs	r2, #4
 8000e26:	639a      	str	r2, [r3, #56]	@ 0x38
    
    /* Process Unlocked */
    __HAL_UNLOCK(hdma);
 8000e28:	687b      	ldr	r3, [r7, #4]
 8000e2a:	2200      	movs	r2, #0
 8000e2c:	f883 2020 	strb.w	r2, [r3, #32]
    
    return HAL_ERROR;
 8000e30:	2301      	movs	r3, #1
 8000e32:	e020      	b.n	8000e76 <HAL_DMA_Abort+0x6c>
  }
  else

  {
    /* Disable DMA IT */
    __HAL_DMA_DISABLE_IT(hdma, (DMA_IT_TC | DMA_IT_HT | DMA_IT_TE));
 8000e34:	687b      	ldr	r3, [r7, #4]
 8000e36:	681b      	ldr	r3, [r3, #0]
 8000e38:	681a      	ldr	r2, [r3, #0]
 8000e3a:	687b      	ldr	r3, [r7, #4]
 8000e3c:	681b      	ldr	r3, [r3, #0]
 8000e3e:	f022 020e 	bic.w	r2, r2, #14
 8000e42:	601a      	str	r2, [r3, #0]
      
    /* Disable the channel */
    __HAL_DMA_DISABLE(hdma);
 8000e44:	687b      	ldr	r3, [r7, #4]
 8000e46:	681b      	ldr	r3, [r3, #0]
 8000e48:	681a      	ldr	r2, [r3, #0]
 8000e4a:	687b      	ldr	r3, [r7, #4]
 8000e4c:	681b      	ldr	r3, [r3, #0]
 8000e4e:	f022 0201 	bic.w	r2, r2, #1
 8000e52:	601a      	str	r2, [r3, #0]
      
    /* Clear all flags */
    hdma->DmaBaseAddress->IFCR = (DMA_ISR_GIF1 << hdma->ChannelIndex);
 8000e54:	687b      	ldr	r3, [r7, #4]
 8000e56:	6c1a      	ldr	r2, [r3, #64]	@ 0x40
 8000e58:	687b      	ldr	r3, [r7, #4]
 8000e5a:	6bdb      	ldr	r3, [r3, #60]	@ 0x3c
 8000e5c:	2101      	movs	r1, #1
 8000e5e:	fa01 f202 	lsl.w	r2, r1, r2
 8000e62:	605a      	str	r2, [r3, #4]
  }
  /* Change the DMA state */
  hdma->State = HAL_DMA_STATE_READY;
 8000e64:	687b      	ldr	r3, [r7, #4]
 8000e66:	2201      	movs	r2, #1
 8000e68:	f883 2021 	strb.w	r2, [r3, #33]	@ 0x21

  /* Process Unlocked */
  __HAL_UNLOCK(hdma);      
 8000e6c:	687b      	ldr	r3, [r7, #4]
 8000e6e:	2200      	movs	r2, #0
 8000e70:	f883 2020 	strb.w	r2, [r3, #32]
  
  return status; 
 8000e74:	7bfb      	ldrb	r3, [r7, #15]
}
 8000e76:	4618      	mov	r0, r3
 8000e78:	3714      	adds	r7, #20
 8000e7a:	46bd      	mov	sp, r7
 8000e7c:	bc80      	pop	{r7}
 8000e7e:	4770      	bx	lr

08000e80 <HAL_DMA_Abort_IT>:
  * @param  hdma  : pointer to a DMA_HandleTypeDef structure that contains
  *                 the configuration information for the specified DMA Channel.
  * @retval HAL status
  */
HAL_StatusTypeDef HAL_DMA_Abort_IT(DMA_HandleTypeDef *hdma)
{  
 8000e80:	b580      	push	{r7, lr}
 8000e82:	b084      	sub	sp, #16
 8000e84:	af00      	add	r7, sp, #0
 8000e86:	6078      	str	r0, [r7, #4]
  HAL_StatusTypeDef status = HAL_OK;
 8000e88:	2300      	movs	r3, #0
 8000e8a:	73fb      	strb	r3, [r7, #15]
  
  if(HAL_DMA_STATE_BUSY != hdma->State)
 8000e8c:	687b      	ldr	r3, [r7, #4]
 8000e8e:	f893 3021 	ldrb.w	r3, [r3, #33]	@ 0x21
 8000e92:	b2db      	uxtb	r3, r3
 8000e94:	2b02      	cmp	r3, #2
 8000e96:	d005      	beq.n	8000ea4 <HAL_DMA_Abort_IT+0x24>
  {
    /* no transfer ongoing */
    hdma->ErrorCode = HAL_DMA_ERROR_NO_XFER;
 8000e98:	687b      	ldr	r3, [r7, #4]
 8000e9a:	2204      	movs	r2, #4
 8000e9c:	639a      	str	r2, [r3, #56]	@ 0x38
        
    status = HAL_ERROR;
 8000e9e:	2301      	movs	r3, #1
 8000ea0:	73fb      	strb	r3, [r7, #15]
 8000ea2:	e051      	b.n	8000f48 <HAL_DMA_Abort_IT+0xc8>
  }
  else
  { 
    /* Disable DMA IT */
    __HAL_DMA_DISABLE_IT(hdma, (DMA_IT_TC | DMA_IT_HT | DMA_IT_TE));
 8000ea4:	687b      	ldr	r3, [r7, #4]
 8000ea6:	681b      	ldr	r3, [r3, #0]
 8000ea8:	681a      	ldr	r2, [r3, #0]
 8000eaa:	687b      	ldr	r3, [r7, #4]
 8000eac:	681b      	ldr	r3, [r3, #0]
 8000eae:	f022 020e 	bic.w	r2, r2, #14
 8000eb2:	601a      	str	r2, [r3, #0]

    /* Disable the channel */
    __HAL_DMA_DISABLE(hdma);
 8000eb4:	687b      	ldr	r3, [r7, #4]
 8000eb6:	681b      	ldr	r3, [r3, #0]
 8000eb8:	681a      	ldr	r2, [r3, #0]
 8000eba:	687b      	ldr	r3, [r7, #4]
 8000ebc:	681b      	ldr	r3, [r3, #0]
 8000ebe:	f022 0201 	bic.w	r2, r2, #1
 8000ec2:	601a      	str	r2, [r3, #0]

    /* Clear all flags */
    __HAL_DMA_CLEAR_FLAG(hdma, __HAL_DMA_GET_GI_FLAG_INDEX(hdma));
 8000ec4:	687b      	ldr	r3, [r7, #4]
 8000ec6:	681b      	ldr	r3, [r3, #0]
 8000ec8:	4a22      	ldr	r2, [pc, #136]	@ (8000f54 <HAL_DMA_Abort_IT+0xd4>)
 8000eca:	4293      	cmp	r3, r2
 8000ecc:	d029      	beq.n	8000f22 <HAL_DMA_Abort_IT+0xa2>
 8000ece:	687b      	ldr	r3, [r7, #4]
 8000ed0:	681b      	ldr	r3, [r3, #0]
 8000ed2:	4a21      	ldr	r2, [pc, #132]	@ (8000f58 <HAL_DMA_Abort_IT+0xd8>)
 8000ed4:	4293      	cmp	r3, r2
 8000ed6:	d022      	beq.n	8000f1e <HAL_DMA_Abort_IT+0x9e>
 8000ed8:	687b      	ldr	r3, [r7, #4]
 8000eda:	681b      	ldr	r3, [r3, #0]
 8000edc:	4a1f      	ldr	r2, [pc, #124]	@ (8000f5c <HAL_DMA_Abort_IT+0xdc>)
 8000ede:	4293      	cmp	r3, r2
 8000ee0:	d01a      	beq.n	8000f18 <HAL_DMA_Abort_IT+0x98>
 8000ee2:	687b      	ldr	r3, [r7, #4]
 8000ee4:	681b      	ldr	r3, [r3, #0]
 8000ee6:	4a1e      	ldr	r2, [pc, #120]	@ (8000f60 <HAL_DMA_Abort_IT+0xe0>)
 8000ee8:	4293      	cmp	r3, r2
 8000eea:	d012      	beq.n	8000f12 <HAL_DMA_Abort_IT+0x92>
 8000eec:	687b      	ldr	r3, [r7, #4]
 8000eee:	681b      	ldr	r3, [r3, #0]
 8000ef0:	4a1c      	ldr	r2, [pc, #112]	@ (8000f64 <HAL_DMA_Abort_IT+0xe4>)
 8000ef2:	4293      	cmp	r3, r2
 8000ef4:	d00a      	beq.n	8000f0c <HAL_DMA_Abort_IT+0x8c>
 8000ef6:	687b      	ldr	r3, [r7, #4]
 8000ef8:	681b      	ldr	r3, [r3, #0]
 8000efa:	4a1b      	ldr	r2, [pc, #108]	@ (8000f68 <HAL_DMA_Abort_IT+0xe8>)
 8000efc:	4293      	cmp	r3, r2
 8000efe:	d102      	bne.n	8000f06 <HAL_DMA_Abort_IT+0x86>
 8000f00:	f44f 1380 	mov.w	r3, #1048576	@ 0x100000
 8000f04:	e00e      	b.n	8000f24 <HAL_DMA_Abort_IT+0xa4>
 8000f06:	f04f 7380 	mov.w	r3, #16777216	@ 0x1000000
 8000f0a:	e00b      	b.n	8000f24 <HAL_DMA_Abort_IT+0xa4>
 8000f0c:	f44f 3380 	mov.w	r3, #65536	@ 0x10000
 8000f10:	e008      	b.n	8000f24 <HAL_DMA_Abort_IT+0xa4>
 8000f12:	f44f 5380 	mov.w	r3, #4096	@ 0x1000
 8000f16:	e005      	b.n	8000f24 <HAL_DMA_Abort_IT+0xa4>
 8000f18:	f44f 7380 	mov.w	r3, #256	@ 0x100
 8000f1c:	e002      	b.n	8000f24 <HAL_DMA_Abort_IT+0xa4>
 8000f1e:	2310      	movs	r3, #16
 8000f20:	e000      	b.n	8000f24 <HAL_DMA_Abort_IT+0xa4>
 8000f22:	2301      	movs	r3, #1
 8000f24:	4a11      	ldr	r2, [pc, #68]	@ (8000f6c <HAL_DMA_Abort_IT+0xec>)
 8000f26:	6053      	str	r3, [r2, #4]

    /* Change the DMA state */
    hdma->State = HAL_DMA_STATE_READY;
 8000f28:	687b      	ldr	r3, [r7, #4]
 8000f2a:	2201      	movs	r2, #1
 8000f2c:	f883 2021 	strb.w	r2, [r3, #33]	@ 0x21

    /* Process Unlocked */
    __HAL_UNLOCK(hdma);
 8000f30:	687b      	ldr	r3, [r7, #4]
 8000f32:	2200      	movs	r2, #0
 8000f34:	f883 2020 	strb.w	r2, [r3, #32]

    /* Call User Abort callback */
    if(hdma->XferAbortCallback != NULL)
 8000f38:	687b      	ldr	r3, [r7, #4]
 8000f3a:	6b5b      	ldr	r3, [r3, #52]	@ 0x34
 8000f3c:	2b00      	cmp	r3, #0
 8000f3e:	d003      	beq.n	8000f48 <HAL_DMA_Abort_IT+0xc8>
    {
      hdma->XferAbortCallback(hdma);
 8000f40:	687b      	ldr	r3, [r7, #4]
 8000f42:	6b5b      	ldr	r3, [r3, #52]	@ 0x34
 8000f44:	6878      	ldr	r0, [r7, #4]
 8000f46:	4798      	blx	r3
    } 
  }
  return status;
 8000f48:	7bfb      	ldrb	r3, [r7, #15]
}
 8000f4a:	4618      	mov	r0, r3
 8000f4c:	3710      	adds	r7, #16
 8000f4e:	46bd      	mov	sp, r7
 8000f50:	bd80      	pop	{r7, pc}
 8000f52:	bf00      	nop
 8000f54:	40020008 	.word	0x40020008
 8000f58:	4002001c 	.word	0x4002001c
 8000f5c:	40020030 	.word	0x40020030
 8000f60:	40020044 	.word	0x40020044
 8000f64:	40020058 	.word	0x40020058
 8000f68:	4002006c 	.word	0x4002006c
 8000f6c:	40020000 	.word	0x40020000

08000f70 <HAL_GPIO_Init>:
  * @param  GPIO_Init: pointer to a GPIO_InitTypeDef structure that contains
  *         the configuration information for the specified GPIO peripheral.
  * @retval None
  */
void HAL_GPIO_Init(GPIO_TypeDef  *GPIOx, GPIO_InitTypeDef *GPIO_Init)
{
 8000f70:	b480      	push	{r7}
 8000f72:	b08b      	sub	sp, #44	@ 0x2c
 8000f74:	af00      	add	r7, sp, #0
 8000f76:	6078      	str	r0, [r7, #4]
 8000f78:	6039      	str	r1, [r7, #0]
  uint32_t position = 0x00u;
 8000f7a:	2300      	movs	r3, #0
 8000f7c:	627b      	str	r3, [r7, #36]	@ 0x24
  uint32_t ioposition;
  uint32_t iocurrent;
  uint32_t temp;
  uint32_t config = 0x00u;
 8000f7e:	2300      	movs	r3, #0
 8000f80:	623b      	str	r3, [r7, #32]
  assert_param(IS_GPIO_ALL_INSTANCE(GPIOx));
  assert_param(IS_GPIO_PIN(GPIO_Init->Pin));
  assert_param(IS_GPIO_MODE(GPIO_Init->Mode));

  /* Configure the port pins */
  while (((GPIO_Init->Pin) >> position) != 0x00u)
 8000f82:	e169      	b.n	8001258 <HAL_GPIO_Init+0x2e8>
  {
    /* Get the IO position */
    ioposition = (0x01uL << position);
 8000f84:	2201      	movs	r2, #1
 8000f86:	6a7b      	ldr	r3, [r7, #36]	@ 0x24
 8000f88:	fa02 f303 	lsl.w	r3, r2, r3
 8000f8c:	61fb      	str	r3, [r7, #28]

    /* Get the current IO position */
    iocurrent = (uint32_t)(GPIO_Init->Pin) & ioposition;
 8000f8e:	683b      	ldr	r3, [r7, #0]
 8000f90:	681b      	ldr	r3, [r3, #0]
 8000f92:	69fa      	ldr	r2, [r7, #28]
 8000f94:	4013      	ands	r3, r2
 8000f96:	61bb      	str	r3, [r7, #24]

    if (iocurrent == ioposition)
 8000f98:	69ba      	ldr	r2, [r7, #24]
 8000f9a:	69fb      	ldr	r3, [r7, #28]
 8000f9c:	429a      	cmp	r2, r3
 8000f9e:	f040 8158 	bne.w	8001252 <HAL_GPIO_Init+0x2e2>
    {
      /* Check the Alternate function parameters */
      assert_param(IS_GPIO_AF_INSTANCE(GPIOx));

      /* Based on the required mode, filling config variable with MODEy[1:0] and CNFy[3:2] corresponding bits */
      switch (GPIO_Init->Mode)
 8000fa2:	683b      	ldr	r3, [r7, #0]
 8000fa4:	685b      	ldr	r3, [r3, #4]
 8000fa6:	4a9a      	ldr	r2, [pc, #616]	@ (8001210 <HAL_GPIO_Init+0x2a0>)
 8000fa8:	4293      	cmp	r3, r2
 8000faa:	d05e      	beq.n	800106a <HAL_GPIO_Init+0xfa>
 8000fac:	4a98      	ldr	r2, [pc, #608]	@ (8001210 <HAL_GPIO_Init+0x2a0>)
 8000fae:	4293      	cmp	r3, r2
 8000fb0:	d875      	bhi.n	800109e <HAL_GPIO_Init+0x12e>
 8000fb2:	4a98      	ldr	r2, [pc, #608]	@ (8001214 <HAL_GPIO_Init+0x2a4>)
 8000fb4:	4293      	cmp	r3, r2
 8000fb6:	d058      	beq.n	800106a <HAL_GPIO_Init+0xfa>
 8000fb8:	4a96      	ldr	r2, [pc, #600]	@ (8001214 <HAL_GPIO_Init+0x2a4>)
 8000fba:	4293      	cmp	r3, r2
 8000fbc:	d86f      	bhi.n	800109e <HAL_GPIO_Init+0x12e>
 8000fbe:	4a96      	ldr	r2, [pc, #600]	@ (8001218 <HAL_GPIO_Init+0x2a8>)
 8000fc0:	4293      	cmp	r3, r2
 8000fc2:	d052      	beq.n	800106a <HAL_GPIO_Init+0xfa>
 8000fc4:	4a94      	ldr	r2, [pc, #592]	@ (8001218 <HAL_GPIO_Init+0x2a8>)
 8000fc6:	4293      	cmp	r3, r2
 8000fc8:	d869      	bhi.n	800109e <HAL_GPIO_Init+0x12e>
 8000fca:	4a94      	ldr	r2, [pc, #592]	@ (800121c <HAL_GPIO_Init+0x2ac>)
 8000fcc:	4293      	cmp	r3, r2
 8000fce:	d04c      	beq.n	800106a <HAL_GPIO_Init+0xfa>
 8000fd0:	4a92      	ldr	r2, [pc, #584]	@ (800121c <HAL_GPIO_Init+0x2ac>)
 8000fd2:	4293      	cmp	r3, r2
 8000fd4:	d863      	bhi.n	800109e <HAL_GPIO_Init+0x12e>
 8000fd6:	4a92      	ldr	r2, [pc, #584]	@ (8001220 <HAL_GPIO_Init+0x2b0>)
 8000fd8:	4293      	cmp	r3, r2
 8000fda:	d046      	beq.n	800106a <HAL_GPIO_Init+0xfa>
 8000fdc:	4a90      	ldr	r2, [pc, #576]	@ (8001220 <HAL_GPIO_Init+0x2b0>)
 8000fde:	4293      	cmp	r3, r2
 8000fe0:	d85d      	bhi.n	800109e <HAL_GPIO_Init+0x12e>
 8000fe2:	2b12      	cmp	r3, #18
 8000fe4:	d82a      	bhi.n	800103c <HAL_GPIO_Init+0xcc>
 8000fe6:	2b12      	cmp	r3, #18
 8000fe8:	d859      	bhi.n	800109e <HAL_GPIO_Init+0x12e>
 8000fea:	a201      	add	r2, pc, #4	@ (adr r2, 8000ff0 <HAL_GPIO_Init+0x80>)
 8000fec:	f852 f023 	ldr.w	pc, [r2, r3, lsl #2]
 8000ff0:	0800106b 	.word	0x0800106b
 8000ff4:	08001045 	.word	0x08001045
 8000ff8:	08001057 	.word	0x08001057
 8000ffc:	08001099 	.word	0x08001099
 8001000:	0800109f 	.word	0x0800109f
 8001004:	0800109f 	.word	0x0800109f
 8001008:	0800109f 	.word	0x0800109f
 800100c:	0800109f 	.word	0x0800109f
 8001010:	0800109f 	.word	0x0800109f
 8001014:	0800109f 	.word	0x0800109f
 8001018:	0800109f 	.word	0x0800109f
 800101c:	0800109f 	.word	0x0800109f
 8001020:	0800109f 	.word	0x0800109f
 8001024:	0800109f 	.word	0x0800109f
 8001028:	0800109f 	.word	0x0800109f
 800102c:	0800109f 	.word	0x0800109f
 8001030:	0800109f 	.word	0x0800109f
 8001034:	0800104d 	.word	0x0800104d
 8001038:	08001061 	.word	0x08001061
 800103c:	4a79      	ldr	r2, [pc, #484]	@ (8001224 <HAL_GPIO_Init+0x2b4>)
 800103e:	4293      	cmp	r3, r2
 8001040:	d013      	beq.n	800106a <HAL_GPIO_Init+0xfa>
          config = GPIO_CR_MODE_INPUT + GPIO_CR_CNF_ANALOG;
          break;

        /* Parameters are checked with assert_param */
        default:
          break;
 8001042:	e02c      	b.n	800109e <HAL_GPIO_Init+0x12e>
          config = GPIO_Init->Speed + GPIO_CR_CNF_GP_OUTPUT_PP;
 8001044:	683b      	ldr	r3, [r7, #0]
 8001046:	68db      	ldr	r3, [r3, #12]
 8001048:	623b      	str	r3, [r7, #32]
          break;
 800104a:	e029      	b.n	80010a0 <HAL_GPIO_Init+0x130>
          config = GPIO_Init->Speed + GPIO_CR_CNF_GP_OUTPUT_OD;
 800104c:	683b      	ldr	r3, [r7, #0]
 800104e:	68db      	ldr	r3, [r3, #12]
 8001050:	3304      	adds	r3, #4
 8001052:	623b      	str	r3, [r7, #32]
          break;
 8001054:	e024      	b.n	80010a0 <HAL_GPIO_Init+0x130>
          config = GPIO_Init->Speed + GPIO_CR_CNF_AF_OUTPUT_PP;
 8001056:	683b      	ldr	r3, [r7, #0]
 8001058:	68db      	ldr	r3, [r3, #12]
 800105a:	3308      	adds	r3, #8
 800105c:	623b      	str	r3, [r7, #32]
          break;
 800105e:	e01f      	b.n	80010a0 <HAL_GPIO_Init+0x130>
          config = GPIO_Init->Speed + GPIO_CR_CNF_AF_OUTPUT_OD;
 8001060:	683b      	ldr	r3, [r7, #0]
 8001062:	68db      	ldr	r3, [r3, #12]
 8001064:	330c      	adds	r3, #12
 8001066:	623b      	str	r3, [r7, #32]
          break;
 8001068:	e01a      	b.n	80010a0 <HAL_GPIO_Init+0x130>
          if (GPIO_Init->Pull == GPIO_NOPULL)
 800106a:	683b      	ldr	r3, [r7, #0]
 800106c:	689b      	ldr	r3, [r3, #8]
 800106e:	2b00      	cmp	r3, #0
 8001070:	d102      	bne.n	8001078 <HAL_GPIO_Init+0x108>
            config = GPIO_CR_MODE_INPUT + GPIO_CR_CNF_INPUT_FLOATING;
 8001072:	2304      	movs	r3, #4
 8001074:	623b      	str	r3, [r7, #32]
          break;
 8001076:	e013      	b.n	80010a0 <HAL_GPIO_Init+0x130>
          else if (GPIO_Init->Pull == GPIO_PULLUP)
 8001078:	683b      	ldr	r3, [r7, #0]
 800107a:	689b      	ldr	r3, [r3, #8]
 800107c:	2b01      	cmp	r3, #1
 800107e:	d105      	bne.n	800108c <HAL_GPIO_Init+0x11c>
            config = GPIO_CR_MODE_INPUT + GPIO_CR_CNF_INPUT_PU_PD;
 8001080:	2308      	movs	r3, #8
 8001082:	623b      	str	r3, [r7, #32]
            GPIOx->BSRR = ioposition;
 8001084:	687b      	ldr	r3, [r7, #4]
 8001086:	69fa      	ldr	r2, [r7, #28]
 8001088:	611a      	str	r2, [r3, #16]
          break;
 800108a:	e009      	b.n	80010a0 <HAL_GPIO_Init+0x130>
            config = GPIO_CR_MODE_INPUT + GPIO_CR_CNF_INPUT_PU_PD;
 800108c:	2308      	movs	r3, #8
 800108e:	623b      	str	r3, [r7, #32]
            GPIOx->BRR = ioposition;
 8001090:	687b      	ldr	r3, [r7, #4]
 8001092:	69fa      	ldr	r2, [r7, #28]
 8001094:	615a      	str	r2, [r3, #20]
          break;
 8001096:	e003      	b.n	80010a0 <HAL_GPIO_Init+0x130>
          config = GPIO_CR_MODE_INPUT + GPIO_CR_CNF_ANALOG;
 8001098:	2300      	movs	r3, #0
 800109a:	623b      	str	r3, [r7, #32]
          break;
 800109c:	e000      	b.n	80010a0 <HAL_GPIO_Init+0x130>
          break;
 800109e:	bf00      	nop
      }

      /* Check if the current bit belongs to first half or last half of the pin count number
       in order to address CRH or CRL register*/
      configregister = (iocurrent < GPIO_PIN_8) ? &GPIOx->CRL     : &GPIOx->CRH;
 80010a0:	69bb      	ldr	r3, [r7, #24]
 80010a2:	2bff      	cmp	r3, #255	@ 0xff
 80010a4:	d801      	bhi.n	80010aa <HAL_GPIO_Init+0x13a>
 80010a6:	687b      	ldr	r3, [r7, #4]
 80010a8:	e001      	b.n	80010ae <HAL_GPIO_Init+0x13e>
 80010aa:	687b      	ldr	r3, [r7, #4]
 80010ac:	3304      	adds	r3, #4
 80010ae:	617b      	str	r3, [r7, #20]
      registeroffset = (iocurrent < GPIO_PIN_8) ? (position << 2u) : ((position - 8u) << 2u);
 80010b0:	69bb      	ldr	r3, [r7, #24]
 80010b2:	2bff      	cmp	r3, #255	@ 0xff
 80010b4:	d802      	bhi.n	80010bc <HAL_GPIO_Init+0x14c>
 80010b6:	6a7b      	ldr	r3, [r7, #36]	@ 0x24
 80010b8:	009b      	lsls	r3, r3, #2
 80010ba:	e002      	b.n	80010c2 <HAL_GPIO_Init+0x152>
 80010bc:	6a7b      	ldr	r3, [r7, #36]	@ 0x24
 80010be:	3b08      	subs	r3, #8
 80010c0:	009b      	lsls	r3, r3, #2
 80010c2:	613b      	str	r3, [r7, #16]

      /* Apply the new configuration of the pin to the register */
      MODIFY_REG((*configregister), ((GPIO_CRL_MODE0 | GPIO_CRL_CNF0) << registeroffset), (config << registeroffset));
 80010c4:	697b      	ldr	r3, [r7, #20]
 80010c6:	681a      	ldr	r2, [r3, #0]
 80010c8:	210f      	movs	r1, #15
 80010ca:	693b      	ldr	r3, [r7, #16]
 80010cc:	fa01 f303 	lsl.w	r3, r1, r3
 80010d0:	43db      	mvns	r3, r3
 80010d2:	401a      	ands	r2, r3
 80010d4:	6a39      	ldr	r1, [r7, #32]
 80010d6:	693b      	ldr	r3, [r7, #16]
 80010d8:	fa01 f303 	lsl.w	r3, r1, r3
 80010dc:	431a      	orrs	r2, r3
 80010de:	697b      	ldr	r3, [r7, #20]
 80010e0:	601a      	str	r2, [r3, #0]

      /*--------------------- EXTI Mode Configuration ------------------------*/
      /* Configure the External Interrupt or event for the current IO */
      if ((GPIO_Init->Mode & EXTI_MODE) == EXTI_MODE)
 80010e2:	683b      	ldr	r3, [r7, #0]
 80010e4:	685b      	ldr	r3, [r3, #4]
 80010e6:	f003 5380 	and.w	r3, r3, #268435456	@ 0x10000000
 80010ea:	2b00      	cmp	r3, #0
 80010ec:	f000 80b1 	beq.w	8001252 <HAL_GPIO_Init+0x2e2>
      {
        /* Enable AFIO Clock */
        __HAL_RCC_AFIO_CLK_ENABLE();
 80010f0:	4b4d      	ldr	r3, [pc, #308]	@ (8001228 <HAL_GPIO_Init+0x2b8>)
 80010f2:	699b      	ldr	r3, [r3, #24]
 80010f4:	4a4c      	ldr	r2, [pc, #304]	@ (8001228 <HAL_GPIO_Init+0x2b8>)
 80010f6:	f043 0301 	orr.w	r3, r3, #1
 80010fa:	6193      	str	r3, [r2, #24]
 80010fc:	4b4a      	ldr	r3, [pc, #296]	@ (8001228 <HAL_GPIO_Init+0x2b8>)
 80010fe:	699b      	ldr	r3, [r3, #24]
 8001100:	f003 0301 	and.w	r3, r3, #1
 8001104:	60bb      	str	r3, [r7, #8]
 8001106:	68bb      	ldr	r3, [r7, #8]
        temp = AFIO->EXTICR[position >> 2u];
 8001108:	4a48      	ldr	r2, [pc, #288]	@ (800122c <HAL_GPIO_Init+0x2bc>)
 800110a:	6a7b      	ldr	r3, [r7, #36]	@ 0x24
 800110c:	089b      	lsrs	r3, r3, #2
 800110e:	3302      	adds	r3, #2
 8001110:	f852 3023 	ldr.w	r3, [r2, r3, lsl #2]
 8001114:	60fb      	str	r3, [r7, #12]
        CLEAR_BIT(temp, (0x0Fu) << (4u * (position & 0x03u)));
 8001116:	6a7b      	ldr	r3, [r7, #36]	@ 0x24
 8001118:	f003 0303 	and.w	r3, r3, #3
 800111c:	009b      	lsls	r3, r3, #2
 800111e:	220f      	movs	r2, #15
 8001120:	fa02 f303 	lsl.w	r3, r2, r3
 8001124:	43db      	mvns	r3, r3
 8001126:	68fa      	ldr	r2, [r7, #12]
 8001128:	4013      	ands	r3, r2
 800112a:	60fb      	str	r3, [r7, #12]
        SET_BIT(temp, (GPIO_GET_INDEX(GPIOx)) << (4u * (position & 0x03u)));
 800112c:	687b      	ldr	r3, [r7, #4]
 800112e:	4a40      	ldr	r2, [pc, #256]	@ (8001230 <HAL_GPIO_Init+0x2c0>)
 8001130:	4293      	cmp	r3, r2
 8001132:	d013      	beq.n	800115c <HAL_GPIO_Init+0x1ec>
 8001134:	687b      	ldr	r3, [r7, #4]
 8001136:	4a3f      	ldr	r2, [pc, #252]	@ (8001234 <HAL_GPIO_Init+0x2c4>)
 8001138:	4293      	cmp	r3, r2
 800113a:	d00d      	beq.n	8001158 <HAL_GPIO_Init+0x1e8>
 800113c:	687b      	ldr	r3, [r7, #4]
 800113e:	4a3e      	ldr	r2, [pc, #248]	@ (8001238 <HAL_GPIO_Init+0x2c8>)
 8001140:	4293      	cmp	r3, r2
 8001142:	d007      	beq.n	8001154 <HAL_GPIO_Init+0x1e4>
 8001144:	687b      	ldr	r3, [r7, #4]
 8001146:	4a3d      	ldr	r2, [pc, #244]	@ (800123c <HAL_GPIO_Init+0x2cc>)
 8001148:	4293      	cmp	r3, r2
 800114a:	d101      	bne.n	8001150 <HAL_GPIO_Init+0x1e0>
 800114c:	2303      	movs	r3, #3
 800114e:	e006      	b.n	800115e <HAL_GPIO_Init+0x1ee>
 8001150:	2304      	movs	r3, #4
 8001152:	e004      	b.n	800115e <HAL_GPIO_Init+0x1ee>
 8001154:	2302      	movs	r3, #2
 8001156:	e002      	b.n	800115e <HAL_GPIO_Init+0x1ee>
 8001158:	2301      	movs	r3, #1
 800115a:	e000      	b.n	800115e <HAL_GPIO_Init+0x1ee>
 800115c:	2300      	movs	r3, #0
 800115e:	6a7a      	ldr	r2, [r7, #36]	@ 0x24
 8001160:	f002 0203 	and.w	r2, r2, #3
 8001164:	0092      	lsls	r2, r2, #2
 8001166:	4093      	lsls	r3, r2
 8001168:	68fa      	ldr	r2, [r7, #12]
 800116a:	4313      	orrs	r3, r2
 800116c:	60fb      	str	r3, [r7, #12]
        AFIO->EXTICR[position >> 2u] = temp;
 800116e:	492f      	ldr	r1, [pc, #188]	@ (800122c <HAL_GPIO_Init+0x2bc>)
 8001170:	6a7b      	ldr	r3, [r7, #36]	@ 0x24
 8001172:	089b      	lsrs	r3, r3, #2
 8001174:	3302      	adds	r3, #2
 8001176:	68fa      	ldr	r2, [r7, #12]
 8001178:	f841 2023 	str.w	r2, [r1, r3, lsl #2]


        /* Enable or disable the rising trigger */
        if ((GPIO_Init->Mode & RISING_EDGE) == RISING_EDGE)
 800117c:	683b      	ldr	r3, [r7, #0]
 800117e:	685b      	ldr	r3, [r3, #4]
 8001180:	f403 1380 	and.w	r3, r3, #1048576	@ 0x100000
 8001184:	2b00      	cmp	r3, #0
 8001186:	d006      	beq.n	8001196 <HAL_GPIO_Init+0x226>
        {
          SET_BIT(EXTI->RTSR, iocurrent);
 8001188:	4b2d      	ldr	r3, [pc, #180]	@ (8001240 <HAL_GPIO_Init+0x2d0>)
 800118a:	689a      	ldr	r2, [r3, #8]
 800118c:	492c      	ldr	r1, [pc, #176]	@ (8001240 <HAL_GPIO_Init+0x2d0>)
 800118e:	69bb      	ldr	r3, [r7, #24]
 8001190:	4313      	orrs	r3, r2
 8001192:	608b      	str	r3, [r1, #8]
 8001194:	e006      	b.n	80011a4 <HAL_GPIO_Init+0x234>
        }
        else
        {
          CLEAR_BIT(EXTI->RTSR, iocurrent);
 8001196:	4b2a      	ldr	r3, [pc, #168]	@ (8001240 <HAL_GPIO_Init+0x2d0>)
 8001198:	689a      	ldr	r2, [r3, #8]
 800119a:	69bb      	ldr	r3, [r7, #24]
 800119c:	43db      	mvns	r3, r3
 800119e:	4928      	ldr	r1, [pc, #160]	@ (8001240 <HAL_GPIO_Init+0x2d0>)
 80011a0:	4013      	ands	r3, r2
 80011a2:	608b      	str	r3, [r1, #8]
        }

        /* Enable or disable the falling trigger */
        if ((GPIO_Init->Mode & FALLING_EDGE) == FALLING_EDGE)
 80011a4:	683b      	ldr	r3, [r7, #0]
 80011a6:	685b      	ldr	r3, [r3, #4]
 80011a8:	f403 1300 	and.w	r3, r3, #2097152	@ 0x200000
 80011ac:	2b00      	cmp	r3, #0
 80011ae:	d006      	beq.n	80011be <HAL_GPIO_Init+0x24e>
        {
          SET_BIT(EXTI->FTSR, iocurrent);
 80011b0:	4b23      	ldr	r3, [pc, #140]	@ (8001240 <HAL_GPIO_Init+0x2d0>)
 80011b2:	68da      	ldr	r2, [r3, #12]
 80011b4:	4922      	ldr	r1, [pc, #136]	@ (8001240 <HAL_GPIO_Init+0x2d0>)
 80011b6:	69bb      	ldr	r3, [r7, #24]
 80011b8:	4313      	orrs	r3, r2
 80011ba:	60cb      	str	r3, [r1, #12]
 80011bc:	e006      	b.n	80011cc <HAL_GPIO_Init+0x25c>
        }
        else
        {
          CLEAR_BIT(EXTI->FTSR, iocurrent);
 80011be:	4b20      	ldr	r3, [pc, #128]	@ (8001240 <HAL_GPIO_Init+0x2d0>)
 80011c0:	68da      	ldr	r2, [r3, #12]
 80011c2:	69bb      	ldr	r3, [r7, #24]
 80011c4:	43db      	mvns	r3, r3
 80011c6:	491e      	ldr	r1, [pc, #120]	@ (8001240 <HAL_GPIO_Init+0x2d0>)
 80011c8:	4013      	ands	r3, r2
 80011ca:	60cb      	str	r3, [r1, #12]
        }

        /* Configure the event mask */
        if ((GPIO_Init->Mode & GPIO_MODE_EVT) == GPIO_MODE_EVT)
 80011cc:	683b      	ldr	r3, [r7, #0]
 80011ce:	685b      	ldr	r3, [r3, #4]
 80011d0:	f403 3300 	and.w	r3, r3, #131072	@ 0x20000
 80011d4:	2b00      	cmp	r3, #0
 80011d6:	d006      	beq.n	80011e6 <HAL_GPIO_Init+0x276>
        {
          SET_BIT(EXTI->EMR, iocurrent);
 80011d8:	4b19      	ldr	r3, [pc, #100]	@ (8001240 <HAL_GPIO_Init+0x2d0>)
 80011da:	685a      	ldr	r2, [r3, #4]
 80011dc:	4918      	ldr	r1, [pc, #96]	@ (8001240 <HAL_GPIO_Init+0x2d0>)
 80011de:	69bb      	ldr	r3, [r7, #24]
 80011e0:	4313      	orrs	r3, r2
 80011e2:	604b      	str	r3, [r1, #4]
 80011e4:	e006      	b.n	80011f4 <HAL_GPIO_Init+0x284>
        }
        else
        {
          CLEAR_BIT(EXTI->EMR, iocurrent);
 80011e6:	4b16      	ldr	r3, [pc, #88]	@ (8001240 <HAL_GPIO_Init+0x2d0>)
 80011e8:	685a      	ldr	r2, [r3, #4]
 80011ea:	69bb      	ldr	r3, [r7, #24]
 80011ec:	43db      	mvns	r3, r3
 80011ee:	4914      	ldr	r1, [pc, #80]	@ (8001240 <HAL_GPIO_Init+0x2d0>)
 80011f0:	4013      	ands	r3, r2
 80011f2:	604b      	str	r3, [r1, #4]
        }

        /* Configure the interrupt mask */
        if ((GPIO_Init->Mode & GPIO_MODE_IT) == GPIO_MODE_IT)
 80011f4:	683b      	ldr	r3, [r7, #0]
 80011f6:	685b      	ldr	r3, [r3, #4]
 80011f8:	f403 3380 	and.w	r3, r3, #65536	@ 0x10000
 80011fc:	2b00      	cmp	r3, #0
 80011fe:	d021      	beq.n	8001244 <HAL_GPIO_Init+0x2d4>
        {
          SET_BIT(EXTI->IMR, iocurrent);
 8001200:	4b0f      	ldr	r3, [pc, #60]	@ (8001240 <HAL_GPIO_Init+0x2d0>)
 8001202:	681a      	ldr	r2, [r3, #0]
 8001204:	490e      	ldr	r1, [pc, #56]	@ (8001240 <HAL_GPIO_Init+0x2d0>)
 8001206:	69bb      	ldr	r3, [r7, #24]
 8001208:	4313      	orrs	r3, r2
 800120a:	600b      	str	r3, [r1, #0]
 800120c:	e021      	b.n	8001252 <HAL_GPIO_Init+0x2e2>
 800120e:	bf00      	nop
 8001210:	10320000 	.word	0x10320000
 8001214:	10310000 	.word	0x10310000
 8001218:	10220000 	.word	0x10220000
 800121c:	10210000 	.word	0x10210000
 8001220:	10120000 	.word	0x10120000
 8001224:	10110000 	.word	0x10110000
 8001228:	40021000 	.word	0x40021000
 800122c:	40010000 	.word	0x40010000
 8001230:	40010800 	.word	0x40010800
 8001234:	40010c00 	.word	0x40010c00
 8001238:	40011000 	.word	0x40011000
 800123c:	40011400 	.word	0x40011400
 8001240:	40010400 	.word	0x40010400
        }
        else
        {
          CLEAR_BIT(EXTI->IMR, iocurrent);
 8001244:	4b0b      	ldr	r3, [pc, #44]	@ (8001274 <HAL_GPIO_Init+0x304>)
 8001246:	681a      	ldr	r2, [r3, #0]
 8001248:	69bb      	ldr	r3, [r7, #24]
 800124a:	43db      	mvns	r3, r3
 800124c:	4909      	ldr	r1, [pc, #36]	@ (8001274 <HAL_GPIO_Init+0x304>)
 800124e:	4013      	ands	r3, r2
 8001250:	600b      	str	r3, [r1, #0]
        }
      }
    }

	position++;
 8001252:	6a7b      	ldr	r3, [r7, #36]	@ 0x24
 8001254:	3301      	adds	r3, #1
 8001256:	627b      	str	r3, [r7, #36]	@ 0x24
  while (((GPIO_Init->Pin) >> position) != 0x00u)
 8001258:	683b      	ldr	r3, [r7, #0]
 800125a:	681a      	ldr	r2, [r3, #0]
 800125c:	6a7b      	ldr	r3, [r7, #36]	@ 0x24
 800125e:	fa22 f303 	lsr.w	r3, r2, r3
 8001262:	2b00      	cmp	r3, #0
 8001264:	f47f ae8e 	bne.w	8000f84 <HAL_GPIO_Init+0x14>
  }
}
 8001268:	bf00      	nop
 800126a:	bf00      	nop
 800126c:	372c      	adds	r7, #44	@ 0x2c
 800126e:	46bd      	mov	sp, r7
 8001270:	bc80      	pop	{r7}
 8001272:	4770      	bx	lr
 8001274:	40010400 	.word	0x40010400

08001278 <HAL_GPIO_WritePin>:
  *            @arg GPIO_PIN_RESET: to clear the port pin
  *            @arg GPIO_PIN_SET: to set the port pin
  * @retval None
  */
void HAL_GPIO_WritePin(GPIO_TypeDef *GPIOx, uint16_t GPIO_Pin, GPIO_PinState PinState)
{
 8001278:	b480      	push	{r7}
 800127a:	b083      	sub	sp, #12
 800127c:	af00      	add	r7, sp, #0
 800127e:	6078      	str	r0, [r7, #4]
 8001280:	460b      	mov	r3, r1
 8001282:	807b      	strh	r3, [r7, #2]
 8001284:	4613      	mov	r3, r2
 8001286:	707b      	strb	r3, [r7, #1]
  /* Check the parameters */
  assert_param(IS_GPIO_PIN(GPIO_Pin));
  assert_param(IS_GPIO_PIN_ACTION(PinState));

  if (PinState != GPIO_PIN_RESET)
 8001288:	787b      	ldrb	r3, [r7, #1]
 800128a:	2b00      	cmp	r3, #0
 800128c:	d003      	beq.n	8001296 <HAL_GPIO_WritePin+0x1e>
  {
    GPIOx->BSRR = GPIO_Pin;
 800128e:	887a      	ldrh	r2, [r7, #2]
 8001290:	687b      	ldr	r3, [r7, #4]
 8001292:	611a      	str	r2, [r3, #16]
  }
  else
  {
    GPIOx->BSRR = (uint32_t)GPIO_Pin << 16u;
  }
}
 8001294:	e003      	b.n	800129e <HAL_GPIO_WritePin+0x26>
    GPIOx->BSRR = (uint32_t)GPIO_Pin << 16u;
 8001296:	887b      	ldrh	r3, [r7, #2]
 8001298:	041a      	lsls	r2, r3, #16
 800129a:	687b      	ldr	r3, [r7, #4]
 800129c:	611a      	str	r2, [r3, #16]
}
 800129e:	bf00      	nop
 80012a0:	370c      	adds	r7, #12
 80012a2:	46bd      	mov	sp, r7
 80012a4:	bc80      	pop	{r7}
 80012a6:	4770      	bx	lr

080012a8 <HAL_GPIO_TogglePin>:
  * @param  GPIOx: where x can be (A..G depending on device used) to select the GPIO peripheral
  * @param  GPIO_Pin: Specifies the pins to be toggled.
  * @retval None
  */
void HAL_GPIO_TogglePin(GPIO_TypeDef *GPIOx, uint16_t GPIO_Pin)
{
 80012a8:	b480      	push	{r7}
 80012aa:	b085      	sub	sp, #20
 80012ac:	af00      	add	r7, sp, #0
 80012ae:	6078      	str	r0, [r7, #4]
 80012b0:	460b      	mov	r3, r1
 80012b2:	807b      	strh	r3, [r7, #2]

  /* Check the parameters */
  assert_param(IS_GPIO_PIN(GPIO_Pin));

  /* get current Output Data Register value */
  odr = GPIOx->ODR;
 80012b4:	687b      	ldr	r3, [r7, #4]
 80012b6:	68db      	ldr	r3, [r3, #12]
 80012b8:	60fb      	str	r3, [r7, #12]

  /* Set selected pins that were at low level, and reset ones that were high */
  GPIOx->BSRR = ((odr & GPIO_Pin) << GPIO_NUMBER) | (~odr & GPIO_Pin);
 80012ba:	887a      	ldrh	r2, [r7, #2]
 80012bc:	68fb      	ldr	r3, [r7, #12]
 80012be:	4013      	ands	r3, r2
 80012c0:	041a      	lsls	r2, r3, #16
 80012c2:	68fb      	ldr	r3, [r7, #12]
 80012c4:	43d9      	mvns	r1, r3
 80012c6:	887b      	ldrh	r3, [r7, #2]
 80012c8:	400b      	ands	r3, r1
 80012ca:	431a      	orrs	r2, r3
 80012cc:	687b      	ldr	r3, [r7, #4]
 80012ce:	611a      	str	r2, [r3, #16]
}
 80012d0:	bf00      	nop
 80012d2:	3714      	adds	r7, #20
 80012d4:	46bd      	mov	sp, r7
 80012d6:	bc80      	pop	{r7}
 80012d8:	4770      	bx	lr
	...

080012dc <HAL_RCC_OscConfig>:
  *         supported by this macro. User should request a transition to HSE Off
  *         first and then HSE On or HSE Bypass.
  * @retval HAL status
  */
HAL_StatusTypeDef HAL_RCC_OscConfig(RCC_OscInitTypeDef  *RCC_OscInitStruct)
{
 80012dc:	b580      	push	{r7, lr}
 80012de:	b086      	sub	sp, #24
 80012e0:	af00      	add	r7, sp, #0
 80012e2:	6078      	str	r0, [r7, #4]
  uint32_t tickstart;
  uint32_t pll_config;

  /* Check Null pointer */
  if (RCC_OscInitStruct == NULL)
 80012e4:	687b      	ldr	r3, [r7, #4]
 80012e6:	2b00      	cmp	r3, #0
 80012e8:	d101      	bne.n	80012ee <HAL_RCC_OscConfig+0x12>
  {
    return HAL_ERROR;
 80012ea:	2301      	movs	r3, #1
 80012ec:	e272      	b.n	80017d4 <HAL_RCC_OscConfig+0x4f8>

  /* Check the parameters */
  assert_param(IS_RCC_OSCILLATORTYPE(RCC_OscInitStruct->OscillatorType));

  /*------------------------------- HSE Configuration ------------------------*/
  if (((RCC_OscInitStruct->OscillatorType) & RCC_OSCILLATORTYPE_HSE) == RCC_OSCILLATORTYPE_HSE)
 80012ee:	687b      	ldr	r3, [r7, #4]
 80012f0:	681b      	ldr	r3, [r3, #0]
 80012f2:	f003 0301 	and.w	r3, r3, #1
 80012f6:	2b00      	cmp	r3, #0
 80012f8:	f000 8087 	beq.w	800140a <HAL_RCC_OscConfig+0x12e>
  {
    /* Check the parameters */
    assert_param(IS_RCC_HSE(RCC_OscInitStruct->HSEState));

    /* When the HSE is used as system clock or clock source for PLL in these cases it is not allowed to be disabled */
    if ((__HAL_RCC_GET_SYSCLK_SOURCE() == RCC_SYSCLKSOURCE_STATUS_HSE)
 80012fc:	4b92      	ldr	r3, [pc, #584]	@ (8001548 <HAL_RCC_OscConfig+0x26c>)
 80012fe:	685b      	ldr	r3, [r3, #4]
 8001300:	f003 030c 	and.w	r3, r3, #12
 8001304:	2b04      	cmp	r3, #4
 8001306:	d00c      	beq.n	8001322 <HAL_RCC_OscConfig+0x46>
        || ((__HAL_RCC_GET_SYSCLK_SOURCE() == RCC_SYSCLKSOURCE_STATUS_PLLCLK) && (__HAL_RCC_GET_PLL_OSCSOURCE() == RCC_PLLSOURCE_HSE)))
 8001308:	4b8f      	ldr	r3, [pc, #572]	@ (8001548 <HAL_RCC_OscConfig+0x26c>)
 800130a:	685b      	ldr	r3, [r3, #4]
 800130c:	f003 030c 	and.w	r3, r3, #12
 8001310:	2b08      	cmp	r3, #8
 8001312:	d112      	bne.n	800133a <HAL_RCC_OscConfig+0x5e>
 8001314:	4b8c      	ldr	r3, [pc, #560]	@ (8001548 <HAL_RCC_OscConfig+0x26c>)
 8001316:	685b      	ldr	r3, [r3, #4]
 8001318:	f403 3380 	and.w	r3, r3, #65536	@ 0x10000
 800131c:	f5b3 3f80 	cmp.w	r3, #65536	@ 0x10000
 8001320:	d10b      	bne.n	800133a <HAL_RCC_OscConfig+0x5e>
    {
      if ((__HAL_RCC_GET_FLAG(RCC_FLAG_HSERDY) != RESET) && (RCC_OscInitStruct->HSEState == RCC_HSE_OFF))
 8001322:	4b89      	ldr	r3, [pc, #548]	@ (8001548 <HAL_RCC_OscConfig+0x26c>)
 8001324:	681b      	ldr	r3, [r3, #0]
 8001326:	f403 3300 	and.w	r3, r3, #131072	@ 0x20000
 800132a:	2b00      	cmp	r3, #0
 800132c:	d06c      	beq.n	8001408 <HAL_RCC_OscConfig+0x12c>
 800132e:	687b      	ldr	r3, [r7, #4]
 8001330:	685b      	ldr	r3, [r3, #4]
 8001332:	2b00      	cmp	r3, #0
 8001334:	d168      	bne.n	8001408 <HAL_RCC_OscConfig+0x12c>
      {
        return HAL_ERROR;
 8001336:	2301      	movs	r3, #1
 8001338:	e24c      	b.n	80017d4 <HAL_RCC_OscConfig+0x4f8>
      }
    }
    else
    {
      /* Set the new HSE configuration ---------------------------------------*/
      __HAL_RCC_HSE_CONFIG(RCC_OscInitStruct->HSEState);
 800133a:	687b      	ldr	r3, [r7, #4]
 800133c:	685b      	ldr	r3, [r3, #4]
 800133e:	f5b3 3f80 	cmp.w	r3, #65536	@ 0x10000
 8001342:	d106      	bne.n	8001352 <HAL_RCC_OscConfig+0x76>
 8001344:	4b80      	ldr	r3, [pc, #512]	@ (8001548 <HAL_RCC_OscConfig+0x26c>)
 8001346:	681b      	ldr	r3, [r3, #0]
 8001348:	4a7f      	ldr	r2, [pc, #508]	@ (8001548 <HAL_RCC_OscConfig+0x26c>)
 800134a:	f443 3380 	orr.w	r3, r3, #65536	@ 0x10000
 800134e:	6013      	str	r3, [r2, #0]
 8001350:	e02e      	b.n	80013b0 <HAL_RCC_OscConfig+0xd4>
 8001352:	687b      	ldr	r3, [r7, #4]
 8001354:	685b      	ldr	r3, [r3, #4]
 8001356:	2b00      	cmp	r3, #0
 8001358:	d10c      	bne.n	8001374 <HAL_RCC_OscConfig+0x98>
 800135a:	4b7b      	ldr	r3, [pc, #492]	@ (8001548 <HAL_RCC_OscConfig+0x26c>)
 800135c:	681b      	ldr	r3, [r3, #0]
 800135e:	4a7a      	ldr	r2, [pc, #488]	@ (8001548 <HAL_RCC_OscConfig+0x26c>)
 8001360:	f423 3380 	bic.w	r3, r3, #65536	@ 0x10000
 8001364:	6013      	str	r3, [r2, #0]
 8001366:	4b78      	ldr	r3, [pc, #480]	@ (8001548 <HAL_RCC_OscConfig+0x26c>)
 8001368:	681b      	ldr	r3, [r3, #0]
 800136a:	4a77      	ldr	r2, [pc, #476]	@ (8001548 <HAL_RCC_OscConfig+0x26c>)
 800136c:	f423 2380 	bic.w	r3, r3, #262144	@ 0x40000
 8001370:	6013      	str	r3, [r2, #0]
 8001372:	e01d      	b.n	80013b0 <HAL_RCC_OscConfig+0xd4>
 8001374:	687b      	ldr	r3, [r7, #4]
 8001376:	685b      	ldr	r3, [r3, #4]
 8001378:	f5b3 2fa0 	cmp.w	r3, #327680	@ 0x50000
 800137c:	d10c      	bne.n	8001398 <HAL_RCC_OscConfig+0xbc>
 800137e:	4b72      	ldr	r3, [pc, #456]	@ (8001548 <HAL_RCC_OscConfig+0x26c>)
 8001380:	681b      	ldr	r3, [r3, #0]
 8001382:	4a71      	ldr	r2, [pc, #452]	@ (8001548 <HAL_RCC_OscConfig+0x26c>)
 8001384:	f443 2380 	orr.w	r3, r3, #262144	@ 0x40000
 8001388:	6013      	str	r3, [r2, #0]
 800138a:	4b6f      	ldr	r3, [pc, #444]	@ (8001548 <HAL_RCC_OscConfig+0x26c>)
 800138c:	681b      	ldr	r3, [r3, #0]
 800138e:	4a6e      	ldr	r2, [pc, #440]	@ (8001548 <HAL_RCC_OscConfig+0x26c>)
 8001390:	f443 3380 	orr.w	r3, r3, #65536	@ 0x10000
 8001394:	6013      	str	r3, [r2, #0]
 8001396:	e00b      	b.n	80013b0 <HAL_RCC_OscConfig+0xd4>
 8001398:	4b6b      	ldr	r3, [pc, #428]	@ (8001548 <HAL_RCC_OscConfig+0x26c>)
 800139a:	681b      	ldr	r3, [r3, #0]
 800139c:	4a6a      	ldr	r2, [pc, #424]	@ (8001548 <HAL_RCC_OscConfig+0x26c>)
 800139e:	f423 3380 	bic.w	r3, r3, #65536	@ 0x10000
 80013a2:	6013      	str	r3, [r2, #0]
 80013a4:	4b68      	ldr	r3, [pc, #416]	@ (8001548 <HAL_RCC_OscConfig+0x26c>)
 80013a6:	681b      	ldr	r3, [r3, #0]
 80013a8:	4a67      	ldr	r2, [pc, #412]	@ (8001548 <HAL_RCC_OscConfig+0x26c>)
 80013aa:	f423 2380 	bic.w	r3, r3, #262144	@ 0x40000
 80013ae:	6013      	str	r3, [r2, #0]


      /* Check the HSE State */
      if (RCC_OscInitStruct->HSEState != RCC_HSE_OFF)
 80013b0:	687b      	ldr	r3, [r7, #4]
 80013b2:	685b      	ldr	r3, [r3, #4]
 80013b4:	2b00      	cmp	r3, #0
 80013b6:	d013      	beq.n	80013e0 <HAL_RCC_OscConfig+0x104>
      {
        /* Get Start Tick */
        tickstart = HAL_GetTick();
 80013b8:	f7ff fbec 	bl	8000b94 <HAL_GetTick>
 80013bc:	6138      	str	r0, [r7, #16]

        /* Wait till HSE is ready */
        while (__HAL_RCC_GET_FLAG(RCC_FLAG_HSERDY) == RESET)
 80013be:	e008      	b.n	80013d2 <HAL_RCC_OscConfig+0xf6>
        {
          if ((HAL_GetTick() - tickstart) > HSE_TIMEOUT_VALUE)
 80013c0:	f7ff fbe8 	bl	8000b94 <HAL_GetTick>
 80013c4:	4602      	mov	r2, r0
 80013c6:	693b      	ldr	r3, [r7, #16]
 80013c8:	1ad3      	subs	r3, r2, r3
 80013ca:	2b64      	cmp	r3, #100	@ 0x64
 80013cc:	d901      	bls.n	80013d2 <HAL_RCC_OscConfig+0xf6>
          {
            return HAL_TIMEOUT;
 80013ce:	2303      	movs	r3, #3
 80013d0:	e200      	b.n	80017d4 <HAL_RCC_OscConfig+0x4f8>
        while (__HAL_RCC_GET_FLAG(RCC_FLAG_HSERDY) == RESET)
 80013d2:	4b5d      	ldr	r3, [pc, #372]	@ (8001548 <HAL_RCC_OscConfig+0x26c>)
 80013d4:	681b      	ldr	r3, [r3, #0]
 80013d6:	f403 3300 	and.w	r3, r3, #131072	@ 0x20000
 80013da:	2b00      	cmp	r3, #0
 80013dc:	d0f0      	beq.n	80013c0 <HAL_RCC_OscConfig+0xe4>
 80013de:	e014      	b.n	800140a <HAL_RCC_OscConfig+0x12e>
        }
      }
      else
      {
        /* Get Start Tick */
        tickstart = HAL_GetTick();
 80013e0:	f7ff fbd8 	bl	8000b94 <HAL_GetTick>
 80013e4:	6138      	str	r0, [r7, #16]

        /* Wait till HSE is disabled */
        while (__HAL_RCC_GET_FLAG(RCC_FLAG_HSERDY) != RESET)
 80013e6:	e008      	b.n	80013fa <HAL_RCC_OscConfig+0x11e>
        {
          if ((HAL_GetTick() - tickstart) > HSE_TIMEOUT_VALUE)
 80013e8:	f7ff fbd4 	bl	8000b94 <HAL_GetTick>
 80013ec:	4602      	mov	r2, r0
 80013ee:	693b      	ldr	r3, [r7, #16]
 80013f0:	1ad3      	subs	r3, r2, r3
 80013f2:	2b64      	cmp	r3, #100	@ 0x64
 80013f4:	d901      	bls.n	80013fa <HAL_RCC_OscConfig+0x11e>
          {
            return HAL_TIMEOUT;
 80013f6:	2303      	movs	r3, #3
 80013f8:	e1ec      	b.n	80017d4 <HAL_RCC_OscConfig+0x4f8>
        while (__HAL_RCC_GET_FLAG(RCC_FLAG_HSERDY) != RESET)
 80013fa:	4b53      	ldr	r3, [pc, #332]	@ (8001548 <HAL_RCC_OscConfig+0x26c>)
 80013fc:	681b      	ldr	r3, [r3, #0]
 80013fe:	f403 3300 	and.w	r3, r3, #131072	@ 0x20000
 8001402:	2b00      	cmp	r3, #0
 8001404:	d1f0      	bne.n	80013e8 <HAL_RCC_OscConfig+0x10c>
 8001406:	e000      	b.n	800140a <HAL_RCC_OscConfig+0x12e>
      if ((__HAL_RCC_GET_FLAG(RCC_FLAG_HSERDY) != RESET) && (RCC_OscInitStruct->HSEState == RCC_HSE_OFF))
 8001408:	bf00      	nop
        }
      }
    }
  }
  /*----------------------------- HSI Configuration --------------------------*/
  if (((RCC_OscInitStruct->OscillatorType) & RCC_OSCILLATORTYPE_HSI) == RCC_OSCILLATORTYPE_HSI)
 800140a:	687b      	ldr	r3, [r7, #4]
 800140c:	681b      	ldr	r3, [r3, #0]
 800140e:	f003 0302 	and.w	r3, r3, #2
 8001412:	2b00      	cmp	r3, #0
 8001414:	d063      	beq.n	80014de <HAL_RCC_OscConfig+0x202>
    /* Check the parameters */
    assert_param(IS_RCC_HSI(RCC_OscInitStruct->HSIState));
    assert_param(IS_RCC_CALIBRATION_VALUE(RCC_OscInitStruct->HSICalibrationValue));

    /* Check if HSI is used as system clock or as PLL source when PLL is selected as system clock */
    if ((__HAL_RCC_GET_SYSCLK_SOURCE() == RCC_SYSCLKSOURCE_STATUS_HSI)
 8001416:	4b4c      	ldr	r3, [pc, #304]	@ (8001548 <HAL_RCC_OscConfig+0x26c>)
 8001418:	685b      	ldr	r3, [r3, #4]
 800141a:	f003 030c 	and.w	r3, r3, #12
 800141e:	2b00      	cmp	r3, #0
 8001420:	d00b      	beq.n	800143a <HAL_RCC_OscConfig+0x15e>
        || ((__HAL_RCC_GET_SYSCLK_SOURCE() == RCC_SYSCLKSOURCE_STATUS_PLLCLK) && (__HAL_RCC_GET_PLL_OSCSOURCE() == RCC_PLLSOURCE_HSI_DIV2)))
 8001422:	4b49      	ldr	r3, [pc, #292]	@ (8001548 <HAL_RCC_OscConfig+0x26c>)
 8001424:	685b      	ldr	r3, [r3, #4]
 8001426:	f003 030c 	and.w	r3, r3, #12
 800142a:	2b08      	cmp	r3, #8
 800142c:	d11c      	bne.n	8001468 <HAL_RCC_OscConfig+0x18c>
 800142e:	4b46      	ldr	r3, [pc, #280]	@ (8001548 <HAL_RCC_OscConfig+0x26c>)
 8001430:	685b      	ldr	r3, [r3, #4]
 8001432:	f403 3380 	and.w	r3, r3, #65536	@ 0x10000
 8001436:	2b00      	cmp	r3, #0
 8001438:	d116      	bne.n	8001468 <HAL_RCC_OscConfig+0x18c>
    {
      /* When HSI is used as system clock it will not disabled */
      if ((__HAL_RCC_GET_FLAG(RCC_FLAG_HSIRDY) != RESET) && (RCC_OscInitStruct->HSIState != RCC_HSI_ON))
 800143a:	4b43      	ldr	r3, [pc, #268]	@ (8001548 <HAL_RCC_OscConfig+0x26c>)
 800143c:	681b      	ldr	r3, [r3, #0]
 800143e:	f003 0302 	and.w	r3, r3, #2
 8001442:	2b00      	cmp	r3, #0
 8001444:	d005      	beq.n	8001452 <HAL_RCC_OscConfig+0x176>
 8001446:	687b      	ldr	r3, [r7, #4]
 8001448:	691b      	ldr	r3, [r3, #16]
 800144a:	2b01      	cmp	r3, #1
 800144c:	d001      	beq.n	8001452 <HAL_RCC_OscConfig+0x176>
      {
        return HAL_ERROR;
 800144e:	2301      	movs	r3, #1
 8001450:	e1c0      	b.n	80017d4 <HAL_RCC_OscConfig+0x4f8>
      }
      /* Otherwise, just the calibration is allowed */
      else
      {
        /* Adjusts the Internal High Speed oscillator (HSI) calibration value.*/
        __HAL_RCC_HSI_CALIBRATIONVALUE_ADJUST(RCC_OscInitStruct->HSICalibrationValue);
 8001452:	4b3d      	ldr	r3, [pc, #244]	@ (8001548 <HAL_RCC_OscConfig+0x26c>)
 8001454:	681b      	ldr	r3, [r3, #0]
 8001456:	f023 02f8 	bic.w	r2, r3, #248	@ 0xf8
 800145a:	687b      	ldr	r3, [r7, #4]
 800145c:	695b      	ldr	r3, [r3, #20]
 800145e:	00db      	lsls	r3, r3, #3
 8001460:	4939      	ldr	r1, [pc, #228]	@ (8001548 <HAL_RCC_OscConfig+0x26c>)
 8001462:	4313      	orrs	r3, r2
 8001464:	600b      	str	r3, [r1, #0]
      if ((__HAL_RCC_GET_FLAG(RCC_FLAG_HSIRDY) != RESET) && (RCC_OscInitStruct->HSIState != RCC_HSI_ON))
 8001466:	e03a      	b.n	80014de <HAL_RCC_OscConfig+0x202>
      }
    }
    else
    {
      /* Check the HSI State */
      if (RCC_OscInitStruct->HSIState != RCC_HSI_OFF)
 8001468:	687b      	ldr	r3, [r7, #4]
 800146a:	691b      	ldr	r3, [r3, #16]
 800146c:	2b00      	cmp	r3, #0
 800146e:	d020      	beq.n	80014b2 <HAL_RCC_OscConfig+0x1d6>
      {
        /* Enable the Internal High Speed oscillator (HSI). */
        __HAL_RCC_HSI_ENABLE();
 8001470:	4b36      	ldr	r3, [pc, #216]	@ (800154c <HAL_RCC_OscConfig+0x270>)
 8001472:	2201      	movs	r2, #1
 8001474:	601a      	str	r2, [r3, #0]

        /* Get Start Tick */
        tickstart = HAL_GetTick();
 8001476:	f7ff fb8d 	bl	8000b94 <HAL_GetTick>
 800147a:	6138      	str	r0, [r7, #16]

        /* Wait till HSI is ready */
        while (__HAL_RCC_GET_FLAG(RCC_FLAG_HSIRDY) == RESET)
 800147c:	e008      	b.n	8001490 <HAL_RCC_OscConfig+0x1b4>
        {
          if ((HAL_GetTick() - tickstart) > HSI_TIMEOUT_VALUE)
 800147e:	f7ff fb89 	bl	8000b94 <HAL_GetTick>
 8001482:	4602      	mov	r2, r0
 8001484:	693b      	ldr	r3, [r7, #16]
 8001486:	1ad3      	subs	r3, r2, r3
 8001488:	2b02      	cmp	r3, #2
 800148a:	d901      	bls.n	8001490 <HAL_RCC_OscConfig+0x1b4>
          {
            return HAL_TIMEOUT;
 800148c:	2303      	movs	r3, #3
 800148e:	e1a1      	b.n	80017d4 <HAL_RCC_OscConfig+0x4f8>
        while (__HAL_RCC_GET_FLAG(RCC_FLAG_HSIRDY) == RESET)
 8001490:	4b2d      	ldr	r3, [pc, #180]	@ (8001548 <HAL_RCC_OscConfig+0x26c>)
 8001492:	681b      	ldr	r3, [r3, #0]
 8001494:	f003 0302 	and.w	r3, r3, #2
 8001498:	2b00      	cmp	r3, #0
 800149a:	d0f0      	beq.n	800147e <HAL_RCC_OscConfig+0x1a2>
          }
        }

        /* Adjusts the Internal High Speed oscillator (HSI) calibration value.*/
        __HAL_RCC_HSI_CALIBRATIONVALUE_ADJUST(RCC_OscInitStruct->HSICalibrationValue);
 800149c:	4b2a      	ldr	r3, [pc, #168]	@ (8001548 <HAL_RCC_OscConfig+0x26c>)
 800149e:	681b      	ldr	r3, [r3, #0]
 80014a0:	f023 02f8 	bic.w	r2, r3, #248	@ 0xf8
 80014a4:	687b      	ldr	r3, [r7, #4]
 80014a6:	695b      	ldr	r3, [r3, #20]
 80014a8:	00db      	lsls	r3, r3, #3
 80014aa:	4927      	ldr	r1, [pc, #156]	@ (8001548 <HAL_RCC_OscConfig+0x26c>)
 80014ac:	4313      	orrs	r3, r2
 80014ae:	600b      	str	r3, [r1, #0]
 80014b0:	e015      	b.n	80014de <HAL_RCC_OscConfig+0x202>
      }
      else
      {
        /* Disable the Internal High Speed oscillator (HSI). */
        __HAL_RCC_HSI_DISABLE();
 80014b2:	4b26      	ldr	r3, [pc, #152]	@ (800154c <HAL_RCC_OscConfig+0x270>)
 80014b4:	2200      	movs	r2, #0
 80014b6:	601a      	str	r2, [r3, #0]

        /* Get Start Tick */
        tickstart = HAL_GetTick();
 80014b8:	f7ff fb6c 	bl	8000b94 <HAL_GetTick>
 80014bc:	6138      	str	r0, [r7, #16]

        /* Wait till HSI is disabled */
        while (__HAL_RCC_GET_FLAG(RCC_FLAG_HSIRDY) != RESET)
 80014be:	e008      	b.n	80014d2 <HAL_RCC_OscConfig+0x1f6>
        {
          if ((HAL_GetTick() - tickstart) > HSI_TIMEOUT_VALUE)
 80014c0:	f7ff fb68 	bl	8000b94 <HAL_GetTick>
 80014c4:	4602      	mov	r2, r0
 80014c6:	693b      	ldr	r3, [r7, #16]
 80014c8:	1ad3      	subs	r3, r2, r3
 80014ca:	2b02      	cmp	r3, #2
 80014cc:	d901      	bls.n	80014d2 <HAL_RCC_OscConfig+0x1f6>
          {
            return HAL_TIMEOUT;
 80014ce:	2303      	movs	r3, #3
 80014d0:	e180      	b.n	80017d4 <HAL_RCC_OscConfig+0x4f8>
        while (__HAL_RCC_GET_FLAG(RCC_FLAG_HSIRDY) != RESET)
 80014d2:	4b1d      	ldr	r3, [pc, #116]	@ (8001548 <HAL_RCC_OscConfig+0x26c>)
 80014d4:	681b      	ldr	r3, [r3, #0]
 80014d6:	f003 0302 	and.w	r3, r3, #2
 80014da:	2b00      	cmp	r3, #0
 80014dc:	d1f0      	bne.n	80014c0 <HAL_RCC_OscConfig+0x1e4>
        }
      }
    }
  }
  /*------------------------------ LSI Configuration -------------------------*/
  if (((RCC_OscInitStruct->OscillatorType) & RCC_OSCILLATORTYPE_LSI) == RCC_OSCILLATORTYPE_LSI)
 80014de:	687b      	ldr	r3, [r7, #4]
 80014e0:	681b      	ldr	r3, [r3, #0]
 80014e2:	f003 0308 	and.w	r3, r3, #8
 80014e6:	2b00      	cmp	r3, #0
 80014e8:	d03a      	beq.n	8001560 <HAL_RCC_OscConfig+0x284>
  {
    /* Check the parameters */
    assert_param(IS_RCC_LSI(RCC_OscInitStruct->LSIState));

    /* Check the LSI State */
    if (RCC_OscInitStruct->LSIState != RCC_LSI_OFF)
 80014ea:	687b      	ldr	r3, [r7, #4]
 80014ec:	699b      	ldr	r3, [r3, #24]
 80014ee:	2b00      	cmp	r3, #0
 80014f0:	d019      	beq.n	8001526 <HAL_RCC_OscConfig+0x24a>
    {
      /* Enable the Internal Low Speed oscillator (LSI). */
      __HAL_RCC_LSI_ENABLE();
 80014f2:	4b17      	ldr	r3, [pc, #92]	@ (8001550 <HAL_RCC_OscConfig+0x274>)
 80014f4:	2201      	movs	r2, #1
 80014f6:	601a      	str	r2, [r3, #0]

      /* Get Start Tick */
      tickstart = HAL_GetTick();
 80014f8:	f7ff fb4c 	bl	8000b94 <HAL_GetTick>
 80014fc:	6138      	str	r0, [r7, #16]

      /* Wait till LSI is ready */
      while (__HAL_RCC_GET_FLAG(RCC_FLAG_LSIRDY) == RESET)
 80014fe:	e008      	b.n	8001512 <HAL_RCC_OscConfig+0x236>
      {
        if ((HAL_GetTick() - tickstart) > LSI_TIMEOUT_VALUE)
 8001500:	f7ff fb48 	bl	8000b94 <HAL_GetTick>
 8001504:	4602      	mov	r2, r0
 8001506:	693b      	ldr	r3, [r7, #16]
 8001508:	1ad3      	subs	r3, r2, r3
 800150a:	2b02      	cmp	r3, #2
 800150c:	d901      	bls.n	8001512 <HAL_RCC_OscConfig+0x236>
        {
          return HAL_TIMEOUT;
 800150e:	2303      	movs	r3, #3
 8001510:	e160      	b.n	80017d4 <HAL_RCC_OscConfig+0x4f8>
      while (__HAL_RCC_GET_FLAG(RCC_FLAG_LSIRDY) == RESET)
 8001512:	4b0d      	ldr	r3, [pc, #52]	@ (8001548 <HAL_RCC_OscConfig+0x26c>)
 8001514:	6a5b      	ldr	r3, [r3, #36]	@ 0x24
 8001516:	f003 0302 	and.w	r3, r3, #2
 800151a:	2b00      	cmp	r3, #0
 800151c:	d0f0      	beq.n	8001500 <HAL_RCC_OscConfig+0x224>
        }
      }
      /*  To have a fully stabilized clock in the specified range, a software delay of 1ms
          should be added.*/
      RCC_Delay(1);
 800151e:	2001      	movs	r0, #1
 8001520:	f000 face 	bl	8001ac0 <RCC_Delay>
 8001524:	e01c      	b.n	8001560 <HAL_RCC_OscConfig+0x284>
    }
    else
    {
      /* Disable the Internal Low Speed oscillator (LSI). */
      __HAL_RCC_LSI_DISABLE();
 8001526:	4b0a      	ldr	r3, [pc, #40]	@ (8001550 <HAL_RCC_OscConfig+0x274>)
 8001528:	2200      	movs	r2, #0
 800152a:	601a      	str	r2, [r3, #0]

      /* Get Start Tick */
      tickstart = HAL_GetTick();
 800152c:	f7ff fb32 	bl	8000b94 <HAL_GetTick>
 8001530:	6138      	str	r0, [r7, #16]

      /* Wait till LSI is disabled */
      while (__HAL_RCC_GET_FLAG(RCC_FLAG_LSIRDY) != RESET)
 8001532:	e00f      	b.n	8001554 <HAL_RCC_OscConfig+0x278>
      {
        if ((HAL_GetTick() - tickstart) > LSI_TIMEOUT_VALUE)
 8001534:	f7ff fb2e 	bl	8000b94 <HAL_GetTick>
 8001538:	4602      	mov	r2, r0
 800153a:	693b      	ldr	r3, [r7, #16]
 800153c:	1ad3      	subs	r3, r2, r3
 800153e:	2b02      	cmp	r3, #2
 8001540:	d908      	bls.n	8001554 <HAL_RCC_OscConfig+0x278>
        {
          return HAL_TIMEOUT;
 8001542:	2303      	movs	r3, #3
 8001544:	e146      	b.n	80017d4 <HAL_RCC_OscConfig+0x4f8>
 8001546:	bf00      	nop
 8001548:	40021000 	.word	0x40021000
 800154c:	42420000 	.word	0x42420000
 8001550:	42420480 	.word	0x42420480
      while (__HAL_RCC_GET_FLAG(RCC_FLAG_LSIRDY) != RESET)
 8001554:	4b92      	ldr	r3, [pc, #584]	@ (80017a0 <HAL_RCC_OscConfig+0x4c4>)
 8001556:	6a5b      	ldr	r3, [r3, #36]	@ 0x24
 8001558:	f003 0302 	and.w	r3, r3, #2
 800155c:	2b00      	cmp	r3, #0
 800155e:	d1e9      	bne.n	8001534 <HAL_RCC_OscConfig+0x258>
        }
      }
    }
  }
  /*------------------------------ LSE Configuration -------------------------*/
  if (((RCC_OscInitStruct->OscillatorType) & RCC_OSCILLATORTYPE_LSE) == RCC_OSCILLATORTYPE_LSE)
 8001560:	687b      	ldr	r3, [r7, #4]
 8001562:	681b      	ldr	r3, [r3, #0]
 8001564:	f003 0304 	and.w	r3, r3, #4
 8001568:	2b00      	cmp	r3, #0
 800156a:	f000 80a6 	beq.w	80016ba <HAL_RCC_OscConfig+0x3de>
  {
    FlagStatus       pwrclkchanged = RESET;
 800156e:	2300      	movs	r3, #0
 8001570:	75fb      	strb	r3, [r7, #23]
    /* Check the parameters */
    assert_param(IS_RCC_LSE(RCC_OscInitStruct->LSEState));

    /* Update LSE configuration in Backup Domain control register    */
    /* Requires to enable write access to Backup Domain of necessary */
    if (__HAL_RCC_PWR_IS_CLK_DISABLED())
 8001572:	4b8b      	ldr	r3, [pc, #556]	@ (80017a0 <HAL_RCC_OscConfig+0x4c4>)
 8001574:	69db      	ldr	r3, [r3, #28]
 8001576:	f003 5380 	and.w	r3, r3, #268435456	@ 0x10000000
 800157a:	2b00      	cmp	r3, #0
 800157c:	d10d      	bne.n	800159a <HAL_RCC_OscConfig+0x2be>
    {
      __HAL_RCC_PWR_CLK_ENABLE();
 800157e:	4b88      	ldr	r3, [pc, #544]	@ (80017a0 <HAL_RCC_OscConfig+0x4c4>)
 8001580:	69db      	ldr	r3, [r3, #28]
 8001582:	4a87      	ldr	r2, [pc, #540]	@ (80017a0 <HAL_RCC_OscConfig+0x4c4>)
 8001584:	f043 5380 	orr.w	r3, r3, #268435456	@ 0x10000000
 8001588:	61d3      	str	r3, [r2, #28]
 800158a:	4b85      	ldr	r3, [pc, #532]	@ (80017a0 <HAL_RCC_OscConfig+0x4c4>)
 800158c:	69db      	ldr	r3, [r3, #28]
 800158e:	f003 5380 	and.w	r3, r3, #268435456	@ 0x10000000
 8001592:	60bb      	str	r3, [r7, #8]
 8001594:	68bb      	ldr	r3, [r7, #8]
      pwrclkchanged = SET;
 8001596:	2301      	movs	r3, #1
 8001598:	75fb      	strb	r3, [r7, #23]
    }

    if (HAL_IS_BIT_CLR(PWR->CR, PWR_CR_DBP))
 800159a:	4b82      	ldr	r3, [pc, #520]	@ (80017a4 <HAL_RCC_OscConfig+0x4c8>)
 800159c:	681b      	ldr	r3, [r3, #0]
 800159e:	f403 7380 	and.w	r3, r3, #256	@ 0x100
 80015a2:	2b00      	cmp	r3, #0
 80015a4:	d118      	bne.n	80015d8 <HAL_RCC_OscConfig+0x2fc>
    {
      /* Enable write access to Backup domain */
      SET_BIT(PWR->CR, PWR_CR_DBP);
 80015a6:	4b7f      	ldr	r3, [pc, #508]	@ (80017a4 <HAL_RCC_OscConfig+0x4c8>)
 80015a8:	681b      	ldr	r3, [r3, #0]
 80015aa:	4a7e      	ldr	r2, [pc, #504]	@ (80017a4 <HAL_RCC_OscConfig+0x4c8>)
 80015ac:	f443 7380 	orr.w	r3, r3, #256	@ 0x100
 80015b0:	6013      	str	r3, [r2, #0]

      /* Wait for Backup domain Write protection disable */
      tickstart = HAL_GetTick();
 80015b2:	f7ff faef 	bl	8000b94 <HAL_GetTick>
 80015b6:	6138      	str	r0, [r7, #16]

      while (HAL_IS_BIT_CLR(PWR->CR, PWR_CR_DBP))
 80015b8:	e008      	b.n	80015cc <HAL_RCC_OscConfig+0x2f0>
      {
        if ((HAL_GetTick() - tickstart) > RCC_DBP_TIMEOUT_VALUE)
 80015ba:	f7ff faeb 	bl	8000b94 <HAL_GetTick>
 80015be:	4602      	mov	r2, r0
 80015c0:	693b      	ldr	r3, [r7, #16]
 80015c2:	1ad3      	subs	r3, r2, r3
 80015c4:	2b64      	cmp	r3, #100	@ 0x64
 80015c6:	d901      	bls.n	80015cc <HAL_RCC_OscConfig+0x2f0>
        {
          return HAL_TIMEOUT;
 80015c8:	2303      	movs	r3, #3
 80015ca:	e103      	b.n	80017d4 <HAL_RCC_OscConfig+0x4f8>
      while (HAL_IS_BIT_CLR(PWR->CR, PWR_CR_DBP))
 80015cc:	4b75      	ldr	r3, [pc, #468]	@ (80017a4 <HAL_RCC_OscConfig+0x4c8>)
 80015ce:	681b      	ldr	r3, [r3, #0]
 80015d0:	f403 7380 	and.w	r3, r3, #256	@ 0x100
 80015d4:	2b00      	cmp	r3, #0
 80015d6:	d0f0      	beq.n	80015ba <HAL_RCC_OscConfig+0x2de>
        }
      }
    }

    /* Set the new LSE configuration -----------------------------------------*/
    __HAL_RCC_LSE_CONFIG(RCC_OscInitStruct->LSEState);
 80015d8:	687b      	ldr	r3, [r7, #4]
 80015da:	68db      	ldr	r3, [r3, #12]
 80015dc:	2b01      	cmp	r3, #1
 80015de:	d106      	bne.n	80015ee <HAL_RCC_OscConfig+0x312>
 80015e0:	4b6f      	ldr	r3, [pc, #444]	@ (80017a0 <HAL_RCC_OscConfig+0x4c4>)
 80015e2:	6a1b      	ldr	r3, [r3, #32]
 80015e4:	4a6e      	ldr	r2, [pc, #440]	@ (80017a0 <HAL_RCC_OscConfig+0x4c4>)
 80015e6:	f043 0301 	orr.w	r3, r3, #1
 80015ea:	6213      	str	r3, [r2, #32]
 80015ec:	e02d      	b.n	800164a <HAL_RCC_OscConfig+0x36e>
 80015ee:	687b      	ldr	r3, [r7, #4]
 80015f0:	68db      	ldr	r3, [r3, #12]
 80015f2:	2b00      	cmp	r3, #0
 80015f4:	d10c      	bne.n	8001610 <HAL_RCC_OscConfig+0x334>
 80015f6:	4b6a      	ldr	r3, [pc, #424]	@ (80017a0 <HAL_RCC_OscConfig+0x4c4>)
 80015f8:	6a1b      	ldr	r3, [r3, #32]
 80015fa:	4a69      	ldr	r2, [pc, #420]	@ (80017a0 <HAL_RCC_OscConfig+0x4c4>)
 80015fc:	f023 0301 	bic.w	r3, r3, #1
 8001600:	6213      	str	r3, [r2, #32]
 8001602:	4b67      	ldr	r3, [pc, #412]	@ (80017a0 <HAL_RCC_OscConfig+0x4c4>)
 8001604:	6a1b      	ldr	r3, [r3, #32]
 8001606:	4a66      	ldr	r2, [pc, #408]	@ (80017a0 <HAL_RCC_OscConfig+0x4c4>)
 8001608:	f023 0304 	bic.w	r3, r3, #4
 800160c:	6213      	str	r3, [r2, #32]
 800160e:	e01c      	b.n	800164a <HAL_RCC_OscConfig+0x36e>
 8001610:	687b      	ldr	r3, [r7, #4]
 8001612:	68db      	ldr	r3, [r3, #12]
 8001614:	2b05      	cmp	r3, #5
 8001616:	d10c      	bne.n	8001632 <HAL_RCC_OscConfig+0x356>
 8001618:	4b61      	ldr	r3, [pc, #388]	@ (80017a0 <HAL_RCC_OscConfig+0x4c4>)
 800161a:	6a1b      	ldr	r3, [r3, #32]
 800161c:	4a60      	ldr	r2, [pc, #384]	@ (80017a0 <HAL_RCC_OscConfig+0x4c4>)
 800161e:	f043 0304 	orr.w	r3, r3, #4
 8001622:	6213      	str	r3, [r2, #32]
 8001624:	4b5e      	ldr	r3, [pc, #376]	@ (80017a0 <HAL_RCC_OscConfig+0x4c4>)
 8001626:	6a1b      	ldr	r3, [r3, #32]
 8001628:	4a5d      	ldr	r2, [pc, #372]	@ (80017a0 <HAL_RCC_OscConfig+0x4c4>)
 800162a:	f043 0301 	orr.w	r3, r3, #1
 800162e:	6213      	str	r3, [r2, #32]
 8001630:	e00b      	b.n	800164a <HAL_RCC_OscConfig+0x36e>
 8001632:	4b5b      	ldr	r3, [pc, #364]	@ (80017a0 <HAL_RCC_OscConfig+0x4c4>)
 8001634:	6a1b      	ldr	r3, [r3, #32]
 8001636:	4a5a      	ldr	r2, [pc, #360]	@ (80017a0 <HAL_RCC_OscConfig+0x4c4>)
 8001638:	f023 0301 	bic.w	r3, r3, #1
 800163c:	6213      	str	r3, [r2, #32]
 800163e:	4b58      	ldr	r3, [pc, #352]	@ (80017a0 <HAL_RCC_OscConfig+0x4c4>)
 8001640:	6a1b      	ldr	r3, [r3, #32]
 8001642:	4a57      	ldr	r2, [pc, #348]	@ (80017a0 <HAL_RCC_OscConfig+0x4c4>)
 8001644:	f023 0304 	bic.w	r3, r3, #4
 8001648:	6213      	str	r3, [r2, #32]
    /* Check the LSE State */
    if (RCC_OscInitStruct->LSEState != RCC_LSE_OFF)
 800164a:	687b      	ldr	r3, [r7, #4]
 800164c:	68db      	ldr	r3, [r3, #12]
 800164e:	2b00      	cmp	r3, #0
 8001650:	d015      	beq.n	800167e <HAL_RCC_OscConfig+0x3a2>
    {
      /* Get Start Tick */
      tickstart = HAL_GetTick();
 8001652:	f7ff fa9f 	bl	8000b94 <HAL_GetTick>
 8001656:	6138      	str	r0, [r7, #16]

      /* Wait till LSE is ready */
      while (__HAL_RCC_GET_FLAG(RCC_FLAG_LSERDY) == RESET)
 8001658:	e00a      	b.n	8001670 <HAL_RCC_OscConfig+0x394>
      {
        if ((HAL_GetTick() - tickstart) > RCC_LSE_TIMEOUT_VALUE)
 800165a:	f7ff fa9b 	bl	8000b94 <HAL_GetTick>
 800165e:	4602      	mov	r2, r0
 8001660:	693b      	ldr	r3, [r7, #16]
 8001662:	1ad3      	subs	r3, r2, r3
 8001664:	f241 3288 	movw	r2, #5000	@ 0x1388
 8001668:	4293      	cmp	r3, r2
 800166a:	d901      	bls.n	8001670 <HAL_RCC_OscConfig+0x394>
        {
          return HAL_TIMEOUT;
 800166c:	2303      	movs	r3, #3
 800166e:	e0b1      	b.n	80017d4 <HAL_RCC_OscConfig+0x4f8>
      while (__HAL_RCC_GET_FLAG(RCC_FLAG_LSERDY) == RESET)
 8001670:	4b4b      	ldr	r3, [pc, #300]	@ (80017a0 <HAL_RCC_OscConfig+0x4c4>)
 8001672:	6a1b      	ldr	r3, [r3, #32]
 8001674:	f003 0302 	and.w	r3, r3, #2
 8001678:	2b00      	cmp	r3, #0
 800167a:	d0ee      	beq.n	800165a <HAL_RCC_OscConfig+0x37e>
 800167c:	e014      	b.n	80016a8 <HAL_RCC_OscConfig+0x3cc>
      }
    }
    else
    {
      /* Get Start Tick */
      tickstart = HAL_GetTick();
 800167e:	f7ff fa89 	bl	8000b94 <HAL_GetTick>
 8001682:	6138      	str	r0, [r7, #16]

      /* Wait till LSE is disabled */
      while (__HAL_RCC_GET_FLAG(RCC_FLAG_LSERDY) != RESET)
 8001684:	e00a      	b.n	800169c <HAL_RCC_OscConfig+0x3c0>
      {
        if ((HAL_GetTick() - tickstart) > RCC_LSE_TIMEOUT_VALUE)
 8001686:	f7ff fa85 	bl	8000b94 <HAL_GetTick>
 800168a:	4602      	mov	r2, r0
 800168c:	693b      	ldr	r3, [r7, #16]
 800168e:	1ad3      	subs	r3, r2, r3
 8001690:	f241 3288 	movw	r2, #5000	@ 0x1388
 8001694:	4293      	cmp	r3, r2
 8001696:	d901      	bls.n	800169c <HAL_RCC_OscConfig+0x3c0>
        {
          return HAL_TIMEOUT;
 8001698:	2303      	movs	r3, #3
 800169a:	e09b      	b.n	80017d4 <HAL_RCC_OscConfig+0x4f8>
      while (__HAL_RCC_GET_FLAG(RCC_FLAG_LSERDY) != RESET)
 800169c:	4b40      	ldr	r3, [pc, #256]	@ (80017a0 <HAL_RCC_OscConfig+0x4c4>)
 800169e:	6a1b      	ldr	r3, [r3, #32]
 80016a0:	f003 0302 	and.w	r3, r3, #2
 80016a4:	2b00      	cmp	r3, #0
 80016a6:	d1ee      	bne.n	8001686 <HAL_RCC_OscConfig+0x3aa>
        }
      }
    }

    /* Require to disable power clock if necessary */
    if (pwrclkchanged == SET)
 80016a8:	7dfb      	ldrb	r3, [r7, #23]
 80016aa:	2b01      	cmp	r3, #1
 80016ac:	d105      	bne.n	80016ba <HAL_RCC_OscConfig+0x3de>
    {
      __HAL_RCC_PWR_CLK_DISABLE();
 80016ae:	4b3c      	ldr	r3, [pc, #240]	@ (80017a0 <HAL_RCC_OscConfig+0x4c4>)
 80016b0:	69db      	ldr	r3, [r3, #28]
 80016b2:	4a3b      	ldr	r2, [pc, #236]	@ (80017a0 <HAL_RCC_OscConfig+0x4c4>)
 80016b4:	f023 5380 	bic.w	r3, r3, #268435456	@ 0x10000000
 80016b8:	61d3      	str	r3, [r2, #28]

#endif /* RCC_CR_PLL2ON */
  /*-------------------------------- PLL Configuration -----------------------*/
  /* Check the parameters */
  assert_param(IS_RCC_PLL(RCC_OscInitStruct->PLL.PLLState));
  if ((RCC_OscInitStruct->PLL.PLLState) != RCC_PLL_NONE)
 80016ba:	687b      	ldr	r3, [r7, #4]
 80016bc:	69db      	ldr	r3, [r3, #28]
 80016be:	2b00      	cmp	r3, #0
 80016c0:	f000 8087 	beq.w	80017d2 <HAL_RCC_OscConfig+0x4f6>
  {
    /* Check if the PLL is used as system clock or not */
    if (__HAL_RCC_GET_SYSCLK_SOURCE() != RCC_SYSCLKSOURCE_STATUS_PLLCLK)
 80016c4:	4b36      	ldr	r3, [pc, #216]	@ (80017a0 <HAL_RCC_OscConfig+0x4c4>)
 80016c6:	685b      	ldr	r3, [r3, #4]
 80016c8:	f003 030c 	and.w	r3, r3, #12
 80016cc:	2b08      	cmp	r3, #8
 80016ce:	d061      	beq.n	8001794 <HAL_RCC_OscConfig+0x4b8>
    {
      if ((RCC_OscInitStruct->PLL.PLLState) == RCC_PLL_ON)
 80016d0:	687b      	ldr	r3, [r7, #4]
 80016d2:	69db      	ldr	r3, [r3, #28]
 80016d4:	2b02      	cmp	r3, #2
 80016d6:	d146      	bne.n	8001766 <HAL_RCC_OscConfig+0x48a>
        /* Check the parameters */
        assert_param(IS_RCC_PLLSOURCE(RCC_OscInitStruct->PLL.PLLSource));
        assert_param(IS_RCC_PLL_MUL(RCC_OscInitStruct->PLL.PLLMUL));

        /* Disable the main PLL. */
        __HAL_RCC_PLL_DISABLE();
 80016d8:	4b33      	ldr	r3, [pc, #204]	@ (80017a8 <HAL_RCC_OscConfig+0x4cc>)
 80016da:	2200      	movs	r2, #0
 80016dc:	601a      	str	r2, [r3, #0]

        /* Get Start Tick */
        tickstart = HAL_GetTick();
 80016de:	f7ff fa59 	bl	8000b94 <HAL_GetTick>
 80016e2:	6138      	str	r0, [r7, #16]

        /* Wait till PLL is disabled */
        while (__HAL_RCC_GET_FLAG(RCC_FLAG_PLLRDY)  != RESET)
 80016e4:	e008      	b.n	80016f8 <HAL_RCC_OscConfig+0x41c>
        {
          if ((HAL_GetTick() - tickstart) > PLL_TIMEOUT_VALUE)
 80016e6:	f7ff fa55 	bl	8000b94 <HAL_GetTick>
 80016ea:	4602      	mov	r2, r0
 80016ec:	693b      	ldr	r3, [r7, #16]
 80016ee:	1ad3      	subs	r3, r2, r3
 80016f0:	2b02      	cmp	r3, #2
 80016f2:	d901      	bls.n	80016f8 <HAL_RCC_OscConfig+0x41c>
          {
            return HAL_TIMEOUT;
 80016f4:	2303      	movs	r3, #3
 80016f6:	e06d      	b.n	80017d4 <HAL_RCC_OscConfig+0x4f8>
        while (__HAL_RCC_GET_FLAG(RCC_FLAG_PLLRDY)  != RESET)
 80016f8:	4b29      	ldr	r3, [pc, #164]	@ (80017a0 <HAL_RCC_OscConfig+0x4c4>)
 80016fa:	681b      	ldr	r3, [r3, #0]
 80016fc:	f003 7300 	and.w	r3, r3, #33554432	@ 0x2000000
 8001700:	2b00      	cmp	r3, #0
 8001702:	d1f0      	bne.n	80016e6 <HAL_RCC_OscConfig+0x40a>
          }
        }

        /* Configure the HSE prediv factor --------------------------------*/
        /* It can be written only when the PLL is disabled. Not used in PLL source is different than HSE */
        if (RCC_OscInitStruct->PLL.PLLSource == RCC_PLLSOURCE_HSE)
 8001704:	687b      	ldr	r3, [r7, #4]
 8001706:	6a1b      	ldr	r3, [r3, #32]
 8001708:	f5b3 3f80 	cmp.w	r3, #65536	@ 0x10000
 800170c:	d108      	bne.n	8001720 <HAL_RCC_OscConfig+0x444>
          /* Set PREDIV1 source */
          SET_BIT(RCC->CFGR2, RCC_OscInitStruct->Prediv1Source);
#endif /* RCC_CFGR2_PREDIV1SRC */

          /* Set PREDIV1 Value */
          __HAL_RCC_HSE_PREDIV_CONFIG(RCC_OscInitStruct->HSEPredivValue);
 800170e:	4b24      	ldr	r3, [pc, #144]	@ (80017a0 <HAL_RCC_OscConfig+0x4c4>)
 8001710:	685b      	ldr	r3, [r3, #4]
 8001712:	f423 3200 	bic.w	r2, r3, #131072	@ 0x20000
 8001716:	687b      	ldr	r3, [r7, #4]
 8001718:	689b      	ldr	r3, [r3, #8]
 800171a:	4921      	ldr	r1, [pc, #132]	@ (80017a0 <HAL_RCC_OscConfig+0x4c4>)
 800171c:	4313      	orrs	r3, r2
 800171e:	604b      	str	r3, [r1, #4]
        }

        /* Configure the main PLL clock source and multiplication factors. */
        __HAL_RCC_PLL_CONFIG(RCC_OscInitStruct->PLL.PLLSource,
 8001720:	4b1f      	ldr	r3, [pc, #124]	@ (80017a0 <HAL_RCC_OscConfig+0x4c4>)
 8001722:	685b      	ldr	r3, [r3, #4]
 8001724:	f423 1274 	bic.w	r2, r3, #3997696	@ 0x3d0000
 8001728:	687b      	ldr	r3, [r7, #4]
 800172a:	6a19      	ldr	r1, [r3, #32]
 800172c:	687b      	ldr	r3, [r7, #4]
 800172e:	6a5b      	ldr	r3, [r3, #36]	@ 0x24
 8001730:	430b      	orrs	r3, r1
 8001732:	491b      	ldr	r1, [pc, #108]	@ (80017a0 <HAL_RCC_OscConfig+0x4c4>)
 8001734:	4313      	orrs	r3, r2
 8001736:	604b      	str	r3, [r1, #4]
                             RCC_OscInitStruct->PLL.PLLMUL);
        /* Enable the main PLL. */
        __HAL_RCC_PLL_ENABLE();
 8001738:	4b1b      	ldr	r3, [pc, #108]	@ (80017a8 <HAL_RCC_OscConfig+0x4cc>)
 800173a:	2201      	movs	r2, #1
 800173c:	601a      	str	r2, [r3, #0]

        /* Get Start Tick */
        tickstart = HAL_GetTick();
 800173e:	f7ff fa29 	bl	8000b94 <HAL_GetTick>
 8001742:	6138      	str	r0, [r7, #16]

        /* Wait till PLL is ready */
        while (__HAL_RCC_GET_FLAG(RCC_FLAG_PLLRDY)  == RESET)
 8001744:	e008      	b.n	8001758 <HAL_RCC_OscConfig+0x47c>
        {
          if ((HAL_GetTick() - tickstart) > PLL_TIMEOUT_VALUE)
 8001746:	f7ff fa25 	bl	8000b94 <HAL_GetTick>
 800174a:	4602      	mov	r2, r0
 800174c:	693b      	ldr	r3, [r7, #16]
 800174e:	1ad3      	subs	r3, r2, r3
 8001750:	2b02      	cmp	r3, #2
 8001752:	d901      	bls.n	8001758 <HAL_RCC_OscConfig+0x47c>
          {
            return HAL_TIMEOUT;
 8001754:	2303      	movs	r3, #3
 8001756:	e03d      	b.n	80017d4 <HAL_RCC_OscConfig+0x4f8>
        while (__HAL_RCC_GET_FLAG(RCC_FLAG_PLLRDY)  == RESET)
 8001758:	4b11      	ldr	r3, [pc, #68]	@ (80017a0 <HAL_RCC_OscConfig+0x4c4>)
 800175a:	681b      	ldr	r3, [r3, #0]
 800175c:	f003 7300 	and.w	r3, r3, #33554432	@ 0x2000000
 8001760:	2b00      	cmp	r3, #0
 8001762:	d0f0      	beq.n	8001746 <HAL_RCC_OscConfig+0x46a>
 8001764:	e035      	b.n	80017d2 <HAL_RCC_OscConfig+0x4f6>
        }
      }
      else
      {
        /* Disable the main PLL. */
        __HAL_RCC_PLL_DISABLE();
 8001766:	4b10      	ldr	r3, [pc, #64]	@ (80017a8 <HAL_RCC_OscConfig+0x4cc>)
 8001768:	2200      	movs	r2, #0
 800176a:	601a      	str	r2, [r3, #0]

        /* Get Start Tick */
        tickstart = HAL_GetTick();
 800176c:	f7ff fa12 	bl	8000b94 <HAL_GetTick>
 8001770:	6138      	str	r0, [r7, #16]

        /* Wait till PLL is disabled */
        while (__HAL_RCC_GET_FLAG(RCC_FLAG_PLLRDY)  != RESET)
 8001772:	e008      	b.n	8001786 <HAL_RCC_OscConfig+0x4aa>
        {
          if ((HAL_GetTick() - tickstart) > PLL_TIMEOUT_VALUE)
 8001774:	f7ff fa0e 	bl	8000b94 <HAL_GetTick>
 8001778:	4602      	mov	r2, r0
 800177a:	693b      	ldr	r3, [r7, #16]
 800177c:	1ad3      	subs	r3, r2, r3
 800177e:	2b02      	cmp	r3, #2
 8001780:	d901      	bls.n	8001786 <HAL_RCC_OscConfig+0x4aa>
          {
            return HAL_TIMEOUT;
 8001782:	2303      	movs	r3, #3
 8001784:	e026      	b.n	80017d4 <HAL_RCC_OscConfig+0x4f8>
        while (__HAL_RCC_GET_FLAG(RCC_FLAG_PLLRDY)  != RESET)
 8001786:	4b06      	ldr	r3, [pc, #24]	@ (80017a0 <HAL_RCC_OscConfig+0x4c4>)
 8001788:	681b      	ldr	r3, [r3, #0]
 800178a:	f003 7300 	and.w	r3, r3, #33554432	@ 0x2000000
 800178e:	2b00      	cmp	r3, #0
 8001790:	d1f0      	bne.n	8001774 <HAL_RCC_OscConfig+0x498>
 8001792:	e01e      	b.n	80017d2 <HAL_RCC_OscConfig+0x4f6>
      }
    }
    else
    {
      /* Check if there is a request to disable the PLL used as System clock source */
      if ((RCC_OscInitStruct->PLL.PLLState) == RCC_PLL_OFF)
 8001794:	687b      	ldr	r3, [r7, #4]
 8001796:	69db      	ldr	r3, [r3, #28]
 8001798:	2b01      	cmp	r3, #1
 800179a:	d107      	bne.n	80017ac <HAL_RCC_OscConfig+0x4d0>
      {
        return HAL_ERROR;
 800179c:	2301      	movs	r3, #1
 800179e:	e019      	b.n	80017d4 <HAL_RCC_OscConfig+0x4f8>
 80017a0:	40021000 	.word	0x40021000
 80017a4:	40007000 	.word	0x40007000
 80017a8:	42420060 	.word	0x42420060
      }
      else
      {
        /* Do not return HAL_ERROR if request repeats the current configuration */
        pll_config = RCC->CFGR;
 80017ac:	4b0b      	ldr	r3, [pc, #44]	@ (80017dc <HAL_RCC_OscConfig+0x500>)
 80017ae:	685b      	ldr	r3, [r3, #4]
 80017b0:	60fb      	str	r3, [r7, #12]
        if ((READ_BIT(pll_config, RCC_CFGR_PLLSRC) != RCC_OscInitStruct->PLL.PLLSource) ||
 80017b2:	68fb      	ldr	r3, [r7, #12]
 80017b4:	f403 3280 	and.w	r2, r3, #65536	@ 0x10000
 80017b8:	687b      	ldr	r3, [r7, #4]
 80017ba:	6a1b      	ldr	r3, [r3, #32]
 80017bc:	429a      	cmp	r2, r3
 80017be:	d106      	bne.n	80017ce <HAL_RCC_OscConfig+0x4f2>
            (READ_BIT(pll_config, RCC_CFGR_PLLMULL) != RCC_OscInitStruct->PLL.PLLMUL))
 80017c0:	68fb      	ldr	r3, [r7, #12]
 80017c2:	f403 1270 	and.w	r2, r3, #3932160	@ 0x3c0000
 80017c6:	687b      	ldr	r3, [r7, #4]
 80017c8:	6a5b      	ldr	r3, [r3, #36]	@ 0x24
        if ((READ_BIT(pll_config, RCC_CFGR_PLLSRC) != RCC_OscInitStruct->PLL.PLLSource) ||
 80017ca:	429a      	cmp	r2, r3
 80017cc:	d001      	beq.n	80017d2 <HAL_RCC_OscConfig+0x4f6>
        {
          return HAL_ERROR;
 80017ce:	2301      	movs	r3, #1
 80017d0:	e000      	b.n	80017d4 <HAL_RCC_OscConfig+0x4f8>
        }
      }
    }
  }

  return HAL_OK;
 80017d2:	2300      	movs	r3, #0
}
 80017d4:	4618      	mov	r0, r3
 80017d6:	3718      	adds	r7, #24
 80017d8:	46bd      	mov	sp, r7
 80017da:	bd80      	pop	{r7, pc}
 80017dc:	40021000 	.word	0x40021000

080017e0 <HAL_RCC_ClockConfig>:
  *         You can use @ref HAL_RCC_GetClockConfig() function to know which clock is
  *         currently used as system clock source.
  * @retval HAL status
  */
HAL_StatusTypeDef HAL_RCC_ClockConfig(RCC_ClkInitTypeDef  *RCC_ClkInitStruct, uint32_t FLatency)
{
 80017e0:	b580      	push	{r7, lr}
 80017e2:	b084      	sub	sp, #16
 80017e4:	af00      	add	r7, sp, #0
 80017e6:	6078      	str	r0, [r7, #4]
 80017e8:	6039      	str	r1, [r7, #0]
  uint32_t tickstart;

  /* Check Null pointer */
  if (RCC_ClkInitStruct == NULL)
 80017ea:	687b      	ldr	r3, [r7, #4]
 80017ec:	2b00      	cmp	r3, #0
 80017ee:	d101      	bne.n	80017f4 <HAL_RCC_ClockConfig+0x14>
  {
    return HAL_ERROR;
 80017f0:	2301      	movs	r3, #1
 80017f2:	e0d0      	b.n	8001996 <HAL_RCC_ClockConfig+0x1b6>
  must be correctly programmed according to the frequency of the CPU clock
    (HCLK) of the device. */

#if defined(FLASH_ACR_LATENCY)
  /* Increasing the number of wait states because of higher CPU frequency */
  if (FLatency > __HAL_FLASH_GET_LATENCY())
 80017f4:	4b6a      	ldr	r3, [pc, #424]	@ (80019a0 <HAL_RCC_ClockConfig+0x1c0>)
 80017f6:	681b      	ldr	r3, [r3, #0]
 80017f8:	f003 0307 	and.w	r3, r3, #7
 80017fc:	683a      	ldr	r2, [r7, #0]
 80017fe:	429a      	cmp	r2, r3
 8001800:	d910      	bls.n	8001824 <HAL_RCC_ClockConfig+0x44>
  {
    /* Program the new number of wait states to the LATENCY bits in the FLASH_ACR register */
    __HAL_FLASH_SET_LATENCY(FLatency);
 8001802:	4b67      	ldr	r3, [pc, #412]	@ (80019a0 <HAL_RCC_ClockConfig+0x1c0>)
 8001804:	681b      	ldr	r3, [r3, #0]
 8001806:	f023 0207 	bic.w	r2, r3, #7
 800180a:	4965      	ldr	r1, [pc, #404]	@ (80019a0 <HAL_RCC_ClockConfig+0x1c0>)
 800180c:	683b      	ldr	r3, [r7, #0]
 800180e:	4313      	orrs	r3, r2
 8001810:	600b      	str	r3, [r1, #0]

    /* Check that the new number of wait states is taken into account to access the Flash
    memory by reading the FLASH_ACR register */
    if (__HAL_FLASH_GET_LATENCY() != FLatency)
 8001812:	4b63      	ldr	r3, [pc, #396]	@ (80019a0 <HAL_RCC_ClockConfig+0x1c0>)
 8001814:	681b      	ldr	r3, [r3, #0]
 8001816:	f003 0307 	and.w	r3, r3, #7
 800181a:	683a      	ldr	r2, [r7, #0]
 800181c:	429a      	cmp	r2, r3
 800181e:	d001      	beq.n	8001824 <HAL_RCC_ClockConfig+0x44>
  {
    return HAL_ERROR;
 8001820:	2301      	movs	r3, #1
 8001822:	e0b8      	b.n	8001996 <HAL_RCC_ClockConfig+0x1b6>
  }
}

#endif /* FLASH_ACR_LATENCY */
/*-------------------------- HCLK Configuration --------------------------*/
if (((RCC_ClkInitStruct->ClockType) & RCC_CLOCKTYPE_HCLK) == RCC_CLOCKTYPE_HCLK)
 8001824:	687b      	ldr	r3, [r7, #4]
 8001826:	681b      	ldr	r3, [r3, #0]
 8001828:	f003 0302 	and.w	r3, r3, #2
 800182c:	2b00      	cmp	r3, #0
 800182e:	d020      	beq.n	8001872 <HAL_RCC_ClockConfig+0x92>
  {
    /* Set the highest APBx dividers in order to ensure that we do not go through
    a non-spec phase whatever we decrease or increase HCLK. */
    if (((RCC_ClkInitStruct->ClockType) & RCC_CLOCKTYPE_PCLK1) == RCC_CLOCKTYPE_PCLK1)
 8001830:	687b      	ldr	r3, [r7, #4]
 8001832:	681b      	ldr	r3, [r3, #0]
 8001834:	f003 0304 	and.w	r3, r3, #4
 8001838:	2b00      	cmp	r3, #0
 800183a:	d005      	beq.n	8001848 <HAL_RCC_ClockConfig+0x68>
    {
      MODIFY_REG(RCC->CFGR, RCC_CFGR_PPRE1, RCC_HCLK_DIV16);
 800183c:	4b59      	ldr	r3, [pc, #356]	@ (80019a4 <HAL_RCC_ClockConfig+0x1c4>)
 800183e:	685b      	ldr	r3, [r3, #4]
 8001840:	4a58      	ldr	r2, [pc, #352]	@ (80019a4 <HAL_RCC_ClockConfig+0x1c4>)
 8001842:	f443 63e0 	orr.w	r3, r3, #1792	@ 0x700
 8001846:	6053      	str	r3, [r2, #4]
    }

    if (((RCC_ClkInitStruct->ClockType) & RCC_CLOCKTYPE_PCLK2) == RCC_CLOCKTYPE_PCLK2)
 8001848:	687b      	ldr	r3, [r7, #4]
 800184a:	681b      	ldr	r3, [r3, #0]
 800184c:	f003 0308 	and.w	r3, r3, #8
 8001850:	2b00      	cmp	r3, #0
 8001852:	d005      	beq.n	8001860 <HAL_RCC_ClockConfig+0x80>
    {
      MODIFY_REG(RCC->CFGR, RCC_CFGR_PPRE2, (RCC_HCLK_DIV16 << 3));
 8001854:	4b53      	ldr	r3, [pc, #332]	@ (80019a4 <HAL_RCC_ClockConfig+0x1c4>)
 8001856:	685b      	ldr	r3, [r3, #4]
 8001858:	4a52      	ldr	r2, [pc, #328]	@ (80019a4 <HAL_RCC_ClockConfig+0x1c4>)
 800185a:	f443 5360 	orr.w	r3, r3, #14336	@ 0x3800
 800185e:	6053      	str	r3, [r2, #4]
    }

    /* Set the new HCLK clock divider */
    assert_param(IS_RCC_HCLK(RCC_ClkInitStruct->AHBCLKDivider));
    MODIFY_REG(RCC->CFGR, RCC_CFGR_HPRE, RCC_ClkInitStruct->AHBCLKDivider);
 8001860:	4b50      	ldr	r3, [pc, #320]	@ (80019a4 <HAL_RCC_ClockConfig+0x1c4>)
 8001862:	685b      	ldr	r3, [r3, #4]
 8001864:	f023 02f0 	bic.w	r2, r3, #240	@ 0xf0
 8001868:	687b      	ldr	r3, [r7, #4]
 800186a:	689b      	ldr	r3, [r3, #8]
 800186c:	494d      	ldr	r1, [pc, #308]	@ (80019a4 <HAL_RCC_ClockConfig+0x1c4>)
 800186e:	4313      	orrs	r3, r2
 8001870:	604b      	str	r3, [r1, #4]
  }

  /*------------------------- SYSCLK Configuration ---------------------------*/
  if (((RCC_ClkInitStruct->ClockType) & RCC_CLOCKTYPE_SYSCLK) == RCC_CLOCKTYPE_SYSCLK)
 8001872:	687b      	ldr	r3, [r7, #4]
 8001874:	681b      	ldr	r3, [r3, #0]
 8001876:	f003 0301 	and.w	r3, r3, #1
 800187a:	2b00      	cmp	r3, #0
 800187c:	d040      	beq.n	8001900 <HAL_RCC_ClockConfig+0x120>
  {
    assert_param(IS_RCC_SYSCLKSOURCE(RCC_ClkInitStruct->SYSCLKSource));

    /* HSE is selected as System Clock Source */
    if (RCC_ClkInitStruct->SYSCLKSource == RCC_SYSCLKSOURCE_HSE)
 800187e:	687b      	ldr	r3, [r7, #4]
 8001880:	685b      	ldr	r3, [r3, #4]
 8001882:	2b01      	cmp	r3, #1
 8001884:	d107      	bne.n	8001896 <HAL_RCC_ClockConfig+0xb6>
    {
      /* Check the HSE ready flag */
      if (__HAL_RCC_GET_FLAG(RCC_FLAG_HSERDY) == RESET)
 8001886:	4b47      	ldr	r3, [pc, #284]	@ (80019a4 <HAL_RCC_ClockConfig+0x1c4>)
 8001888:	681b      	ldr	r3, [r3, #0]
 800188a:	f403 3300 	and.w	r3, r3, #131072	@ 0x20000
 800188e:	2b00      	cmp	r3, #0
 8001890:	d115      	bne.n	80018be <HAL_RCC_ClockConfig+0xde>
      {
        return HAL_ERROR;
 8001892:	2301      	movs	r3, #1
 8001894:	e07f      	b.n	8001996 <HAL_RCC_ClockConfig+0x1b6>
      }
    }
    /* PLL is selected as System Clock Source */
    else if (RCC_ClkInitStruct->SYSCLKSource == RCC_SYSCLKSOURCE_PLLCLK)
 8001896:	687b      	ldr	r3, [r7, #4]
 8001898:	685b      	ldr	r3, [r3, #4]
 800189a:	2b02      	cmp	r3, #2
 800189c:	d107      	bne.n	80018ae <HAL_RCC_ClockConfig+0xce>
    {
      /* Check the PLL ready flag */
      if (__HAL_RCC_GET_FLAG(RCC_FLAG_PLLRDY) == RESET)
 800189e:	4b41      	ldr	r3, [pc, #260]	@ (80019a4 <HAL_RCC_ClockConfig+0x1c4>)
 80018a0:	681b      	ldr	r3, [r3, #0]
 80018a2:	f003 7300 	and.w	r3, r3, #33554432	@ 0x2000000
 80018a6:	2b00      	cmp	r3, #0
 80018a8:	d109      	bne.n	80018be <HAL_RCC_ClockConfig+0xde>
      {
        return HAL_ERROR;
 80018aa:	2301      	movs	r3, #1
 80018ac:	e073      	b.n	8001996 <HAL_RCC_ClockConfig+0x1b6>
    }
    /* HSI is selected as System Clock Source */
    else
    {
      /* Check the HSI ready flag */
      if (__HAL_RCC_GET_FLAG(RCC_FLAG_HSIRDY) == RESET)
 80018ae:	4b3d      	ldr	r3, [pc, #244]	@ (80019a4 <HAL_RCC_ClockConfig+0x1c4>)
 80018b0:	681b      	ldr	r3, [r3, #0]
 80018b2:	f003 0302 	and.w	r3, r3, #2
 80018b6:	2b00      	cmp	r3, #0
 80018b8:	d101      	bne.n	80018be <HAL_RCC_ClockConfig+0xde>
      {
        return HAL_ERROR;
 80018ba:	2301      	movs	r3, #1
 80018bc:	e06b      	b.n	8001996 <HAL_RCC_ClockConfig+0x1b6>
      }
    }
    __HAL_RCC_SYSCLK_CONFIG(RCC_ClkInitStruct->SYSCLKSource);
 80018be:	4b39      	ldr	r3, [pc, #228]	@ (80019a4 <HAL_RCC_ClockConfig+0x1c4>)
 80018c0:	685b      	ldr	r3, [r3, #4]
 80018c2:	f023 0203 	bic.w	r2, r3, #3
 80018c6:	687b      	ldr	r3, [r7, #4]
 80018c8:	685b      	ldr	r3, [r3, #4]
 80018ca:	4936      	ldr	r1, [pc, #216]	@ (80019a4 <HAL_RCC_ClockConfig+0x1c4>)
 80018cc:	4313      	orrs	r3, r2
 80018ce:	604b      	str	r3, [r1, #4]

    /* Get Start Tick */
    tickstart = HAL_GetTick();
 80018d0:	f7ff f960 	bl	8000b94 <HAL_GetTick>
 80018d4:	60f8      	str	r0, [r7, #12]

    while (__HAL_RCC_GET_SYSCLK_SOURCE() != (RCC_ClkInitStruct->SYSCLKSource << RCC_CFGR_SWS_Pos))
 80018d6:	e00a      	b.n	80018ee <HAL_RCC_ClockConfig+0x10e>
    {
      if ((HAL_GetTick() - tickstart) > CLOCKSWITCH_TIMEOUT_VALUE)
 80018d8:	f7ff f95c 	bl	8000b94 <HAL_GetTick>
 80018dc:	4602      	mov	r2, r0
 80018de:	68fb      	ldr	r3, [r7, #12]
 80018e0:	1ad3      	subs	r3, r2, r3
 80018e2:	f241 3288 	movw	r2, #5000	@ 0x1388
 80018e6:	4293      	cmp	r3, r2
 80018e8:	d901      	bls.n	80018ee <HAL_RCC_ClockConfig+0x10e>
      {
        return HAL_TIMEOUT;
 80018ea:	2303      	movs	r3, #3
 80018ec:	e053      	b.n	8001996 <HAL_RCC_ClockConfig+0x1b6>
    while (__HAL_RCC_GET_SYSCLK_SOURCE() != (RCC_ClkInitStruct->SYSCLKSource << RCC_CFGR_SWS_Pos))
 80018ee:	4b2d      	ldr	r3, [pc, #180]	@ (80019a4 <HAL_RCC_ClockConfig+0x1c4>)
 80018f0:	685b      	ldr	r3, [r3, #4]
 80018f2:	f003 020c 	and.w	r2, r3, #12
 80018f6:	687b      	ldr	r3, [r7, #4]
 80018f8:	685b      	ldr	r3, [r3, #4]
 80018fa:	009b      	lsls	r3, r3, #2
 80018fc:	429a      	cmp	r2, r3
 80018fe:	d1eb      	bne.n	80018d8 <HAL_RCC_ClockConfig+0xf8>
    }
  }

#if defined(FLASH_ACR_LATENCY)
  /* Decreasing the number of wait states because of lower CPU frequency */
  if (FLatency < __HAL_FLASH_GET_LATENCY())
 8001900:	4b27      	ldr	r3, [pc, #156]	@ (80019a0 <HAL_RCC_ClockConfig+0x1c0>)
 8001902:	681b      	ldr	r3, [r3, #0]
 8001904:	f003 0307 	and.w	r3, r3, #7
 8001908:	683a      	ldr	r2, [r7, #0]
 800190a:	429a      	cmp	r2, r3
 800190c:	d210      	bcs.n	8001930 <HAL_RCC_ClockConfig+0x150>
  {
    /* Program the new number of wait states to the LATENCY bits in the FLASH_ACR register */
    __HAL_FLASH_SET_LATENCY(FLatency);
 800190e:	4b24      	ldr	r3, [pc, #144]	@ (80019a0 <HAL_RCC_ClockConfig+0x1c0>)
 8001910:	681b      	ldr	r3, [r3, #0]
 8001912:	f023 0207 	bic.w	r2, r3, #7
 8001916:	4922      	ldr	r1, [pc, #136]	@ (80019a0 <HAL_RCC_ClockConfig+0x1c0>)
 8001918:	683b      	ldr	r3, [r7, #0]
 800191a:	4313      	orrs	r3, r2
 800191c:	600b      	str	r3, [r1, #0]

    /* Check that the new number of wait states is taken into account to access the Flash
    memory by reading the FLASH_ACR register */
    if (__HAL_FLASH_GET_LATENCY() != FLatency)
 800191e:	4b20      	ldr	r3, [pc, #128]	@ (80019a0 <HAL_RCC_ClockConfig+0x1c0>)
 8001920:	681b      	ldr	r3, [r3, #0]
 8001922:	f003 0307 	and.w	r3, r3, #7
 8001926:	683a      	ldr	r2, [r7, #0]
 8001928:	429a      	cmp	r2, r3
 800192a:	d001      	beq.n	8001930 <HAL_RCC_ClockConfig+0x150>
  {
    return HAL_ERROR;
 800192c:	2301      	movs	r3, #1
 800192e:	e032      	b.n	8001996 <HAL_RCC_ClockConfig+0x1b6>
  }
}
#endif /* FLASH_ACR_LATENCY */

/*-------------------------- PCLK1 Configuration ---------------------------*/
if (((RCC_ClkInitStruct->ClockType) & RCC_CLOCKTYPE_PCLK1) == RCC_CLOCKTYPE_PCLK1)
 8001930:	687b      	ldr	r3, [r7, #4]
 8001932:	681b      	ldr	r3, [r3, #0]
 8001934:	f003 0304 	and.w	r3, r3, #4
 8001938:	2b00      	cmp	r3, #0
 800193a:	d008      	beq.n	800194e <HAL_RCC_ClockConfig+0x16e>
  {
    assert_param(IS_RCC_PCLK(RCC_ClkInitStruct->APB1CLKDivider));
    MODIFY_REG(RCC->CFGR, RCC_CFGR_PPRE1, RCC_ClkInitStruct->APB1CLKDivider);
 800193c:	4b19      	ldr	r3, [pc, #100]	@ (80019a4 <HAL_RCC_ClockConfig+0x1c4>)
 800193e:	685b      	ldr	r3, [r3, #4]
 8001940:	f423 62e0 	bic.w	r2, r3, #1792	@ 0x700
 8001944:	687b      	ldr	r3, [r7, #4]
 8001946:	68db      	ldr	r3, [r3, #12]
 8001948:	4916      	ldr	r1, [pc, #88]	@ (80019a4 <HAL_RCC_ClockConfig+0x1c4>)
 800194a:	4313      	orrs	r3, r2
 800194c:	604b      	str	r3, [r1, #4]
  }

  /*-------------------------- PCLK2 Configuration ---------------------------*/
  if (((RCC_ClkInitStruct->ClockType) & RCC_CLOCKTYPE_PCLK2) == RCC_CLOCKTYPE_PCLK2)
 800194e:	687b      	ldr	r3, [r7, #4]
 8001950:	681b      	ldr	r3, [r3, #0]
 8001952:	f003 0308 	and.w	r3, r3, #8
 8001956:	2b00      	cmp	r3, #0
 8001958:	d009      	beq.n	800196e <HAL_RCC_ClockConfig+0x18e>
  {
    assert_param(IS_RCC_PCLK(RCC_ClkInitStruct->APB2CLKDivider));
    MODIFY_REG(RCC->CFGR, RCC_CFGR_PPRE2, ((RCC_ClkInitStruct->APB2CLKDivider) << 3));
 800195a:	4b12      	ldr	r3, [pc, #72]	@ (80019a4 <HAL_RCC_ClockConfig+0x1c4>)
 800195c:	685b      	ldr	r3, [r3, #4]
 800195e:	f423 5260 	bic.w	r2, r3, #14336	@ 0x3800
 8001962:	687b      	ldr	r3, [r7, #4]
 8001964:	691b      	ldr	r3, [r3, #16]
 8001966:	00db      	lsls	r3, r3, #3
 8001968:	490e      	ldr	r1, [pc, #56]	@ (80019a4 <HAL_RCC_ClockConfig+0x1c4>)
 800196a:	4313      	orrs	r3, r2
 800196c:	604b      	str	r3, [r1, #4]
  }

  /* Update the SystemCoreClock global variable */
  SystemCoreClock = HAL_RCC_GetSysClockFreq() >> AHBPrescTable[(RCC->CFGR & RCC_CFGR_HPRE) >> RCC_CFGR_HPRE_Pos];
 800196e:	f000 f821 	bl	80019b4 <HAL_RCC_GetSysClockFreq>
 8001972:	4602      	mov	r2, r0
 8001974:	4b0b      	ldr	r3, [pc, #44]	@ (80019a4 <HAL_RCC_ClockConfig+0x1c4>)
 8001976:	685b      	ldr	r3, [r3, #4]
 8001978:	091b      	lsrs	r3, r3, #4
 800197a:	f003 030f 	and.w	r3, r3, #15
 800197e:	490a      	ldr	r1, [pc, #40]	@ (80019a8 <HAL_RCC_ClockConfig+0x1c8>)
 8001980:	5ccb      	ldrb	r3, [r1, r3]
 8001982:	fa22 f303 	lsr.w	r3, r2, r3
 8001986:	4a09      	ldr	r2, [pc, #36]	@ (80019ac <HAL_RCC_ClockConfig+0x1cc>)
 8001988:	6013      	str	r3, [r2, #0]

  /* Configure the source of time base considering new system clocks settings*/
  HAL_InitTick(uwTickPrio);
 800198a:	4b09      	ldr	r3, [pc, #36]	@ (80019b0 <HAL_RCC_ClockConfig+0x1d0>)
 800198c:	681b      	ldr	r3, [r3, #0]
 800198e:	4618      	mov	r0, r3
 8001990:	f7ff f8be 	bl	8000b10 <HAL_InitTick>

  return HAL_OK;
 8001994:	2300      	movs	r3, #0
}
 8001996:	4618      	mov	r0, r3
 8001998:	3710      	adds	r7, #16
 800199a:	46bd      	mov	sp, r7
 800199c:	bd80      	pop	{r7, pc}
 800199e:	bf00      	nop
 80019a0:	40022000 	.word	0x40022000
 80019a4:	40021000 	.word	0x40021000
 80019a8:	0800268c 	.word	0x0800268c
 80019ac:	20000114 	.word	0x20000114
 80019b0:	20000118 	.word	0x20000118

080019b4 <HAL_RCC_GetSysClockFreq>:
  *         right SYSCLK value. Otherwise, any configuration based on this function will be incorrect.
  *
  * @retval SYSCLK frequency
  */
uint32_t HAL_RCC_GetSysClockFreq(void)
{
 80019b4:	b480      	push	{r7}
 80019b6:	b087      	sub	sp, #28
 80019b8:	af00      	add	r7, sp, #0
#else
  static const uint8_t aPredivFactorTable[2U] = {1, 2};
#endif /*RCC_CFGR2_PREDIV1*/

#endif
  uint32_t tmpreg = 0U, prediv = 0U, pllclk = 0U, pllmul = 0U;
 80019ba:	2300      	movs	r3, #0
 80019bc:	60fb      	str	r3, [r7, #12]
 80019be:	2300      	movs	r3, #0
 80019c0:	60bb      	str	r3, [r7, #8]
 80019c2:	2300      	movs	r3, #0
 80019c4:	617b      	str	r3, [r7, #20]
 80019c6:	2300      	movs	r3, #0
 80019c8:	607b      	str	r3, [r7, #4]
  uint32_t sysclockfreq = 0U;
 80019ca:	2300      	movs	r3, #0
 80019cc:	613b      	str	r3, [r7, #16]
#if defined(RCC_CFGR2_PREDIV1SRC)
  uint32_t prediv2 = 0U, pll2mul = 0U;
#endif /*RCC_CFGR2_PREDIV1SRC*/

  tmpreg = RCC->CFGR;
 80019ce:	4b1e      	ldr	r3, [pc, #120]	@ (8001a48 <HAL_RCC_GetSysClockFreq+0x94>)
 80019d0:	685b      	ldr	r3, [r3, #4]
 80019d2:	60fb      	str	r3, [r7, #12]

  /* Get SYSCLK source -------------------------------------------------------*/
  switch (tmpreg & RCC_CFGR_SWS)
 80019d4:	68fb      	ldr	r3, [r7, #12]
 80019d6:	f003 030c 	and.w	r3, r3, #12
 80019da:	2b04      	cmp	r3, #4
 80019dc:	d002      	beq.n	80019e4 <HAL_RCC_GetSysClockFreq+0x30>
 80019de:	2b08      	cmp	r3, #8
 80019e0:	d003      	beq.n	80019ea <HAL_RCC_GetSysClockFreq+0x36>
 80019e2:	e027      	b.n	8001a34 <HAL_RCC_GetSysClockFreq+0x80>
  {
    case RCC_SYSCLKSOURCE_STATUS_HSE:  /* HSE used as system clock */
    {
      sysclockfreq = HSE_VALUE;
 80019e4:	4b19      	ldr	r3, [pc, #100]	@ (8001a4c <HAL_RCC_GetSysClockFreq+0x98>)
 80019e6:	613b      	str	r3, [r7, #16]
      break;
 80019e8:	e027      	b.n	8001a3a <HAL_RCC_GetSysClockFreq+0x86>
    }
    case RCC_SYSCLKSOURCE_STATUS_PLLCLK:  /* PLL used as system clock */
    {
      pllmul = aPLLMULFactorTable[(uint32_t)(tmpreg & RCC_CFGR_PLLMULL) >> RCC_CFGR_PLLMULL_Pos];
 80019ea:	68fb      	ldr	r3, [r7, #12]
 80019ec:	0c9b      	lsrs	r3, r3, #18
 80019ee:	f003 030f 	and.w	r3, r3, #15
 80019f2:	4a17      	ldr	r2, [pc, #92]	@ (8001a50 <HAL_RCC_GetSysClockFreq+0x9c>)
 80019f4:	5cd3      	ldrb	r3, [r2, r3]
 80019f6:	607b      	str	r3, [r7, #4]
      if ((tmpreg & RCC_CFGR_PLLSRC) != RCC_PLLSOURCE_HSI_DIV2)
 80019f8:	68fb      	ldr	r3, [r7, #12]
 80019fa:	f403 3380 	and.w	r3, r3, #65536	@ 0x10000
 80019fe:	2b00      	cmp	r3, #0
 8001a00:	d010      	beq.n	8001a24 <HAL_RCC_GetSysClockFreq+0x70>
      {
#if defined(RCC_CFGR2_PREDIV1)
        prediv = aPredivFactorTable[(uint32_t)(RCC->CFGR2 & RCC_CFGR2_PREDIV1) >> RCC_CFGR2_PREDIV1_Pos];
#else
        prediv = aPredivFactorTable[(uint32_t)(RCC->CFGR & RCC_CFGR_PLLXTPRE) >> RCC_CFGR_PLLXTPRE_Pos];
 8001a02:	4b11      	ldr	r3, [pc, #68]	@ (8001a48 <HAL_RCC_GetSysClockFreq+0x94>)
 8001a04:	685b      	ldr	r3, [r3, #4]
 8001a06:	0c5b      	lsrs	r3, r3, #17
 8001a08:	f003 0301 	and.w	r3, r3, #1
 8001a0c:	4a11      	ldr	r2, [pc, #68]	@ (8001a54 <HAL_RCC_GetSysClockFreq+0xa0>)
 8001a0e:	5cd3      	ldrb	r3, [r2, r3]
 8001a10:	60bb      	str	r3, [r7, #8]
        {
          pllclk = pllclk / 2;
        }
#else
        /* HSE used as PLL clock source : PLLCLK = HSE/PREDIV1 * PLLMUL */
        pllclk = (uint32_t)((HSE_VALUE  * pllmul) / prediv);
 8001a12:	687b      	ldr	r3, [r7, #4]
 8001a14:	4a0d      	ldr	r2, [pc, #52]	@ (8001a4c <HAL_RCC_GetSysClockFreq+0x98>)
 8001a16:	fb03 f202 	mul.w	r2, r3, r2
 8001a1a:	68bb      	ldr	r3, [r7, #8]
 8001a1c:	fbb2 f3f3 	udiv	r3, r2, r3
 8001a20:	617b      	str	r3, [r7, #20]
 8001a22:	e004      	b.n	8001a2e <HAL_RCC_GetSysClockFreq+0x7a>
#endif /*RCC_CFGR2_PREDIV1SRC*/
      }
      else
      {
        /* HSI used as PLL clock source : PLLCLK = HSI/2 * PLLMUL */
        pllclk = (uint32_t)((HSI_VALUE >> 1) * pllmul);
 8001a24:	687b      	ldr	r3, [r7, #4]
 8001a26:	4a0c      	ldr	r2, [pc, #48]	@ (8001a58 <HAL_RCC_GetSysClockFreq+0xa4>)
 8001a28:	fb02 f303 	mul.w	r3, r2, r3
 8001a2c:	617b      	str	r3, [r7, #20]
      }
      sysclockfreq = pllclk;
 8001a2e:	697b      	ldr	r3, [r7, #20]
 8001a30:	613b      	str	r3, [r7, #16]
      break;
 8001a32:	e002      	b.n	8001a3a <HAL_RCC_GetSysClockFreq+0x86>
    }
    case RCC_SYSCLKSOURCE_STATUS_HSI:  /* HSI used as system clock source */
    default: /* HSI used as system clock */
    {
      sysclockfreq = HSI_VALUE;
 8001a34:	4b05      	ldr	r3, [pc, #20]	@ (8001a4c <HAL_RCC_GetSysClockFreq+0x98>)
 8001a36:	613b      	str	r3, [r7, #16]
      break;
 8001a38:	bf00      	nop
    }
  }
  return sysclockfreq;
 8001a3a:	693b      	ldr	r3, [r7, #16]
}
 8001a3c:	4618      	mov	r0, r3
 8001a3e:	371c      	adds	r7, #28
 8001a40:	46bd      	mov	sp, r7
 8001a42:	bc80      	pop	{r7}
 8001a44:	4770      	bx	lr
 8001a46:	bf00      	nop
 8001a48:	40021000 	.word	0x40021000
 8001a4c:	007a1200 	.word	0x007a1200
 8001a50:	080026a4 	.word	0x080026a4
 8001a54:	080026b4 	.word	0x080026b4
 8001a58:	003d0900 	.word	0x003d0900

08001a5c <HAL_RCC_GetHCLKFreq>:
  * @note   The SystemCoreClock CMSIS variable is used to store System Clock Frequency
  *         and updated within this function
  * @retval HCLK frequency
  */
uint32_t HAL_RCC_GetHCLKFreq(void)
{
 8001a5c:	b480      	push	{r7}
 8001a5e:	af00      	add	r7, sp, #0
  return SystemCoreClock;
 8001a60:	4b02      	ldr	r3, [pc, #8]	@ (8001a6c <HAL_RCC_GetHCLKFreq+0x10>)
 8001a62:	681b      	ldr	r3, [r3, #0]
}
 8001a64:	4618      	mov	r0, r3
 8001a66:	46bd      	mov	sp, r7
 8001a68:	bc80      	pop	{r7}
 8001a6a:	4770      	bx	lr
 8001a6c:	20000114 	.word	0x20000114

08001a70 <HAL_RCC_GetPCLK1Freq>:
  * @note   Each time PCLK1 changes, this function must be called to update the
  *         right PCLK1 value. Otherwise, any configuration based on this function will be incorrect.
  * @retval PCLK1 frequency
  */
uint32_t HAL_RCC_GetPCLK1Freq(void)
{
 8001a70:	b580      	push	{r7, lr}
 8001a72:	af00      	add	r7, sp, #0
  /* Get HCLK source and Compute PCLK1 frequency ---------------------------*/
  return (HAL_RCC_GetHCLKFreq() >> APBPrescTable[(RCC->CFGR & RCC_CFGR_PPRE1) >> RCC_CFGR_PPRE1_Pos]);
 8001a74:	f7ff fff2 	bl	8001a5c <HAL_RCC_GetHCLKFreq>
 8001a78:	4602      	mov	r2, r0
 8001a7a:	4b05      	ldr	r3, [pc, #20]	@ (8001a90 <HAL_RCC_GetPCLK1Freq+0x20>)
 8001a7c:	685b      	ldr	r3, [r3, #4]
 8001a7e:	0a1b      	lsrs	r3, r3, #8
 8001a80:	f003 0307 	and.w	r3, r3, #7
 8001a84:	4903      	ldr	r1, [pc, #12]	@ (8001a94 <HAL_RCC_GetPCLK1Freq+0x24>)
 8001a86:	5ccb      	ldrb	r3, [r1, r3]
 8001a88:	fa22 f303 	lsr.w	r3, r2, r3
}
 8001a8c:	4618      	mov	r0, r3
 8001a8e:	bd80      	pop	{r7, pc}
 8001a90:	40021000 	.word	0x40021000
 8001a94:	0800269c 	.word	0x0800269c

08001a98 <HAL_RCC_GetPCLK2Freq>:
  * @note   Each time PCLK2 changes, this function must be called to update the
  *         right PCLK2 value. Otherwise, any configuration based on this function will be incorrect.
  * @retval PCLK2 frequency
  */
uint32_t HAL_RCC_GetPCLK2Freq(void)
{
 8001a98:	b580      	push	{r7, lr}
 8001a9a:	af00      	add	r7, sp, #0
  /* Get HCLK source and Compute PCLK2 frequency ---------------------------*/
  return (HAL_RCC_GetHCLKFreq() >> APBPrescTable[(RCC->CFGR & RCC_CFGR_PPRE2) >> RCC_CFGR_PPRE2_Pos]);
 8001a9c:	f7ff ffde 	bl	8001a5c <HAL_RCC_GetHCLKFreq>
 8001aa0:	4602      	mov	r2, r0
 8001aa2:	4b05      	ldr	r3, [pc, #20]	@ (8001ab8 <HAL_RCC_GetPCLK2Freq+0x20>)
 8001aa4:	685b      	ldr	r3, [r3, #4]
 8001aa6:	0adb      	lsrs	r3, r3, #11
 8001aa8:	f003 0307 	and.w	r3, r3, #7
 8001aac:	4903      	ldr	r1, [pc, #12]	@ (8001abc <HAL_RCC_GetPCLK2Freq+0x24>)
 8001aae:	5ccb      	ldrb	r3, [r1, r3]
 8001ab0:	fa22 f303 	lsr.w	r3, r2, r3
}
 8001ab4:	4618      	mov	r0, r3
 8001ab6:	bd80      	pop	{r7, pc}
 8001ab8:	40021000 	.word	0x40021000
 8001abc:	0800269c 	.word	0x0800269c

08001ac0 <RCC_Delay>:
  * @brief  This function provides delay (in milliseconds) based on CPU cycles method.
  * @param  mdelay: specifies the delay time length, in milliseconds.
  * @retval None
  */
static void RCC_Delay(uint32_t mdelay)
{
 8001ac0:	b480      	push	{r7}
 8001ac2:	b085      	sub	sp, #20
 8001ac4:	af00      	add	r7, sp, #0
 8001ac6:	6078      	str	r0, [r7, #4]
  __IO uint32_t Delay = mdelay * (SystemCoreClock / 8U / 1000U);
 8001ac8:	4b0a      	ldr	r3, [pc, #40]	@ (8001af4 <RCC_Delay+0x34>)
 8001aca:	681b      	ldr	r3, [r3, #0]
 8001acc:	4a0a      	ldr	r2, [pc, #40]	@ (8001af8 <RCC_Delay+0x38>)
 8001ace:	fba2 2303 	umull	r2, r3, r2, r3
 8001ad2:	0a5b      	lsrs	r3, r3, #9
 8001ad4:	687a      	ldr	r2, [r7, #4]
 8001ad6:	fb02 f303 	mul.w	r3, r2, r3
 8001ada:	60fb      	str	r3, [r7, #12]
  do
  {
    __NOP();
 8001adc:	bf00      	nop
  }
  while (Delay --);
 8001ade:	68fb      	ldr	r3, [r7, #12]
 8001ae0:	1e5a      	subs	r2, r3, #1
 8001ae2:	60fa      	str	r2, [r7, #12]
 8001ae4:	2b00      	cmp	r3, #0
 8001ae6:	d1f9      	bne.n	8001adc <RCC_Delay+0x1c>
}
 8001ae8:	bf00      	nop
 8001aea:	bf00      	nop
 8001aec:	3714      	adds	r7, #20
 8001aee:	46bd      	mov	sp, r7
 8001af0:	bc80      	pop	{r7}
 8001af2:	4770      	bx	lr
 8001af4:	20000114 	.word	0x20000114
 8001af8:	10624dd3 	.word	0x10624dd3

08001afc <HAL_UART_Init>:
  * @param  huart  Pointer to a UART_HandleTypeDef structure that contains
  *                the configuration information for the specified UART module.
  * @retval HAL status
  */
HAL_StatusTypeDef HAL_UART_Init(UART_HandleTypeDef *huart)
{
 8001afc:	b580      	push	{r7, lr}
 8001afe:	b082      	sub	sp, #8
 8001b00:	af00      	add	r7, sp, #0
 8001b02:	6078      	str	r0, [r7, #4]
  /* Check the UART handle allocation */
  if (huart == NULL)
 8001b04:	687b      	ldr	r3, [r7, #4]
 8001b06:	2b00      	cmp	r3, #0
 8001b08:	d101      	bne.n	8001b0e <HAL_UART_Init+0x12>
  {
    return HAL_ERROR;
 8001b0a:	2301      	movs	r3, #1
 8001b0c:	e042      	b.n	8001b94 <HAL_UART_Init+0x98>
  assert_param(IS_UART_WORD_LENGTH(huart->Init.WordLength));
#if defined(USART_CR1_OVER8)
  assert_param(IS_UART_OVERSAMPLING(huart->Init.OverSampling));
#endif /* USART_CR1_OVER8 */

  if (huart->gState == HAL_UART_STATE_RESET)
 8001b0e:	687b      	ldr	r3, [r7, #4]
 8001b10:	f893 3041 	ldrb.w	r3, [r3, #65]	@ 0x41
 8001b14:	b2db      	uxtb	r3, r3
 8001b16:	2b00      	cmp	r3, #0
 8001b18:	d106      	bne.n	8001b28 <HAL_UART_Init+0x2c>
  {
    /* Allocate lock resource and initialize it */
    huart->Lock = HAL_UNLOCKED;
 8001b1a:	687b      	ldr	r3, [r7, #4]
 8001b1c:	2200      	movs	r2, #0
 8001b1e:	f883 2040 	strb.w	r2, [r3, #64]	@ 0x40

    /* Init the low level hardware */
    huart->MspInitCallback(huart);
#else
    /* Init the low level hardware : GPIO, CLOCK */
    HAL_UART_MspInit(huart);
 8001b22:	6878      	ldr	r0, [r7, #4]
 8001b24:	f7fe ff64 	bl	80009f0 <HAL_UART_MspInit>
#endif /* (USE_HAL_UART_REGISTER_CALLBACKS) */
  }

  huart->gState = HAL_UART_STATE_BUSY;
 8001b28:	687b      	ldr	r3, [r7, #4]
 8001b2a:	2224      	movs	r2, #36	@ 0x24
 8001b2c:	f883 2041 	strb.w	r2, [r3, #65]	@ 0x41

  /* Disable the peripheral */
  __HAL_UART_DISABLE(huart);
 8001b30:	687b      	ldr	r3, [r7, #4]
 8001b32:	681b      	ldr	r3, [r3, #0]
 8001b34:	68da      	ldr	r2, [r3, #12]
 8001b36:	687b      	ldr	r3, [r7, #4]
 8001b38:	681b      	ldr	r3, [r3, #0]
 8001b3a:	f422 5200 	bic.w	r2, r2, #8192	@ 0x2000
 8001b3e:	60da      	str	r2, [r3, #12]

  /* Set the UART Communication parameters */
  UART_SetConfig(huart);
 8001b40:	6878      	ldr	r0, [r7, #4]
 8001b42:	f000 fcd5 	bl	80024f0 <UART_SetConfig>

  /* In asynchronous mode, the following bits must be kept cleared:
     - LINEN and CLKEN bits in the USART_CR2 register,
     - SCEN, HDSEL and IREN  bits in the USART_CR3 register.*/
  CLEAR_BIT(huart->Instance->CR2, (USART_CR2_LINEN | USART_CR2_CLKEN));
 8001b46:	687b      	ldr	r3, [r7, #4]
 8001b48:	681b      	ldr	r3, [r3, #0]
 8001b4a:	691a      	ldr	r2, [r3, #16]
 8001b4c:	687b      	ldr	r3, [r7, #4]
 8001b4e:	681b      	ldr	r3, [r3, #0]
 8001b50:	f422 4290 	bic.w	r2, r2, #18432	@ 0x4800
 8001b54:	611a      	str	r2, [r3, #16]
  CLEAR_BIT(huart->Instance->CR3, (USART_CR3_SCEN | USART_CR3_HDSEL | USART_CR3_IREN));
 8001b56:	687b      	ldr	r3, [r7, #4]
 8001b58:	681b      	ldr	r3, [r3, #0]
 8001b5a:	695a      	ldr	r2, [r3, #20]
 8001b5c:	687b      	ldr	r3, [r7, #4]
 8001b5e:	681b      	ldr	r3, [r3, #0]
 8001b60:	f022 022a 	bic.w	r2, r2, #42	@ 0x2a
 8001b64:	615a      	str	r2, [r3, #20]

  /* Enable the peripheral */
  __HAL_UART_ENABLE(huart);
 8001b66:	687b      	ldr	r3, [r7, #4]
 8001b68:	681b      	ldr	r3, [r3, #0]
 8001b6a:	68da      	ldr	r2, [r3, #12]
 8001b6c:	687b      	ldr	r3, [r7, #4]
 8001b6e:	681b      	ldr	r3, [r3, #0]
 8001b70:	f442 5200 	orr.w	r2, r2, #8192	@ 0x2000
 8001b74:	60da      	str	r2, [r3, #12]

  /* Initialize the UART state */
  huart->ErrorCode = HAL_UART_ERROR_NONE;
 8001b76:	687b      	ldr	r3, [r7, #4]
 8001b78:	2200      	movs	r2, #0
 8001b7a:	645a      	str	r2, [r3, #68]	@ 0x44
  huart->gState = HAL_UART_STATE_READY;
 8001b7c:	687b      	ldr	r3, [r7, #4]
 8001b7e:	2220      	movs	r2, #32
 8001b80:	f883 2041 	strb.w	r2, [r3, #65]	@ 0x41
  huart->RxState = HAL_UART_STATE_READY;
 8001b84:	687b      	ldr	r3, [r7, #4]
 8001b86:	2220      	movs	r2, #32
 8001b88:	f883 2042 	strb.w	r2, [r3, #66]	@ 0x42
  huart->RxEventType = HAL_UART_RXEVENT_TC;
 8001b8c:	687b      	ldr	r3, [r7, #4]
 8001b8e:	2200      	movs	r2, #0
 8001b90:	635a      	str	r2, [r3, #52]	@ 0x34

  return HAL_OK;
 8001b92:	2300      	movs	r3, #0
}
 8001b94:	4618      	mov	r0, r3
 8001b96:	3708      	adds	r7, #8
 8001b98:	46bd      	mov	sp, r7
 8001b9a:	bd80      	pop	{r7, pc}

08001b9c <HAL_UART_Receive_IT>:
  * @param  pData Pointer to data buffer (u8 or u16 data elements).
  * @param  Size  Amount of data elements (u8 or u16) to be received.
  * @retval HAL status
  */
HAL_StatusTypeDef HAL_UART_Receive_IT(UART_HandleTypeDef *huart, uint8_t *pData, uint16_t Size)
{
 8001b9c:	b580      	push	{r7, lr}
 8001b9e:	b084      	sub	sp, #16
 8001ba0:	af00      	add	r7, sp, #0
 8001ba2:	60f8      	str	r0, [r7, #12]
 8001ba4:	60b9      	str	r1, [r7, #8]
 8001ba6:	4613      	mov	r3, r2
 8001ba8:	80fb      	strh	r3, [r7, #6]
  /* Check that a Rx process is not already ongoing */
  if (huart->RxState == HAL_UART_STATE_READY)
 8001baa:	68fb      	ldr	r3, [r7, #12]
 8001bac:	f893 3042 	ldrb.w	r3, [r3, #66]	@ 0x42
 8001bb0:	b2db      	uxtb	r3, r3
 8001bb2:	2b20      	cmp	r3, #32
 8001bb4:	d112      	bne.n	8001bdc <HAL_UART_Receive_IT+0x40>
  {
    if ((pData == NULL) || (Size == 0U))
 8001bb6:	68bb      	ldr	r3, [r7, #8]
 8001bb8:	2b00      	cmp	r3, #0
 8001bba:	d002      	beq.n	8001bc2 <HAL_UART_Receive_IT+0x26>
 8001bbc:	88fb      	ldrh	r3, [r7, #6]
 8001bbe:	2b00      	cmp	r3, #0
 8001bc0:	d101      	bne.n	8001bc6 <HAL_UART_Receive_IT+0x2a>
    {
      return HAL_ERROR;
 8001bc2:	2301      	movs	r3, #1
 8001bc4:	e00b      	b.n	8001bde <HAL_UART_Receive_IT+0x42>
    }

    /* Set Reception type to Standard reception */
    huart->ReceptionType = HAL_UART_RECEPTION_STANDARD;
 8001bc6:	68fb      	ldr	r3, [r7, #12]
 8001bc8:	2200      	movs	r2, #0
 8001bca:	631a      	str	r2, [r3, #48]	@ 0x30

    return (UART_Start_Receive_IT(huart, pData, Size));
 8001bcc:	88fb      	ldrh	r3, [r7, #6]
 8001bce:	461a      	mov	r2, r3
 8001bd0:	68b9      	ldr	r1, [r7, #8]
 8001bd2:	68f8      	ldr	r0, [r7, #12]
 8001bd4:	f000 fab7 	bl	8002146 <UART_Start_Receive_IT>
 8001bd8:	4603      	mov	r3, r0
 8001bda:	e000      	b.n	8001bde <HAL_UART_Receive_IT+0x42>
  }
  else
  {
    return HAL_BUSY;
 8001bdc:	2302      	movs	r3, #2
  }
}
 8001bde:	4618      	mov	r0, r3
 8001be0:	3710      	adds	r7, #16
 8001be2:	46bd      	mov	sp, r7
 8001be4:	bd80      	pop	{r7, pc}
	...

08001be8 <HAL_UART_IRQHandler>:
  * @param  huart  Pointer to a UART_HandleTypeDef structure that contains
  *                the configuration information for the specified UART module.
  * @retval None
  */
void HAL_UART_IRQHandler(UART_HandleTypeDef *huart)
{
 8001be8:	b580      	push	{r7, lr}
 8001bea:	b0ba      	sub	sp, #232	@ 0xe8
 8001bec:	af00      	add	r7, sp, #0
 8001bee:	6078      	str	r0, [r7, #4]
  uint32_t isrflags   = READ_REG(huart->Instance->SR);
 8001bf0:	687b      	ldr	r3, [r7, #4]
 8001bf2:	681b      	ldr	r3, [r3, #0]
 8001bf4:	681b      	ldr	r3, [r3, #0]
 8001bf6:	f8c7 30e4 	str.w	r3, [r7, #228]	@ 0xe4
  uint32_t cr1its     = READ_REG(huart->Instance->CR1);
 8001bfa:	687b      	ldr	r3, [r7, #4]
 8001bfc:	681b      	ldr	r3, [r3, #0]
 8001bfe:	68db      	ldr	r3, [r3, #12]
 8001c00:	f8c7 30e0 	str.w	r3, [r7, #224]	@ 0xe0
  uint32_t cr3its     = READ_REG(huart->Instance->CR3);
 8001c04:	687b      	ldr	r3, [r7, #4]
 8001c06:	681b      	ldr	r3, [r3, #0]
 8001c08:	695b      	ldr	r3, [r3, #20]
 8001c0a:	f8c7 30dc 	str.w	r3, [r7, #220]	@ 0xdc
  uint32_t errorflags = 0x00U;
 8001c0e:	2300      	movs	r3, #0
 8001c10:	f8c7 30d8 	str.w	r3, [r7, #216]	@ 0xd8
  uint32_t dmarequest = 0x00U;
 8001c14:	2300      	movs	r3, #0
 8001c16:	f8c7 30d4 	str.w	r3, [r7, #212]	@ 0xd4

  /* If no error occurs */
  errorflags = (isrflags & (uint32_t)(USART_SR_PE | USART_SR_FE | USART_SR_ORE | USART_SR_NE));
 8001c1a:	f8d7 30e4 	ldr.w	r3, [r7, #228]	@ 0xe4
 8001c1e:	f003 030f 	and.w	r3, r3, #15
 8001c22:	f8c7 30d8 	str.w	r3, [r7, #216]	@ 0xd8
  if (errorflags == RESET)
 8001c26:	f8d7 30d8 	ldr.w	r3, [r7, #216]	@ 0xd8
 8001c2a:	2b00      	cmp	r3, #0
 8001c2c:	d10f      	bne.n	8001c4e <HAL_UART_IRQHandler+0x66>
  {
    /* UART in mode Receiver -------------------------------------------------*/
    if (((isrflags & USART_SR_RXNE) != RESET) && ((cr1its & USART_CR1_RXNEIE) != RESET))
 8001c2e:	f8d7 30e4 	ldr.w	r3, [r7, #228]	@ 0xe4
 8001c32:	f003 0320 	and.w	r3, r3, #32
 8001c36:	2b00      	cmp	r3, #0
 8001c38:	d009      	beq.n	8001c4e <HAL_UART_IRQHandler+0x66>
 8001c3a:	f8d7 30e0 	ldr.w	r3, [r7, #224]	@ 0xe0
 8001c3e:	f003 0320 	and.w	r3, r3, #32
 8001c42:	2b00      	cmp	r3, #0
 8001c44:	d003      	beq.n	8001c4e <HAL_UART_IRQHandler+0x66>
    {
      UART_Receive_IT(huart);
 8001c46:	6878      	ldr	r0, [r7, #4]
 8001c48:	f000 fb93 	bl	8002372 <UART_Receive_IT>
      return;
 8001c4c:	e25b      	b.n	8002106 <HAL_UART_IRQHandler+0x51e>
    }
  }

  /* If some errors occur */
  if ((errorflags != RESET) && (((cr3its & USART_CR3_EIE) != RESET)
 8001c4e:	f8d7 30d8 	ldr.w	r3, [r7, #216]	@ 0xd8
 8001c52:	2b00      	cmp	r3, #0
 8001c54:	f000 80de 	beq.w	8001e14 <HAL_UART_IRQHandler+0x22c>
 8001c58:	f8d7 30dc 	ldr.w	r3, [r7, #220]	@ 0xdc
 8001c5c:	f003 0301 	and.w	r3, r3, #1
 8001c60:	2b00      	cmp	r3, #0
 8001c62:	d106      	bne.n	8001c72 <HAL_UART_IRQHandler+0x8a>
                                || ((cr1its & (USART_CR1_RXNEIE | USART_CR1_PEIE)) != RESET)))
 8001c64:	f8d7 30e0 	ldr.w	r3, [r7, #224]	@ 0xe0
 8001c68:	f403 7390 	and.w	r3, r3, #288	@ 0x120
 8001c6c:	2b00      	cmp	r3, #0
 8001c6e:	f000 80d1 	beq.w	8001e14 <HAL_UART_IRQHandler+0x22c>
  {
    /* UART parity error interrupt occurred ----------------------------------*/
    if (((isrflags & USART_SR_PE) != RESET) && ((cr1its & USART_CR1_PEIE) != RESET))
 8001c72:	f8d7 30e4 	ldr.w	r3, [r7, #228]	@ 0xe4
 8001c76:	f003 0301 	and.w	r3, r3, #1
 8001c7a:	2b00      	cmp	r3, #0
 8001c7c:	d00b      	beq.n	8001c96 <HAL_UART_IRQHandler+0xae>
 8001c7e:	f8d7 30e0 	ldr.w	r3, [r7, #224]	@ 0xe0
 8001c82:	f403 7380 	and.w	r3, r3, #256	@ 0x100
 8001c86:	2b00      	cmp	r3, #0
 8001c88:	d005      	beq.n	8001c96 <HAL_UART_IRQHandler+0xae>
    {
      huart->ErrorCode |= HAL_UART_ERROR_PE;
 8001c8a:	687b      	ldr	r3, [r7, #4]
 8001c8c:	6c5b      	ldr	r3, [r3, #68]	@ 0x44
 8001c8e:	f043 0201 	orr.w	r2, r3, #1
 8001c92:	687b      	ldr	r3, [r7, #4]
 8001c94:	645a      	str	r2, [r3, #68]	@ 0x44
    }

    /* UART noise error interrupt occurred -----------------------------------*/
    if (((isrflags & USART_SR_NE) != RESET) && ((cr3its & USART_CR3_EIE) != RESET))
 8001c96:	f8d7 30e4 	ldr.w	r3, [r7, #228]	@ 0xe4
 8001c9a:	f003 0304 	and.w	r3, r3, #4
 8001c9e:	2b00      	cmp	r3, #0
 8001ca0:	d00b      	beq.n	8001cba <HAL_UART_IRQHandler+0xd2>
 8001ca2:	f8d7 30dc 	ldr.w	r3, [r7, #220]	@ 0xdc
 8001ca6:	f003 0301 	and.w	r3, r3, #1
 8001caa:	2b00      	cmp	r3, #0
 8001cac:	d005      	beq.n	8001cba <HAL_UART_IRQHandler+0xd2>
    {
      huart->ErrorCode |= HAL_UART_ERROR_NE;
 8001cae:	687b      	ldr	r3, [r7, #4]
 8001cb0:	6c5b      	ldr	r3, [r3, #68]	@ 0x44
 8001cb2:	f043 0202 	orr.w	r2, r3, #2
 8001cb6:	687b      	ldr	r3, [r7, #4]
 8001cb8:	645a      	str	r2, [r3, #68]	@ 0x44
    }

    /* UART frame error interrupt occurred -----------------------------------*/
    if (((isrflags & USART_SR_FE) != RESET) && ((cr3its & USART_CR3_EIE) != RESET))
 8001cba:	f8d7 30e4 	ldr.w	r3, [r7, #228]	@ 0xe4
 8001cbe:	f003 0302 	and.w	r3, r3, #2
 8001cc2:	2b00      	cmp	r3, #0
 8001cc4:	d00b      	beq.n	8001cde <HAL_UART_IRQHandler+0xf6>
 8001cc6:	f8d7 30dc 	ldr.w	r3, [r7, #220]	@ 0xdc
 8001cca:	f003 0301 	and.w	r3, r3, #1
 8001cce:	2b00      	cmp	r3, #0
 8001cd0:	d005      	beq.n	8001cde <HAL_UART_IRQHandler+0xf6>
    {
      huart->ErrorCode |= HAL_UART_ERROR_FE;
 8001cd2:	687b      	ldr	r3, [r7, #4]
 8001cd4:	6c5b      	ldr	r3, [r3, #68]	@ 0x44
 8001cd6:	f043 0204 	orr.w	r2, r3, #4
 8001cda:	687b      	ldr	r3, [r7, #4]
 8001cdc:	645a      	str	r2, [r3, #68]	@ 0x44
    }

    /* UART Over-Run interrupt occurred --------------------------------------*/
    if (((isrflags & USART_SR_ORE) != RESET) && (((cr1its & USART_CR1_RXNEIE) != RESET)
 8001cde:	f8d7 30e4 	ldr.w	r3, [r7, #228]	@ 0xe4
 8001ce2:	f003 0308 	and.w	r3, r3, #8
 8001ce6:	2b00      	cmp	r3, #0
 8001ce8:	d011      	beq.n	8001d0e <HAL_UART_IRQHandler+0x126>
 8001cea:	f8d7 30e0 	ldr.w	r3, [r7, #224]	@ 0xe0
 8001cee:	f003 0320 	and.w	r3, r3, #32
 8001cf2:	2b00      	cmp	r3, #0
 8001cf4:	d105      	bne.n	8001d02 <HAL_UART_IRQHandler+0x11a>
                                                 || ((cr3its & USART_CR3_EIE) != RESET)))
 8001cf6:	f8d7 30dc 	ldr.w	r3, [r7, #220]	@ 0xdc
 8001cfa:	f003 0301 	and.w	r3, r3, #1
 8001cfe:	2b00      	cmp	r3, #0
 8001d00:	d005      	beq.n	8001d0e <HAL_UART_IRQHandler+0x126>
    {
      huart->ErrorCode |= HAL_UART_ERROR_ORE;
 8001d02:	687b      	ldr	r3, [r7, #4]
 8001d04:	6c5b      	ldr	r3, [r3, #68]	@ 0x44
 8001d06:	f043 0208 	orr.w	r2, r3, #8
 8001d0a:	687b      	ldr	r3, [r7, #4]
 8001d0c:	645a      	str	r2, [r3, #68]	@ 0x44
    }

    /* Call UART Error Call back function if need be --------------------------*/
    if (huart->ErrorCode != HAL_UART_ERROR_NONE)
 8001d0e:	687b      	ldr	r3, [r7, #4]
 8001d10:	6c5b      	ldr	r3, [r3, #68]	@ 0x44
 8001d12:	2b00      	cmp	r3, #0
 8001d14:	f000 81f2 	beq.w	80020fc <HAL_UART_IRQHandler+0x514>
    {
      /* UART in mode Receiver -----------------------------------------------*/
      if (((isrflags & USART_SR_RXNE) != RESET) && ((cr1its & USART_CR1_RXNEIE) != RESET))
 8001d18:	f8d7 30e4 	ldr.w	r3, [r7, #228]	@ 0xe4
 8001d1c:	f003 0320 	and.w	r3, r3, #32
 8001d20:	2b00      	cmp	r3, #0
 8001d22:	d008      	beq.n	8001d36 <HAL_UART_IRQHandler+0x14e>
 8001d24:	f8d7 30e0 	ldr.w	r3, [r7, #224]	@ 0xe0
 8001d28:	f003 0320 	and.w	r3, r3, #32
 8001d2c:	2b00      	cmp	r3, #0
 8001d2e:	d002      	beq.n	8001d36 <HAL_UART_IRQHandler+0x14e>
      {
        UART_Receive_IT(huart);
 8001d30:	6878      	ldr	r0, [r7, #4]
 8001d32:	f000 fb1e 	bl	8002372 <UART_Receive_IT>
      }

      /* If Overrun error occurs, or if any error occurs in DMA mode reception,
         consider error as blocking */
      dmarequest = HAL_IS_BIT_SET(huart->Instance->CR3, USART_CR3_DMAR);
 8001d36:	687b      	ldr	r3, [r7, #4]
 8001d38:	681b      	ldr	r3, [r3, #0]
 8001d3a:	695b      	ldr	r3, [r3, #20]
 8001d3c:	f003 0340 	and.w	r3, r3, #64	@ 0x40
 8001d40:	2b00      	cmp	r3, #0
 8001d42:	bf14      	ite	ne
 8001d44:	2301      	movne	r3, #1
 8001d46:	2300      	moveq	r3, #0
 8001d48:	b2db      	uxtb	r3, r3
 8001d4a:	f8c7 30d4 	str.w	r3, [r7, #212]	@ 0xd4
      if (((huart->ErrorCode & HAL_UART_ERROR_ORE) != RESET) || dmarequest)
 8001d4e:	687b      	ldr	r3, [r7, #4]
 8001d50:	6c5b      	ldr	r3, [r3, #68]	@ 0x44
 8001d52:	f003 0308 	and.w	r3, r3, #8
 8001d56:	2b00      	cmp	r3, #0
 8001d58:	d103      	bne.n	8001d62 <HAL_UART_IRQHandler+0x17a>
 8001d5a:	f8d7 30d4 	ldr.w	r3, [r7, #212]	@ 0xd4
 8001d5e:	2b00      	cmp	r3, #0
 8001d60:	d04f      	beq.n	8001e02 <HAL_UART_IRQHandler+0x21a>
      {
        /* Blocking error : transfer is aborted
           Set the UART state ready to be able to start again the process,
           Disable Rx Interrupts, and disable Rx DMA request, if ongoing */
        UART_EndRxTransfer(huart);
 8001d62:	6878      	ldr	r0, [r7, #4]
 8001d64:	f000 fa28 	bl	80021b8 <UART_EndRxTransfer>

        /* Disable the UART DMA Rx request if enabled */
        if (HAL_IS_BIT_SET(huart->Instance->CR3, USART_CR3_DMAR))
 8001d68:	687b      	ldr	r3, [r7, #4]
 8001d6a:	681b      	ldr	r3, [r3, #0]
 8001d6c:	695b      	ldr	r3, [r3, #20]
 8001d6e:	f003 0340 	and.w	r3, r3, #64	@ 0x40
 8001d72:	2b00      	cmp	r3, #0
 8001d74:	d041      	beq.n	8001dfa <HAL_UART_IRQHandler+0x212>
        {
          ATOMIC_CLEAR_BIT(huart->Instance->CR3, USART_CR3_DMAR);
 8001d76:	687b      	ldr	r3, [r7, #4]
 8001d78:	681b      	ldr	r3, [r3, #0]
 8001d7a:	3314      	adds	r3, #20
 8001d7c:	f8c7 309c 	str.w	r3, [r7, #156]	@ 0x9c
 */
__STATIC_FORCEINLINE uint32_t __LDREXW(volatile uint32_t *addr)
{
    uint32_t result;

   __ASM volatile ("ldrex %0, %1" : "=r" (result) : "Q" (*addr) );
 8001d80:	f8d7 309c 	ldr.w	r3, [r7, #156]	@ 0x9c
 8001d84:	e853 3f00 	ldrex	r3, [r3]
 8001d88:	f8c7 3098 	str.w	r3, [r7, #152]	@ 0x98
   return(result);
 8001d8c:	f8d7 3098 	ldr.w	r3, [r7, #152]	@ 0x98
 8001d90:	f023 0340 	bic.w	r3, r3, #64	@ 0x40
 8001d94:	f8c7 30d0 	str.w	r3, [r7, #208]	@ 0xd0
 8001d98:	687b      	ldr	r3, [r7, #4]
 8001d9a:	681b      	ldr	r3, [r3, #0]
 8001d9c:	3314      	adds	r3, #20
 8001d9e:	f8d7 20d0 	ldr.w	r2, [r7, #208]	@ 0xd0
 8001da2:	f8c7 20a8 	str.w	r2, [r7, #168]	@ 0xa8
 8001da6:	f8c7 30a4 	str.w	r3, [r7, #164]	@ 0xa4
 */
__STATIC_FORCEINLINE uint32_t __STREXW(uint32_t value, volatile uint32_t *addr)
{
   uint32_t result;

   __ASM volatile ("strex %0, %2, %1" : "=&r" (result), "=Q" (*addr) : "r" (value) );
 8001daa:	f8d7 10a4 	ldr.w	r1, [r7, #164]	@ 0xa4
 8001dae:	f8d7 20a8 	ldr.w	r2, [r7, #168]	@ 0xa8
 8001db2:	e841 2300 	strex	r3, r2, [r1]
 8001db6:	f8c7 30a0 	str.w	r3, [r7, #160]	@ 0xa0
   return(result);
 8001dba:	f8d7 30a0 	ldr.w	r3, [r7, #160]	@ 0xa0
 8001dbe:	2b00      	cmp	r3, #0
 8001dc0:	d1d9      	bne.n	8001d76 <HAL_UART_IRQHandler+0x18e>

          /* Abort the UART DMA Rx channel */
          if (huart->hdmarx != NULL)
 8001dc2:	687b      	ldr	r3, [r7, #4]
 8001dc4:	6bdb      	ldr	r3, [r3, #60]	@ 0x3c
 8001dc6:	2b00      	cmp	r3, #0
 8001dc8:	d013      	beq.n	8001df2 <HAL_UART_IRQHandler+0x20a>
          {
            /* Set the UART DMA Abort callback :
               will lead to call HAL_UART_ErrorCallback() at end of DMA abort procedure */
            huart->hdmarx->XferAbortCallback = UART_DMAAbortOnError;
 8001dca:	687b      	ldr	r3, [r7, #4]
 8001dcc:	6bdb      	ldr	r3, [r3, #60]	@ 0x3c
 8001dce:	4a7e      	ldr	r2, [pc, #504]	@ (8001fc8 <HAL_UART_IRQHandler+0x3e0>)
 8001dd0:	635a      	str	r2, [r3, #52]	@ 0x34
            if (HAL_DMA_Abort_IT(huart->hdmarx) != HAL_OK)
 8001dd2:	687b      	ldr	r3, [r7, #4]
 8001dd4:	6bdb      	ldr	r3, [r3, #60]	@ 0x3c
 8001dd6:	4618      	mov	r0, r3
 8001dd8:	f7ff f852 	bl	8000e80 <HAL_DMA_Abort_IT>
 8001ddc:	4603      	mov	r3, r0
 8001dde:	2b00      	cmp	r3, #0
 8001de0:	d016      	beq.n	8001e10 <HAL_UART_IRQHandler+0x228>
            {
              /* Call Directly XferAbortCallback function in case of error */
              huart->hdmarx->XferAbortCallback(huart->hdmarx);
 8001de2:	687b      	ldr	r3, [r7, #4]
 8001de4:	6bdb      	ldr	r3, [r3, #60]	@ 0x3c
 8001de6:	6b5b      	ldr	r3, [r3, #52]	@ 0x34
 8001de8:	687a      	ldr	r2, [r7, #4]
 8001dea:	6bd2      	ldr	r2, [r2, #60]	@ 0x3c
 8001dec:	4610      	mov	r0, r2
 8001dee:	4798      	blx	r3
        if (HAL_IS_BIT_SET(huart->Instance->CR3, USART_CR3_DMAR))
 8001df0:	e00e      	b.n	8001e10 <HAL_UART_IRQHandler+0x228>
#if (USE_HAL_UART_REGISTER_CALLBACKS == 1)
            /*Call registered error callback*/
            huart->ErrorCallback(huart);
#else
            /*Call legacy weak error callback*/
            HAL_UART_ErrorCallback(huart);
 8001df2:	6878      	ldr	r0, [r7, #4]
 8001df4:	f000 f993 	bl	800211e <HAL_UART_ErrorCallback>
        if (HAL_IS_BIT_SET(huart->Instance->CR3, USART_CR3_DMAR))
 8001df8:	e00a      	b.n	8001e10 <HAL_UART_IRQHandler+0x228>
#if (USE_HAL_UART_REGISTER_CALLBACKS == 1)
          /*Call registered error callback*/
          huart->ErrorCallback(huart);
#else
          /*Call legacy weak error callback*/
          HAL_UART_ErrorCallback(huart);
 8001dfa:	6878      	ldr	r0, [r7, #4]
 8001dfc:	f000 f98f 	bl	800211e <HAL_UART_ErrorCallback>
        if (HAL_IS_BIT_SET(huart->Instance->CR3, USART_CR3_DMAR))
 8001e00:	e006      	b.n	8001e10 <HAL_UART_IRQHandler+0x228>
#if (USE_HAL_UART_REGISTER_CALLBACKS == 1)
        /*Call registered error callback*/
        huart->ErrorCallback(huart);
#else
        /*Call legacy weak error callback*/
        HAL_UART_ErrorCallback(huart);
 8001e02:	6878      	ldr	r0, [r7, #4]
 8001e04:	f000 f98b 	bl	800211e <HAL_UART_ErrorCallback>
#endif /* USE_HAL_UART_REGISTER_CALLBACKS */

        huart->ErrorCode = HAL_UART_ERROR_NONE;
 8001e08:	687b      	ldr	r3, [r7, #4]
 8001e0a:	2200      	movs	r2, #0
 8001e0c:	645a      	str	r2, [r3, #68]	@ 0x44
      }
    }
    return;
 8001e0e:	e175      	b.n	80020fc <HAL_UART_IRQHandler+0x514>
        if (HAL_IS_BIT_SET(huart->Instance->CR3, USART_CR3_DMAR))
 8001e10:	bf00      	nop
    return;
 8001e12:	e173      	b.n	80020fc <HAL_UART_IRQHandler+0x514>
  } /* End if some error occurs */

  /* Check current reception Mode :
     If Reception till IDLE event has been selected : */
  if ((huart->ReceptionType == HAL_UART_RECEPTION_TOIDLE)
 8001e14:	687b      	ldr	r3, [r7, #4]
 8001e16:	6b1b      	ldr	r3, [r3, #48]	@ 0x30
 8001e18:	2b01      	cmp	r3, #1
 8001e1a:	f040 814f 	bne.w	80020bc <HAL_UART_IRQHandler+0x4d4>
      && ((isrflags & USART_SR_IDLE) != 0U)
 8001e1e:	f8d7 30e4 	ldr.w	r3, [r7, #228]	@ 0xe4
 8001e22:	f003 0310 	and.w	r3, r3, #16
 8001e26:	2b00      	cmp	r3, #0
 8001e28:	f000 8148 	beq.w	80020bc <HAL_UART_IRQHandler+0x4d4>
      && ((cr1its & USART_SR_IDLE) != 0U))
 8001e2c:	f8d7 30e0 	ldr.w	r3, [r7, #224]	@ 0xe0
 8001e30:	f003 0310 	and.w	r3, r3, #16
 8001e34:	2b00      	cmp	r3, #0
 8001e36:	f000 8141 	beq.w	80020bc <HAL_UART_IRQHandler+0x4d4>
  {
    __HAL_UART_CLEAR_IDLEFLAG(huart);
 8001e3a:	2300      	movs	r3, #0
 8001e3c:	60bb      	str	r3, [r7, #8]
 8001e3e:	687b      	ldr	r3, [r7, #4]
 8001e40:	681b      	ldr	r3, [r3, #0]
 8001e42:	681b      	ldr	r3, [r3, #0]
 8001e44:	60bb      	str	r3, [r7, #8]
 8001e46:	687b      	ldr	r3, [r7, #4]
 8001e48:	681b      	ldr	r3, [r3, #0]
 8001e4a:	685b      	ldr	r3, [r3, #4]
 8001e4c:	60bb      	str	r3, [r7, #8]
 8001e4e:	68bb      	ldr	r3, [r7, #8]

    /* Check if DMA mode is enabled in UART */
    if (HAL_IS_BIT_SET(huart->Instance->CR3, USART_CR3_DMAR))
 8001e50:	687b      	ldr	r3, [r7, #4]
 8001e52:	681b      	ldr	r3, [r3, #0]
 8001e54:	695b      	ldr	r3, [r3, #20]
 8001e56:	f003 0340 	and.w	r3, r3, #64	@ 0x40
 8001e5a:	2b00      	cmp	r3, #0
 8001e5c:	f000 80b6 	beq.w	8001fcc <HAL_UART_IRQHandler+0x3e4>
    {
      /* DMA mode enabled */
      /* Check received length : If all expected data are received, do nothing,
         (DMA cplt callback will be called).
         Otherwise, if at least one data has already been received, IDLE event is to be notified to user */
      uint16_t nb_remaining_rx_data = (uint16_t) __HAL_DMA_GET_COUNTER(huart->hdmarx);
 8001e60:	687b      	ldr	r3, [r7, #4]
 8001e62:	6bdb      	ldr	r3, [r3, #60]	@ 0x3c
 8001e64:	681b      	ldr	r3, [r3, #0]
 8001e66:	685b      	ldr	r3, [r3, #4]
 8001e68:	f8a7 30be 	strh.w	r3, [r7, #190]	@ 0xbe
      if ((nb_remaining_rx_data > 0U)
 8001e6c:	f8b7 30be 	ldrh.w	r3, [r7, #190]	@ 0xbe
 8001e70:	2b00      	cmp	r3, #0
 8001e72:	f000 8145 	beq.w	8002100 <HAL_UART_IRQHandler+0x518>
          && (nb_remaining_rx_data < huart->RxXferSize))
 8001e76:	687b      	ldr	r3, [r7, #4]
 8001e78:	8d9b      	ldrh	r3, [r3, #44]	@ 0x2c
 8001e7a:	f8b7 20be 	ldrh.w	r2, [r7, #190]	@ 0xbe
 8001e7e:	429a      	cmp	r2, r3
 8001e80:	f080 813e 	bcs.w	8002100 <HAL_UART_IRQHandler+0x518>
      {
        /* Reception is not complete */
        huart->RxXferCount = nb_remaining_rx_data;
 8001e84:	687b      	ldr	r3, [r7, #4]
 8001e86:	f8b7 20be 	ldrh.w	r2, [r7, #190]	@ 0xbe
 8001e8a:	85da      	strh	r2, [r3, #46]	@ 0x2e

        /* In Normal mode, end DMA xfer and HAL UART Rx process*/
        if (huart->hdmarx->Init.Mode != DMA_CIRCULAR)
 8001e8c:	687b      	ldr	r3, [r7, #4]
 8001e8e:	6bdb      	ldr	r3, [r3, #60]	@ 0x3c
 8001e90:	699b      	ldr	r3, [r3, #24]
 8001e92:	2b20      	cmp	r3, #32
 8001e94:	f000 8088 	beq.w	8001fa8 <HAL_UART_IRQHandler+0x3c0>
        {
          /* Disable PE and ERR (Frame error, noise error, overrun error) interrupts */
          ATOMIC_CLEAR_BIT(huart->Instance->CR1, USART_CR1_PEIE);
 8001e98:	687b      	ldr	r3, [r7, #4]
 8001e9a:	681b      	ldr	r3, [r3, #0]
 8001e9c:	330c      	adds	r3, #12
 8001e9e:	f8c7 3088 	str.w	r3, [r7, #136]	@ 0x88
   __ASM volatile ("ldrex %0, %1" : "=r" (result) : "Q" (*addr) );
 8001ea2:	f8d7 3088 	ldr.w	r3, [r7, #136]	@ 0x88
 8001ea6:	e853 3f00 	ldrex	r3, [r3]
 8001eaa:	f8c7 3084 	str.w	r3, [r7, #132]	@ 0x84
   return(result);
 8001eae:	f8d7 3084 	ldr.w	r3, [r7, #132]	@ 0x84
 8001eb2:	f423 7380 	bic.w	r3, r3, #256	@ 0x100
 8001eb6:	f8c7 30b8 	str.w	r3, [r7, #184]	@ 0xb8
 8001eba:	687b      	ldr	r3, [r7, #4]
 8001ebc:	681b      	ldr	r3, [r3, #0]
 8001ebe:	330c      	adds	r3, #12
 8001ec0:	f8d7 20b8 	ldr.w	r2, [r7, #184]	@ 0xb8
 8001ec4:	f8c7 2094 	str.w	r2, [r7, #148]	@ 0x94
 8001ec8:	f8c7 3090 	str.w	r3, [r7, #144]	@ 0x90
   __ASM volatile ("strex %0, %2, %1" : "=&r" (result), "=Q" (*addr) : "r" (value) );
 8001ecc:	f8d7 1090 	ldr.w	r1, [r7, #144]	@ 0x90
 8001ed0:	f8d7 2094 	ldr.w	r2, [r7, #148]	@ 0x94
 8001ed4:	e841 2300 	strex	r3, r2, [r1]
 8001ed8:	f8c7 308c 	str.w	r3, [r7, #140]	@ 0x8c
   return(result);
 8001edc:	f8d7 308c 	ldr.w	r3, [r7, #140]	@ 0x8c
 8001ee0:	2b00      	cmp	r3, #0
 8001ee2:	d1d9      	bne.n	8001e98 <HAL_UART_IRQHandler+0x2b0>
          ATOMIC_CLEAR_BIT(huart->Instance->CR3, USART_CR3_EIE);
 8001ee4:	687b      	ldr	r3, [r7, #4]
 8001ee6:	681b      	ldr	r3, [r3, #0]
 8001ee8:	3314      	adds	r3, #20
 8001eea:	677b      	str	r3, [r7, #116]	@ 0x74
   __ASM volatile ("ldrex %0, %1" : "=r" (result) : "Q" (*addr) );
 8001eec:	6f7b      	ldr	r3, [r7, #116]	@ 0x74
 8001eee:	e853 3f00 	ldrex	r3, [r3]
 8001ef2:	673b      	str	r3, [r7, #112]	@ 0x70
   return(result);
 8001ef4:	6f3b      	ldr	r3, [r7, #112]	@ 0x70
 8001ef6:	f023 0301 	bic.w	r3, r3, #1
 8001efa:	f8c7 30b4 	str.w	r3, [r7, #180]	@ 0xb4
 8001efe:	687b      	ldr	r3, [r7, #4]
 8001f00:	681b      	ldr	r3, [r3, #0]
 8001f02:	3314      	adds	r3, #20
 8001f04:	f8d7 20b4 	ldr.w	r2, [r7, #180]	@ 0xb4
 8001f08:	f8c7 2080 	str.w	r2, [r7, #128]	@ 0x80
 8001f0c:	67fb      	str	r3, [r7, #124]	@ 0x7c
   __ASM volatile ("strex %0, %2, %1" : "=&r" (result), "=Q" (*addr) : "r" (value) );
 8001f0e:	6ff9      	ldr	r1, [r7, #124]	@ 0x7c
 8001f10:	f8d7 2080 	ldr.w	r2, [r7, #128]	@ 0x80
 8001f14:	e841 2300 	strex	r3, r2, [r1]
 8001f18:	67bb      	str	r3, [r7, #120]	@ 0x78
   return(result);
 8001f1a:	6fbb      	ldr	r3, [r7, #120]	@ 0x78
 8001f1c:	2b00      	cmp	r3, #0
 8001f1e:	d1e1      	bne.n	8001ee4 <HAL_UART_IRQHandler+0x2fc>

          /* Disable the DMA transfer for the receiver request by resetting the DMAR bit
             in the UART CR3 register */
          ATOMIC_CLEAR_BIT(huart->Instance->CR3, USART_CR3_DMAR);
 8001f20:	687b      	ldr	r3, [r7, #4]
 8001f22:	681b      	ldr	r3, [r3, #0]
 8001f24:	3314      	adds	r3, #20
 8001f26:	663b      	str	r3, [r7, #96]	@ 0x60
   __ASM volatile ("ldrex %0, %1" : "=r" (result) : "Q" (*addr) );
 8001f28:	6e3b      	ldr	r3, [r7, #96]	@ 0x60
 8001f2a:	e853 3f00 	ldrex	r3, [r3]
 8001f2e:	65fb      	str	r3, [r7, #92]	@ 0x5c
   return(result);
 8001f30:	6dfb      	ldr	r3, [r7, #92]	@ 0x5c
 8001f32:	f023 0340 	bic.w	r3, r3, #64	@ 0x40
 8001f36:	f8c7 30b0 	str.w	r3, [r7, #176]	@ 0xb0
 8001f3a:	687b      	ldr	r3, [r7, #4]
 8001f3c:	681b      	ldr	r3, [r3, #0]
 8001f3e:	3314      	adds	r3, #20
 8001f40:	f8d7 20b0 	ldr.w	r2, [r7, #176]	@ 0xb0
 8001f44:	66fa      	str	r2, [r7, #108]	@ 0x6c
 8001f46:	66bb      	str	r3, [r7, #104]	@ 0x68
   __ASM volatile ("strex %0, %2, %1" : "=&r" (result), "=Q" (*addr) : "r" (value) );
 8001f48:	6eb9      	ldr	r1, [r7, #104]	@ 0x68
 8001f4a:	6efa      	ldr	r2, [r7, #108]	@ 0x6c
 8001f4c:	e841 2300 	strex	r3, r2, [r1]
 8001f50:	667b      	str	r3, [r7, #100]	@ 0x64
   return(result);
 8001f52:	6e7b      	ldr	r3, [r7, #100]	@ 0x64
 8001f54:	2b00      	cmp	r3, #0
 8001f56:	d1e3      	bne.n	8001f20 <HAL_UART_IRQHandler+0x338>

          /* At end of Rx process, restore huart->RxState to Ready */
          huart->RxState = HAL_UART_STATE_READY;
 8001f58:	687b      	ldr	r3, [r7, #4]
 8001f5a:	2220      	movs	r2, #32
 8001f5c:	f883 2042 	strb.w	r2, [r3, #66]	@ 0x42
          huart->ReceptionType = HAL_UART_RECEPTION_STANDARD;
 8001f60:	687b      	ldr	r3, [r7, #4]
 8001f62:	2200      	movs	r2, #0
 8001f64:	631a      	str	r2, [r3, #48]	@ 0x30

          ATOMIC_CLEAR_BIT(huart->Instance->CR1, USART_CR1_IDLEIE);
 8001f66:	687b      	ldr	r3, [r7, #4]
 8001f68:	681b      	ldr	r3, [r3, #0]
 8001f6a:	330c      	adds	r3, #12
 8001f6c:	64fb      	str	r3, [r7, #76]	@ 0x4c
   __ASM volatile ("ldrex %0, %1" : "=r" (result) : "Q" (*addr) );
 8001f6e:	6cfb      	ldr	r3, [r7, #76]	@ 0x4c
 8001f70:	e853 3f00 	ldrex	r3, [r3]
 8001f74:	64bb      	str	r3, [r7, #72]	@ 0x48
   return(result);
 8001f76:	6cbb      	ldr	r3, [r7, #72]	@ 0x48
 8001f78:	f023 0310 	bic.w	r3, r3, #16
 8001f7c:	f8c7 30ac 	str.w	r3, [r7, #172]	@ 0xac
 8001f80:	687b      	ldr	r3, [r7, #4]
 8001f82:	681b      	ldr	r3, [r3, #0]
 8001f84:	330c      	adds	r3, #12
 8001f86:	f8d7 20ac 	ldr.w	r2, [r7, #172]	@ 0xac
 8001f8a:	65ba      	str	r2, [r7, #88]	@ 0x58
 8001f8c:	657b      	str	r3, [r7, #84]	@ 0x54
   __ASM volatile ("strex %0, %2, %1" : "=&r" (result), "=Q" (*addr) : "r" (value) );
 8001f8e:	6d79      	ldr	r1, [r7, #84]	@ 0x54
 8001f90:	6dba      	ldr	r2, [r7, #88]	@ 0x58
 8001f92:	e841 2300 	strex	r3, r2, [r1]
 8001f96:	653b      	str	r3, [r7, #80]	@ 0x50
   return(result);
 8001f98:	6d3b      	ldr	r3, [r7, #80]	@ 0x50
 8001f9a:	2b00      	cmp	r3, #0
 8001f9c:	d1e3      	bne.n	8001f66 <HAL_UART_IRQHandler+0x37e>

          /* Last bytes received, so no need as the abort is immediate */
          (void)HAL_DMA_Abort(huart->hdmarx);
 8001f9e:	687b      	ldr	r3, [r7, #4]
 8001fa0:	6bdb      	ldr	r3, [r3, #60]	@ 0x3c
 8001fa2:	4618      	mov	r0, r3
 8001fa4:	f7fe ff31 	bl	8000e0a <HAL_DMA_Abort>
        }

        /* Initialize type of RxEvent that correspond to RxEvent callback execution;
        In this case, Rx Event type is Idle Event */
        huart->RxEventType = HAL_UART_RXEVENT_IDLE;
 8001fa8:	687b      	ldr	r3, [r7, #4]
 8001faa:	2202      	movs	r2, #2
 8001fac:	635a      	str	r2, [r3, #52]	@ 0x34
#if (USE_HAL_UART_REGISTER_CALLBACKS == 1)
        /*Call registered Rx Event callback*/
        huart->RxEventCallback(huart, (huart->RxXferSize - huart->RxXferCount));
#else
        /*Call legacy weak Rx Event callback*/
        HAL_UARTEx_RxEventCallback(huart, (huart->RxXferSize - huart->RxXferCount));
 8001fae:	687b      	ldr	r3, [r7, #4]
 8001fb0:	8d9a      	ldrh	r2, [r3, #44]	@ 0x2c
 8001fb2:	687b      	ldr	r3, [r7, #4]
 8001fb4:	8ddb      	ldrh	r3, [r3, #46]	@ 0x2e
 8001fb6:	b29b      	uxth	r3, r3
 8001fb8:	1ad3      	subs	r3, r2, r3
 8001fba:	b29b      	uxth	r3, r3
 8001fbc:	4619      	mov	r1, r3
 8001fbe:	6878      	ldr	r0, [r7, #4]
 8001fc0:	f000 f8b6 	bl	8002130 <HAL_UARTEx_RxEventCallback>
#endif /* USE_HAL_UART_REGISTER_CALLBACKS */
      }
      return;
 8001fc4:	e09c      	b.n	8002100 <HAL_UART_IRQHandler+0x518>
 8001fc6:	bf00      	nop
 8001fc8:	0800227d 	.word	0x0800227d
    else
    {
      /* DMA mode not enabled */
      /* Check received length : If all expected data are received, do nothing.
         Otherwise, if at least one data has already been received, IDLE event is to be notified to user */
      uint16_t nb_rx_data = huart->RxXferSize - huart->RxXferCount;
 8001fcc:	687b      	ldr	r3, [r7, #4]
 8001fce:	8d9a      	ldrh	r2, [r3, #44]	@ 0x2c
 8001fd0:	687b      	ldr	r3, [r7, #4]
 8001fd2:	8ddb      	ldrh	r3, [r3, #46]	@ 0x2e
 8001fd4:	b29b      	uxth	r3, r3
 8001fd6:	1ad3      	subs	r3, r2, r3
 8001fd8:	f8a7 30ce 	strh.w	r3, [r7, #206]	@ 0xce
      if ((huart->RxXferCount > 0U)
 8001fdc:	687b      	ldr	r3, [r7, #4]
 8001fde:	8ddb      	ldrh	r3, [r3, #46]	@ 0x2e
 8001fe0:	b29b      	uxth	r3, r3
 8001fe2:	2b00      	cmp	r3, #0
 8001fe4:	f000 808e 	beq.w	8002104 <HAL_UART_IRQHandler+0x51c>
          && (nb_rx_data > 0U))
 8001fe8:	f8b7 30ce 	ldrh.w	r3, [r7, #206]	@ 0xce
 8001fec:	2b00      	cmp	r3, #0
 8001fee:	f000 8089 	beq.w	8002104 <HAL_UART_IRQHandler+0x51c>
      {
        /* Disable the UART Parity Error Interrupt and RXNE interrupts */
        ATOMIC_CLEAR_BIT(huart->Instance->CR1, (USART_CR1_RXNEIE | USART_CR1_PEIE));
 8001ff2:	687b      	ldr	r3, [r7, #4]
 8001ff4:	681b      	ldr	r3, [r3, #0]
 8001ff6:	330c      	adds	r3, #12
 8001ff8:	63bb      	str	r3, [r7, #56]	@ 0x38
   __ASM volatile ("ldrex %0, %1" : "=r" (result) : "Q" (*addr) );
 8001ffa:	6bbb      	ldr	r3, [r7, #56]	@ 0x38
 8001ffc:	e853 3f00 	ldrex	r3, [r3]
 8002000:	637b      	str	r3, [r7, #52]	@ 0x34
   return(result);
 8002002:	6b7b      	ldr	r3, [r7, #52]	@ 0x34
 8002004:	f423 7390 	bic.w	r3, r3, #288	@ 0x120
 8002008:	f8c7 30c8 	str.w	r3, [r7, #200]	@ 0xc8
 800200c:	687b      	ldr	r3, [r7, #4]
 800200e:	681b      	ldr	r3, [r3, #0]
 8002010:	330c      	adds	r3, #12
 8002012:	f8d7 20c8 	ldr.w	r2, [r7, #200]	@ 0xc8
 8002016:	647a      	str	r2, [r7, #68]	@ 0x44
 8002018:	643b      	str	r3, [r7, #64]	@ 0x40
   __ASM volatile ("strex %0, %2, %1" : "=&r" (result), "=Q" (*addr) : "r" (value) );
 800201a:	6c39      	ldr	r1, [r7, #64]	@ 0x40
 800201c:	6c7a      	ldr	r2, [r7, #68]	@ 0x44
 800201e:	e841 2300 	strex	r3, r2, [r1]
 8002022:	63fb      	str	r3, [r7, #60]	@ 0x3c
   return(result);
 8002024:	6bfb      	ldr	r3, [r7, #60]	@ 0x3c
 8002026:	2b00      	cmp	r3, #0
 8002028:	d1e3      	bne.n	8001ff2 <HAL_UART_IRQHandler+0x40a>

        /* Disable the UART Error Interrupt: (Frame error, noise error, overrun error) */
        ATOMIC_CLEAR_BIT(huart->Instance->CR3, USART_CR3_EIE);
 800202a:	687b      	ldr	r3, [r7, #4]
 800202c:	681b      	ldr	r3, [r3, #0]
 800202e:	3314      	adds	r3, #20
 8002030:	627b      	str	r3, [r7, #36]	@ 0x24
   __ASM volatile ("ldrex %0, %1" : "=r" (result) : "Q" (*addr) );
 8002032:	6a7b      	ldr	r3, [r7, #36]	@ 0x24
 8002034:	e853 3f00 	ldrex	r3, [r3]
 8002038:	623b      	str	r3, [r7, #32]
   return(result);
 800203a:	6a3b      	ldr	r3, [r7, #32]
 800203c:	f023 0301 	bic.w	r3, r3, #1
 8002040:	f8c7 30c4 	str.w	r3, [r7, #196]	@ 0xc4
 8002044:	687b      	ldr	r3, [r7, #4]
 8002046:	681b      	ldr	r3, [r3, #0]
 8002048:	3314      	adds	r3, #20
 800204a:	f8d7 20c4 	ldr.w	r2, [r7, #196]	@ 0xc4
 800204e:	633a      	str	r2, [r7, #48]	@ 0x30
 8002050:	62fb      	str	r3, [r7, #44]	@ 0x2c
   __ASM volatile ("strex %0, %2, %1" : "=&r" (result), "=Q" (*addr) : "r" (value) );
 8002052:	6af9      	ldr	r1, [r7, #44]	@ 0x2c
 8002054:	6b3a      	ldr	r2, [r7, #48]	@ 0x30
 8002056:	e841 2300 	strex	r3, r2, [r1]
 800205a:	62bb      	str	r3, [r7, #40]	@ 0x28
   return(result);
 800205c:	6abb      	ldr	r3, [r7, #40]	@ 0x28
 800205e:	2b00      	cmp	r3, #0
 8002060:	d1e3      	bne.n	800202a <HAL_UART_IRQHandler+0x442>

        /* Rx process is completed, restore huart->RxState to Ready */
        huart->RxState = HAL_UART_STATE_READY;
 8002062:	687b      	ldr	r3, [r7, #4]
 8002064:	2220      	movs	r2, #32
 8002066:	f883 2042 	strb.w	r2, [r3, #66]	@ 0x42
        huart->ReceptionType = HAL_UART_RECEPTION_STANDARD;
 800206a:	687b      	ldr	r3, [r7, #4]
 800206c:	2200      	movs	r2, #0
 800206e:	631a      	str	r2, [r3, #48]	@ 0x30

        ATOMIC_CLEAR_BIT(huart->Instance->CR1, USART_CR1_IDLEIE);
 8002070:	687b      	ldr	r3, [r7, #4]
 8002072:	681b      	ldr	r3, [r3, #0]
 8002074:	330c      	adds	r3, #12
 8002076:	613b      	str	r3, [r7, #16]
   __ASM volatile ("ldrex %0, %1" : "=r" (result) : "Q" (*addr) );
 8002078:	693b      	ldr	r3, [r7, #16]
 800207a:	e853 3f00 	ldrex	r3, [r3]
 800207e:	60fb      	str	r3, [r7, #12]
   return(result);
 8002080:	68fb      	ldr	r3, [r7, #12]
 8002082:	f023 0310 	bic.w	r3, r3, #16
 8002086:	f8c7 30c0 	str.w	r3, [r7, #192]	@ 0xc0
 800208a:	687b      	ldr	r3, [r7, #4]
 800208c:	681b      	ldr	r3, [r3, #0]
 800208e:	330c      	adds	r3, #12
 8002090:	f8d7 20c0 	ldr.w	r2, [r7, #192]	@ 0xc0
 8002094:	61fa      	str	r2, [r7, #28]
 8002096:	61bb      	str	r3, [r7, #24]
   __ASM volatile ("strex %0, %2, %1" : "=&r" (result), "=Q" (*addr) : "r" (value) );
 8002098:	69b9      	ldr	r1, [r7, #24]
 800209a:	69fa      	ldr	r2, [r7, #28]
 800209c:	e841 2300 	strex	r3, r2, [r1]
 80020a0:	617b      	str	r3, [r7, #20]
   return(result);
 80020a2:	697b      	ldr	r3, [r7, #20]
 80020a4:	2b00      	cmp	r3, #0
 80020a6:	d1e3      	bne.n	8002070 <HAL_UART_IRQHandler+0x488>

        /* Initialize type of RxEvent that correspond to RxEvent callback execution;
           In this case, Rx Event type is Idle Event */
        huart->RxEventType = HAL_UART_RXEVENT_IDLE;
 80020a8:	687b      	ldr	r3, [r7, #4]
 80020aa:	2202      	movs	r2, #2
 80020ac:	635a      	str	r2, [r3, #52]	@ 0x34
#if (USE_HAL_UART_REGISTER_CALLBACKS == 1)
        /*Call registered Rx complete callback*/
        huart->RxEventCallback(huart, nb_rx_data);
#else
        /*Call legacy weak Rx Event callback*/
        HAL_UARTEx_RxEventCallback(huart, nb_rx_data);
 80020ae:	f8b7 30ce 	ldrh.w	r3, [r7, #206]	@ 0xce
 80020b2:	4619      	mov	r1, r3
 80020b4:	6878      	ldr	r0, [r7, #4]
 80020b6:	f000 f83b 	bl	8002130 <HAL_UARTEx_RxEventCallback>
#endif /* USE_HAL_UART_REGISTER_CALLBACKS */
      }
      return;
 80020ba:	e023      	b.n	8002104 <HAL_UART_IRQHandler+0x51c>
    }
  }

  /* UART in mode Transmitter ------------------------------------------------*/
  if (((isrflags & USART_SR_TXE) != RESET) && ((cr1its & USART_CR1_TXEIE) != RESET))
 80020bc:	f8d7 30e4 	ldr.w	r3, [r7, #228]	@ 0xe4
 80020c0:	f003 0380 	and.w	r3, r3, #128	@ 0x80
 80020c4:	2b00      	cmp	r3, #0
 80020c6:	d009      	beq.n	80020dc <HAL_UART_IRQHandler+0x4f4>
 80020c8:	f8d7 30e0 	ldr.w	r3, [r7, #224]	@ 0xe0
 80020cc:	f003 0380 	and.w	r3, r3, #128	@ 0x80
 80020d0:	2b00      	cmp	r3, #0
 80020d2:	d003      	beq.n	80020dc <HAL_UART_IRQHandler+0x4f4>
  {
    UART_Transmit_IT(huart);
 80020d4:	6878      	ldr	r0, [r7, #4]
 80020d6:	f000 f8e5 	bl	80022a4 <UART_Transmit_IT>
    return;
 80020da:	e014      	b.n	8002106 <HAL_UART_IRQHandler+0x51e>
  }

  /* UART in mode Transmitter end --------------------------------------------*/
  if (((isrflags & USART_SR_TC) != RESET) && ((cr1its & USART_CR1_TCIE) != RESET))
 80020dc:	f8d7 30e4 	ldr.w	r3, [r7, #228]	@ 0xe4
 80020e0:	f003 0340 	and.w	r3, r3, #64	@ 0x40
 80020e4:	2b00      	cmp	r3, #0
 80020e6:	d00e      	beq.n	8002106 <HAL_UART_IRQHandler+0x51e>
 80020e8:	f8d7 30e0 	ldr.w	r3, [r7, #224]	@ 0xe0
 80020ec:	f003 0340 	and.w	r3, r3, #64	@ 0x40
 80020f0:	2b00      	cmp	r3, #0
 80020f2:	d008      	beq.n	8002106 <HAL_UART_IRQHandler+0x51e>
  {
    UART_EndTransmit_IT(huart);
 80020f4:	6878      	ldr	r0, [r7, #4]
 80020f6:	f000 f924 	bl	8002342 <UART_EndTransmit_IT>
    return;
 80020fa:	e004      	b.n	8002106 <HAL_UART_IRQHandler+0x51e>
    return;
 80020fc:	bf00      	nop
 80020fe:	e002      	b.n	8002106 <HAL_UART_IRQHandler+0x51e>
      return;
 8002100:	bf00      	nop
 8002102:	e000      	b.n	8002106 <HAL_UART_IRQHandler+0x51e>
      return;
 8002104:	bf00      	nop
  }
}
 8002106:	37e8      	adds	r7, #232	@ 0xe8
 8002108:	46bd      	mov	sp, r7
 800210a:	bd80      	pop	{r7, pc}

0800210c <HAL_UART_TxCpltCallback>:
  * @param  huart  Pointer to a UART_HandleTypeDef structure that contains
  *                the configuration information for the specified UART module.
  * @retval None
  */
__weak void HAL_UART_TxCpltCallback(UART_HandleTypeDef *huart)
{
 800210c:	b480      	push	{r7}
 800210e:	b083      	sub	sp, #12
 8002110:	af00      	add	r7, sp, #0
 8002112:	6078      	str	r0, [r7, #4]
  /* Prevent unused argument(s) compilation warning */
  UNUSED(huart);
  /* NOTE: This function should not be modified, when the callback is needed,
           the HAL_UART_TxCpltCallback could be implemented in the user file
   */
}
 8002114:	bf00      	nop
 8002116:	370c      	adds	r7, #12
 8002118:	46bd      	mov	sp, r7
 800211a:	bc80      	pop	{r7}
 800211c:	4770      	bx	lr

0800211e <HAL_UART_ErrorCallback>:
  * @param  huart  Pointer to a UART_HandleTypeDef structure that contains
  *                the configuration information for the specified UART module.
  * @retval None
  */
__weak void HAL_UART_ErrorCallback(UART_HandleTypeDef *huart)
{
 800211e:	b480      	push	{r7}
 8002120:	b083      	sub	sp, #12
 8002122:	af00      	add	r7, sp, #0
 8002124:	6078      	str	r0, [r7, #4]
  /* Prevent unused argument(s) compilation warning */
  UNUSED(huart);
  /* NOTE: This function should not be modified, when the callback is needed,
           the HAL_UART_ErrorCallback could be implemented in the user file
   */
}
 8002126:	bf00      	nop
 8002128:	370c      	adds	r7, #12
 800212a:	46bd      	mov	sp, r7
 800212c:	bc80      	pop	{r7}
 800212e:	4770      	bx	lr

08002130 <HAL_UARTEx_RxEventCallback>:
  * @param  Size  Number of data available in application reception buffer (indicates a position in
  *               reception buffer until which, data are available)
  * @retval None
  */
__weak void HAL_UARTEx_RxEventCallback(UART_HandleTypeDef *huart, uint16_t Size)
{
 8002130:	b480      	push	{r7}
 8002132:	b083      	sub	sp, #12
 8002134:	af00      	add	r7, sp, #0
 8002136:	6078      	str	r0, [r7, #4]
 8002138:	460b      	mov	r3, r1
 800213a:	807b      	strh	r3, [r7, #2]
  UNUSED(Size);

  /* NOTE : This function should not be modified, when the callback is needed,
            the HAL_UARTEx_RxEventCallback can be implemented in the user file.
   */
}
 800213c:	bf00      	nop
 800213e:	370c      	adds	r7, #12
 8002140:	46bd      	mov	sp, r7
 8002142:	bc80      	pop	{r7}
 8002144:	4770      	bx	lr

08002146 <UART_Start_Receive_IT>:
  * @param  pData Pointer to data buffer (u8 or u16 data elements).
  * @param  Size  Amount of data elements (u8 or u16) to be received.
  * @retval HAL status
  */
HAL_StatusTypeDef UART_Start_Receive_IT(UART_HandleTypeDef *huart, uint8_t *pData, uint16_t Size)
{
 8002146:	b480      	push	{r7}
 8002148:	b085      	sub	sp, #20
 800214a:	af00      	add	r7, sp, #0
 800214c:	60f8      	str	r0, [r7, #12]
 800214e:	60b9      	str	r1, [r7, #8]
 8002150:	4613      	mov	r3, r2
 8002152:	80fb      	strh	r3, [r7, #6]
  huart->pRxBuffPtr = pData;
 8002154:	68fb      	ldr	r3, [r7, #12]
 8002156:	68ba      	ldr	r2, [r7, #8]
 8002158:	629a      	str	r2, [r3, #40]	@ 0x28
  huart->RxXferSize = Size;
 800215a:	68fb      	ldr	r3, [r7, #12]
 800215c:	88fa      	ldrh	r2, [r7, #6]
 800215e:	859a      	strh	r2, [r3, #44]	@ 0x2c
  huart->RxXferCount = Size;
 8002160:	68fb      	ldr	r3, [r7, #12]
 8002162:	88fa      	ldrh	r2, [r7, #6]
 8002164:	85da      	strh	r2, [r3, #46]	@ 0x2e

  huart->ErrorCode = HAL_UART_ERROR_NONE;
 8002166:	68fb      	ldr	r3, [r7, #12]
 8002168:	2200      	movs	r2, #0
 800216a:	645a      	str	r2, [r3, #68]	@ 0x44
  huart->RxState = HAL_UART_STATE_BUSY_RX;
 800216c:	68fb      	ldr	r3, [r7, #12]
 800216e:	2222      	movs	r2, #34	@ 0x22
 8002170:	f883 2042 	strb.w	r2, [r3, #66]	@ 0x42

  if (huart->Init.Parity != UART_PARITY_NONE)
 8002174:	68fb      	ldr	r3, [r7, #12]
 8002176:	691b      	ldr	r3, [r3, #16]
 8002178:	2b00      	cmp	r3, #0
 800217a:	d007      	beq.n	800218c <UART_Start_Receive_IT+0x46>
  {
    /* Enable the UART Parity Error Interrupt */
    __HAL_UART_ENABLE_IT(huart, UART_IT_PE);
 800217c:	68fb      	ldr	r3, [r7, #12]
 800217e:	681b      	ldr	r3, [r3, #0]
 8002180:	68da      	ldr	r2, [r3, #12]
 8002182:	68fb      	ldr	r3, [r7, #12]
 8002184:	681b      	ldr	r3, [r3, #0]
 8002186:	f442 7280 	orr.w	r2, r2, #256	@ 0x100
 800218a:	60da      	str	r2, [r3, #12]
  }

  /* Enable the UART Error Interrupt: (Frame error, noise error, overrun error) */
  __HAL_UART_ENABLE_IT(huart, UART_IT_ERR);
 800218c:	68fb      	ldr	r3, [r7, #12]
 800218e:	681b      	ldr	r3, [r3, #0]
 8002190:	695a      	ldr	r2, [r3, #20]
 8002192:	68fb      	ldr	r3, [r7, #12]
 8002194:	681b      	ldr	r3, [r3, #0]
 8002196:	f042 0201 	orr.w	r2, r2, #1
 800219a:	615a      	str	r2, [r3, #20]

  /* Enable the UART Data Register not empty Interrupt */
  __HAL_UART_ENABLE_IT(huart, UART_IT_RXNE);
 800219c:	68fb      	ldr	r3, [r7, #12]
 800219e:	681b      	ldr	r3, [r3, #0]
 80021a0:	68da      	ldr	r2, [r3, #12]
 80021a2:	68fb      	ldr	r3, [r7, #12]
 80021a4:	681b      	ldr	r3, [r3, #0]
 80021a6:	f042 0220 	orr.w	r2, r2, #32
 80021aa:	60da      	str	r2, [r3, #12]

  return HAL_OK;
 80021ac:	2300      	movs	r3, #0
}
 80021ae:	4618      	mov	r0, r3
 80021b0:	3714      	adds	r7, #20
 80021b2:	46bd      	mov	sp, r7
 80021b4:	bc80      	pop	{r7}
 80021b6:	4770      	bx	lr

080021b8 <UART_EndRxTransfer>:
  * @brief  End ongoing Rx transfer on UART peripheral (following error detection or Reception completion).
  * @param  huart UART handle.
  * @retval None
  */
static void UART_EndRxTransfer(UART_HandleTypeDef *huart)
{
 80021b8:	b480      	push	{r7}
 80021ba:	b095      	sub	sp, #84	@ 0x54
 80021bc:	af00      	add	r7, sp, #0
 80021be:	6078      	str	r0, [r7, #4]
  /* Disable RXNE, PE and ERR (Frame error, noise error, overrun error) interrupts */
  ATOMIC_CLEAR_BIT(huart->Instance->CR1, (USART_CR1_RXNEIE | USART_CR1_PEIE));
 80021c0:	687b      	ldr	r3, [r7, #4]
 80021c2:	681b      	ldr	r3, [r3, #0]
 80021c4:	330c      	adds	r3, #12
 80021c6:	637b      	str	r3, [r7, #52]	@ 0x34
   __ASM volatile ("ldrex %0, %1" : "=r" (result) : "Q" (*addr) );
 80021c8:	6b7b      	ldr	r3, [r7, #52]	@ 0x34
 80021ca:	e853 3f00 	ldrex	r3, [r3]
 80021ce:	633b      	str	r3, [r7, #48]	@ 0x30
   return(result);
 80021d0:	6b3b      	ldr	r3, [r7, #48]	@ 0x30
 80021d2:	f423 7390 	bic.w	r3, r3, #288	@ 0x120
 80021d6:	64fb      	str	r3, [r7, #76]	@ 0x4c
 80021d8:	687b      	ldr	r3, [r7, #4]
 80021da:	681b      	ldr	r3, [r3, #0]
 80021dc:	330c      	adds	r3, #12
 80021de:	6cfa      	ldr	r2, [r7, #76]	@ 0x4c
 80021e0:	643a      	str	r2, [r7, #64]	@ 0x40
 80021e2:	63fb      	str	r3, [r7, #60]	@ 0x3c
   __ASM volatile ("strex %0, %2, %1" : "=&r" (result), "=Q" (*addr) : "r" (value) );
 80021e4:	6bf9      	ldr	r1, [r7, #60]	@ 0x3c
 80021e6:	6c3a      	ldr	r2, [r7, #64]	@ 0x40
 80021e8:	e841 2300 	strex	r3, r2, [r1]
 80021ec:	63bb      	str	r3, [r7, #56]	@ 0x38
   return(result);
 80021ee:	6bbb      	ldr	r3, [r7, #56]	@ 0x38
 80021f0:	2b00      	cmp	r3, #0
 80021f2:	d1e5      	bne.n	80021c0 <UART_EndRxTransfer+0x8>
  ATOMIC_CLEAR_BIT(huart->Instance->CR3, USART_CR3_EIE);
 80021f4:	687b      	ldr	r3, [r7, #4]
 80021f6:	681b      	ldr	r3, [r3, #0]
 80021f8:	3314      	adds	r3, #20
 80021fa:	623b      	str	r3, [r7, #32]
   __ASM volatile ("ldrex %0, %1" : "=r" (result) : "Q" (*addr) );
 80021fc:	6a3b      	ldr	r3, [r7, #32]
 80021fe:	e853 3f00 	ldrex	r3, [r3]
 8002202:	61fb      	str	r3, [r7, #28]
   return(result);
 8002204:	69fb      	ldr	r3, [r7, #28]
 8002206:	f023 0301 	bic.w	r3, r3, #1
 800220a:	64bb      	str	r3, [r7, #72]	@ 0x48
 800220c:	687b      	ldr	r3, [r7, #4]
 800220e:	681b      	ldr	r3, [r3, #0]
 8002210:	3314      	adds	r3, #20
 8002212:	6cba      	ldr	r2, [r7, #72]	@ 0x48
 8002214:	62fa      	str	r2, [r7, #44]	@ 0x2c
 8002216:	62bb      	str	r3, [r7, #40]	@ 0x28
   __ASM volatile ("strex %0, %2, %1" : "=&r" (result), "=Q" (*addr) : "r" (value) );
 8002218:	6ab9      	ldr	r1, [r7, #40]	@ 0x28
 800221a:	6afa      	ldr	r2, [r7, #44]	@ 0x2c
 800221c:	e841 2300 	strex	r3, r2, [r1]
 8002220:	627b      	str	r3, [r7, #36]	@ 0x24
   return(result);
 8002222:	6a7b      	ldr	r3, [r7, #36]	@ 0x24
 8002224:	2b00      	cmp	r3, #0
 8002226:	d1e5      	bne.n	80021f4 <UART_EndRxTransfer+0x3c>

  /* In case of reception waiting for IDLE event, disable also the IDLE IE interrupt source */
  if (huart->ReceptionType == HAL_UART_RECEPTION_TOIDLE)
 8002228:	687b      	ldr	r3, [r7, #4]
 800222a:	6b1b      	ldr	r3, [r3, #48]	@ 0x30
 800222c:	2b01      	cmp	r3, #1
 800222e:	d119      	bne.n	8002264 <UART_EndRxTransfer+0xac>
  {
    ATOMIC_CLEAR_BIT(huart->Instance->CR1, USART_CR1_IDLEIE);
 8002230:	687b      	ldr	r3, [r7, #4]
 8002232:	681b      	ldr	r3, [r3, #0]
 8002234:	330c      	adds	r3, #12
 8002236:	60fb      	str	r3, [r7, #12]
   __ASM volatile ("ldrex %0, %1" : "=r" (result) : "Q" (*addr) );
 8002238:	68fb      	ldr	r3, [r7, #12]
 800223a:	e853 3f00 	ldrex	r3, [r3]
 800223e:	60bb      	str	r3, [r7, #8]
   return(result);
 8002240:	68bb      	ldr	r3, [r7, #8]
 8002242:	f023 0310 	bic.w	r3, r3, #16
 8002246:	647b      	str	r3, [r7, #68]	@ 0x44
 8002248:	687b      	ldr	r3, [r7, #4]
 800224a:	681b      	ldr	r3, [r3, #0]
 800224c:	330c      	adds	r3, #12
 800224e:	6c7a      	ldr	r2, [r7, #68]	@ 0x44
 8002250:	61ba      	str	r2, [r7, #24]
 8002252:	617b      	str	r3, [r7, #20]
   __ASM volatile ("strex %0, %2, %1" : "=&r" (result), "=Q" (*addr) : "r" (value) );
 8002254:	6979      	ldr	r1, [r7, #20]
 8002256:	69ba      	ldr	r2, [r7, #24]
 8002258:	e841 2300 	strex	r3, r2, [r1]
 800225c:	613b      	str	r3, [r7, #16]
   return(result);
 800225e:	693b      	ldr	r3, [r7, #16]
 8002260:	2b00      	cmp	r3, #0
 8002262:	d1e5      	bne.n	8002230 <UART_EndRxTransfer+0x78>
  }

  /* At end of Rx process, restore huart->RxState to Ready */
  huart->RxState = HAL_UART_STATE_READY;
 8002264:	687b      	ldr	r3, [r7, #4]
 8002266:	2220      	movs	r2, #32
 8002268:	f883 2042 	strb.w	r2, [r3, #66]	@ 0x42
  huart->ReceptionType = HAL_UART_RECEPTION_STANDARD;
 800226c:	687b      	ldr	r3, [r7, #4]
 800226e:	2200      	movs	r2, #0
 8002270:	631a      	str	r2, [r3, #48]	@ 0x30
}
 8002272:	bf00      	nop
 8002274:	3754      	adds	r7, #84	@ 0x54
 8002276:	46bd      	mov	sp, r7
 8002278:	bc80      	pop	{r7}
 800227a:	4770      	bx	lr

0800227c <UART_DMAAbortOnError>:
  * @param  hdma  Pointer to a DMA_HandleTypeDef structure that contains
  *               the configuration information for the specified DMA module.
  * @retval None
  */
static void UART_DMAAbortOnError(DMA_HandleTypeDef *hdma)
{
 800227c:	b580      	push	{r7, lr}
 800227e:	b084      	sub	sp, #16
 8002280:	af00      	add	r7, sp, #0
 8002282:	6078      	str	r0, [r7, #4]
  UART_HandleTypeDef *huart = (UART_HandleTypeDef *)((DMA_HandleTypeDef *)hdma)->Parent;
 8002284:	687b      	ldr	r3, [r7, #4]
 8002286:	6a5b      	ldr	r3, [r3, #36]	@ 0x24
 8002288:	60fb      	str	r3, [r7, #12]
  huart->RxXferCount = 0x00U;
 800228a:	68fb      	ldr	r3, [r7, #12]
 800228c:	2200      	movs	r2, #0
 800228e:	85da      	strh	r2, [r3, #46]	@ 0x2e
  huart->TxXferCount = 0x00U;
 8002290:	68fb      	ldr	r3, [r7, #12]
 8002292:	2200      	movs	r2, #0
 8002294:	84da      	strh	r2, [r3, #38]	@ 0x26
#if (USE_HAL_UART_REGISTER_CALLBACKS == 1)
  /*Call registered error callback*/
  huart->ErrorCallback(huart);
#else
  /*Call legacy weak error callback*/
  HAL_UART_ErrorCallback(huart);
 8002296:	68f8      	ldr	r0, [r7, #12]
 8002298:	f7ff ff41 	bl	800211e <HAL_UART_ErrorCallback>
#endif /* USE_HAL_UART_REGISTER_CALLBACKS */
}
 800229c:	bf00      	nop
 800229e:	3710      	adds	r7, #16
 80022a0:	46bd      	mov	sp, r7
 80022a2:	bd80      	pop	{r7, pc}

080022a4 <UART_Transmit_IT>:
  * @param  huart  Pointer to a UART_HandleTypeDef structure that contains
  *                the configuration information for the specified UART module.
  * @retval HAL status
  */
static HAL_StatusTypeDef UART_Transmit_IT(UART_HandleTypeDef *huart)
{
 80022a4:	b480      	push	{r7}
 80022a6:	b085      	sub	sp, #20
 80022a8:	af00      	add	r7, sp, #0
 80022aa:	6078      	str	r0, [r7, #4]
  const uint16_t *tmp;

  /* Check that a Tx process is ongoing */
  if (huart->gState == HAL_UART_STATE_BUSY_TX)
 80022ac:	687b      	ldr	r3, [r7, #4]
 80022ae:	f893 3041 	ldrb.w	r3, [r3, #65]	@ 0x41
 80022b2:	b2db      	uxtb	r3, r3
 80022b4:	2b21      	cmp	r3, #33	@ 0x21
 80022b6:	d13e      	bne.n	8002336 <UART_Transmit_IT+0x92>
  {
    if ((huart->Init.WordLength == UART_WORDLENGTH_9B) && (huart->Init.Parity == UART_PARITY_NONE))
 80022b8:	687b      	ldr	r3, [r7, #4]
 80022ba:	689b      	ldr	r3, [r3, #8]
 80022bc:	f5b3 5f80 	cmp.w	r3, #4096	@ 0x1000
 80022c0:	d114      	bne.n	80022ec <UART_Transmit_IT+0x48>
 80022c2:	687b      	ldr	r3, [r7, #4]
 80022c4:	691b      	ldr	r3, [r3, #16]
 80022c6:	2b00      	cmp	r3, #0
 80022c8:	d110      	bne.n	80022ec <UART_Transmit_IT+0x48>
    {
      tmp = (const uint16_t *) huart->pTxBuffPtr;
 80022ca:	687b      	ldr	r3, [r7, #4]
 80022cc:	6a1b      	ldr	r3, [r3, #32]
 80022ce:	60fb      	str	r3, [r7, #12]
      huart->Instance->DR = (uint16_t)(*tmp & (uint16_t)0x01FF);
 80022d0:	68fb      	ldr	r3, [r7, #12]
 80022d2:	881b      	ldrh	r3, [r3, #0]
 80022d4:	461a      	mov	r2, r3
 80022d6:	687b      	ldr	r3, [r7, #4]
 80022d8:	681b      	ldr	r3, [r3, #0]
 80022da:	f3c2 0208 	ubfx	r2, r2, #0, #9
 80022de:	605a      	str	r2, [r3, #4]
      huart->pTxBuffPtr += 2U;
 80022e0:	687b      	ldr	r3, [r7, #4]
 80022e2:	6a1b      	ldr	r3, [r3, #32]
 80022e4:	1c9a      	adds	r2, r3, #2
 80022e6:	687b      	ldr	r3, [r7, #4]
 80022e8:	621a      	str	r2, [r3, #32]
 80022ea:	e008      	b.n	80022fe <UART_Transmit_IT+0x5a>
    }
    else
    {
      huart->Instance->DR = (uint8_t)(*huart->pTxBuffPtr++ & (uint8_t)0x00FF);
 80022ec:	687b      	ldr	r3, [r7, #4]
 80022ee:	6a1b      	ldr	r3, [r3, #32]
 80022f0:	1c59      	adds	r1, r3, #1
 80022f2:	687a      	ldr	r2, [r7, #4]
 80022f4:	6211      	str	r1, [r2, #32]
 80022f6:	781a      	ldrb	r2, [r3, #0]
 80022f8:	687b      	ldr	r3, [r7, #4]
 80022fa:	681b      	ldr	r3, [r3, #0]
 80022fc:	605a      	str	r2, [r3, #4]
    }

    if (--huart->TxXferCount == 0U)
 80022fe:	687b      	ldr	r3, [r7, #4]
 8002300:	8cdb      	ldrh	r3, [r3, #38]	@ 0x26
 8002302:	b29b      	uxth	r3, r3
 8002304:	3b01      	subs	r3, #1
 8002306:	b29b      	uxth	r3, r3
 8002308:	687a      	ldr	r2, [r7, #4]
 800230a:	4619      	mov	r1, r3
 800230c:	84d1      	strh	r1, [r2, #38]	@ 0x26
 800230e:	2b00      	cmp	r3, #0
 8002310:	d10f      	bne.n	8002332 <UART_Transmit_IT+0x8e>
    {
      /* Disable the UART Transmit Data Register Empty Interrupt */
      __HAL_UART_DISABLE_IT(huart, UART_IT_TXE);
 8002312:	687b      	ldr	r3, [r7, #4]
 8002314:	681b      	ldr	r3, [r3, #0]
 8002316:	68da      	ldr	r2, [r3, #12]
 8002318:	687b      	ldr	r3, [r7, #4]
 800231a:	681b      	ldr	r3, [r3, #0]
 800231c:	f022 0280 	bic.w	r2, r2, #128	@ 0x80
 8002320:	60da      	str	r2, [r3, #12]

      /* Enable the UART Transmit Complete Interrupt */
      __HAL_UART_ENABLE_IT(huart, UART_IT_TC);
 8002322:	687b      	ldr	r3, [r7, #4]
 8002324:	681b      	ldr	r3, [r3, #0]
 8002326:	68da      	ldr	r2, [r3, #12]
 8002328:	687b      	ldr	r3, [r7, #4]
 800232a:	681b      	ldr	r3, [r3, #0]
 800232c:	f042 0240 	orr.w	r2, r2, #64	@ 0x40
 8002330:	60da      	str	r2, [r3, #12]
    }
    return HAL_OK;
 8002332:	2300      	movs	r3, #0
 8002334:	e000      	b.n	8002338 <UART_Transmit_IT+0x94>
  }
  else
  {
    return HAL_BUSY;
 8002336:	2302      	movs	r3, #2
  }
}
 8002338:	4618      	mov	r0, r3
 800233a:	3714      	adds	r7, #20
 800233c:	46bd      	mov	sp, r7
 800233e:	bc80      	pop	{r7}
 8002340:	4770      	bx	lr

08002342 <UART_EndTransmit_IT>:
  * @param  huart  Pointer to a UART_HandleTypeDef structure that contains
  *                the configuration information for the specified UART module.
  * @retval HAL status
  */
static HAL_StatusTypeDef UART_EndTransmit_IT(UART_HandleTypeDef *huart)
{
 8002342:	b580      	push	{r7, lr}
 8002344:	b082      	sub	sp, #8
 8002346:	af00      	add	r7, sp, #0
 8002348:	6078      	str	r0, [r7, #4]
  /* Disable the UART Transmit Complete Interrupt */
  __HAL_UART_DISABLE_IT(huart, UART_IT_TC);
 800234a:	687b      	ldr	r3, [r7, #4]
 800234c:	681b      	ldr	r3, [r3, #0]
 800234e:	68da      	ldr	r2, [r3, #12]
 8002350:	687b      	ldr	r3, [r7, #4]
 8002352:	681b      	ldr	r3, [r3, #0]
 8002354:	f022 0240 	bic.w	r2, r2, #64	@ 0x40
 8002358:	60da      	str	r2, [r3, #12]

  /* Tx process is ended, restore huart->gState to Ready */
  huart->gState = HAL_UART_STATE_READY;
 800235a:	687b      	ldr	r3, [r7, #4]
 800235c:	2220      	movs	r2, #32
 800235e:	f883 2041 	strb.w	r2, [r3, #65]	@ 0x41
#if (USE_HAL_UART_REGISTER_CALLBACKS == 1)
  /*Call registered Tx complete callback*/
  huart->TxCpltCallback(huart);
#else
  /*Call legacy weak Tx complete callback*/
  HAL_UART_TxCpltCallback(huart);
 8002362:	6878      	ldr	r0, [r7, #4]
 8002364:	f7ff fed2 	bl	800210c <HAL_UART_TxCpltCallback>
#endif /* USE_HAL_UART_REGISTER_CALLBACKS */

  return HAL_OK;
 8002368:	2300      	movs	r3, #0
}
 800236a:	4618      	mov	r0, r3
 800236c:	3708      	adds	r7, #8
 800236e:	46bd      	mov	sp, r7
 8002370:	bd80      	pop	{r7, pc}

08002372 <UART_Receive_IT>:
  * @param  huart  Pointer to a UART_HandleTypeDef structure that contains
  *                the configuration information for the specified UART module.
  * @retval HAL status
  */
static HAL_StatusTypeDef UART_Receive_IT(UART_HandleTypeDef *huart)
{
 8002372:	b580      	push	{r7, lr}
 8002374:	b08c      	sub	sp, #48	@ 0x30
 8002376:	af00      	add	r7, sp, #0
 8002378:	6078      	str	r0, [r7, #4]
  uint8_t  *pdata8bits;
  uint16_t *pdata16bits;

  /* Check that a Rx process is ongoing */
  if (huart->RxState == HAL_UART_STATE_BUSY_RX)
 800237a:	687b      	ldr	r3, [r7, #4]
 800237c:	f893 3042 	ldrb.w	r3, [r3, #66]	@ 0x42
 8002380:	b2db      	uxtb	r3, r3
 8002382:	2b22      	cmp	r3, #34	@ 0x22
 8002384:	f040 80ae 	bne.w	80024e4 <UART_Receive_IT+0x172>
  {
    if ((huart->Init.WordLength == UART_WORDLENGTH_9B) && (huart->Init.Parity == UART_PARITY_NONE))
 8002388:	687b      	ldr	r3, [r7, #4]
 800238a:	689b      	ldr	r3, [r3, #8]
 800238c:	f5b3 5f80 	cmp.w	r3, #4096	@ 0x1000
 8002390:	d117      	bne.n	80023c2 <UART_Receive_IT+0x50>
 8002392:	687b      	ldr	r3, [r7, #4]
 8002394:	691b      	ldr	r3, [r3, #16]
 8002396:	2b00      	cmp	r3, #0
 8002398:	d113      	bne.n	80023c2 <UART_Receive_IT+0x50>
    {
      pdata8bits  = NULL;
 800239a:	2300      	movs	r3, #0
 800239c:	62fb      	str	r3, [r7, #44]	@ 0x2c
      pdata16bits = (uint16_t *) huart->pRxBuffPtr;
 800239e:	687b      	ldr	r3, [r7, #4]
 80023a0:	6a9b      	ldr	r3, [r3, #40]	@ 0x28
 80023a2:	62bb      	str	r3, [r7, #40]	@ 0x28
      *pdata16bits = (uint16_t)(huart->Instance->DR & (uint16_t)0x01FF);
 80023a4:	687b      	ldr	r3, [r7, #4]
 80023a6:	681b      	ldr	r3, [r3, #0]
 80023a8:	685b      	ldr	r3, [r3, #4]
 80023aa:	b29b      	uxth	r3, r3
 80023ac:	f3c3 0308 	ubfx	r3, r3, #0, #9
 80023b0:	b29a      	uxth	r2, r3
 80023b2:	6abb      	ldr	r3, [r7, #40]	@ 0x28
 80023b4:	801a      	strh	r2, [r3, #0]
      huart->pRxBuffPtr += 2U;
 80023b6:	687b      	ldr	r3, [r7, #4]
 80023b8:	6a9b      	ldr	r3, [r3, #40]	@ 0x28
 80023ba:	1c9a      	adds	r2, r3, #2
 80023bc:	687b      	ldr	r3, [r7, #4]
 80023be:	629a      	str	r2, [r3, #40]	@ 0x28
 80023c0:	e026      	b.n	8002410 <UART_Receive_IT+0x9e>
    }
    else
    {
      pdata8bits = (uint8_t *) huart->pRxBuffPtr;
 80023c2:	687b      	ldr	r3, [r7, #4]
 80023c4:	6a9b      	ldr	r3, [r3, #40]	@ 0x28
 80023c6:	62fb      	str	r3, [r7, #44]	@ 0x2c
      pdata16bits  = NULL;
 80023c8:	2300      	movs	r3, #0
 80023ca:	62bb      	str	r3, [r7, #40]	@ 0x28

      if ((huart->Init.WordLength == UART_WORDLENGTH_9B) || ((huart->Init.WordLength == UART_WORDLENGTH_8B) && (huart->Init.Parity == UART_PARITY_NONE)))
 80023cc:	687b      	ldr	r3, [r7, #4]
 80023ce:	689b      	ldr	r3, [r3, #8]
 80023d0:	f5b3 5f80 	cmp.w	r3, #4096	@ 0x1000
 80023d4:	d007      	beq.n	80023e6 <UART_Receive_IT+0x74>
 80023d6:	687b      	ldr	r3, [r7, #4]
 80023d8:	689b      	ldr	r3, [r3, #8]
 80023da:	2b00      	cmp	r3, #0
 80023dc:	d10a      	bne.n	80023f4 <UART_Receive_IT+0x82>
 80023de:	687b      	ldr	r3, [r7, #4]
 80023e0:	691b      	ldr	r3, [r3, #16]
 80023e2:	2b00      	cmp	r3, #0
 80023e4:	d106      	bne.n	80023f4 <UART_Receive_IT+0x82>
      {
        *pdata8bits = (uint8_t)(huart->Instance->DR & (uint8_t)0x00FF);
 80023e6:	687b      	ldr	r3, [r7, #4]
 80023e8:	681b      	ldr	r3, [r3, #0]
 80023ea:	685b      	ldr	r3, [r3, #4]
 80023ec:	b2da      	uxtb	r2, r3
 80023ee:	6afb      	ldr	r3, [r7, #44]	@ 0x2c
 80023f0:	701a      	strb	r2, [r3, #0]
 80023f2:	e008      	b.n	8002406 <UART_Receive_IT+0x94>
      }
      else
      {
        *pdata8bits = (uint8_t)(huart->Instance->DR & (uint8_t)0x007F);
 80023f4:	687b      	ldr	r3, [r7, #4]
 80023f6:	681b      	ldr	r3, [r3, #0]
 80023f8:	685b      	ldr	r3, [r3, #4]
 80023fa:	b2db      	uxtb	r3, r3
 80023fc:	f003 037f 	and.w	r3, r3, #127	@ 0x7f
 8002400:	b2da      	uxtb	r2, r3
 8002402:	6afb      	ldr	r3, [r7, #44]	@ 0x2c
 8002404:	701a      	strb	r2, [r3, #0]
      }
      huart->pRxBuffPtr += 1U;
 8002406:	687b      	ldr	r3, [r7, #4]
 8002408:	6a9b      	ldr	r3, [r3, #40]	@ 0x28
 800240a:	1c5a      	adds	r2, r3, #1
 800240c:	687b      	ldr	r3, [r7, #4]
 800240e:	629a      	str	r2, [r3, #40]	@ 0x28
    }

    if (--huart->RxXferCount == 0U)
 8002410:	687b      	ldr	r3, [r7, #4]
 8002412:	8ddb      	ldrh	r3, [r3, #46]	@ 0x2e
 8002414:	b29b      	uxth	r3, r3
 8002416:	3b01      	subs	r3, #1
 8002418:	b29b      	uxth	r3, r3
 800241a:	687a      	ldr	r2, [r7, #4]
 800241c:	4619      	mov	r1, r3
 800241e:	85d1      	strh	r1, [r2, #46]	@ 0x2e
 8002420:	2b00      	cmp	r3, #0
 8002422:	d15d      	bne.n	80024e0 <UART_Receive_IT+0x16e>
    {
      /* Disable the UART Data Register not empty Interrupt */
      __HAL_UART_DISABLE_IT(huart, UART_IT_RXNE);
 8002424:	687b      	ldr	r3, [r7, #4]
 8002426:	681b      	ldr	r3, [r3, #0]
 8002428:	68da      	ldr	r2, [r3, #12]
 800242a:	687b      	ldr	r3, [r7, #4]
 800242c:	681b      	ldr	r3, [r3, #0]
 800242e:	f022 0220 	bic.w	r2, r2, #32
 8002432:	60da      	str	r2, [r3, #12]

      /* Disable the UART Parity Error Interrupt */
      __HAL_UART_DISABLE_IT(huart, UART_IT_PE);
 8002434:	687b      	ldr	r3, [r7, #4]
 8002436:	681b      	ldr	r3, [r3, #0]
 8002438:	68da      	ldr	r2, [r3, #12]
 800243a:	687b      	ldr	r3, [r7, #4]
 800243c:	681b      	ldr	r3, [r3, #0]
 800243e:	f422 7280 	bic.w	r2, r2, #256	@ 0x100
 8002442:	60da      	str	r2, [r3, #12]

      /* Disable the UART Error Interrupt: (Frame error, noise error, overrun error) */
      __HAL_UART_DISABLE_IT(huart, UART_IT_ERR);
 8002444:	687b      	ldr	r3, [r7, #4]
 8002446:	681b      	ldr	r3, [r3, #0]
 8002448:	695a      	ldr	r2, [r3, #20]
 800244a:	687b      	ldr	r3, [r7, #4]
 800244c:	681b      	ldr	r3, [r3, #0]
 800244e:	f022 0201 	bic.w	r2, r2, #1
 8002452:	615a      	str	r2, [r3, #20]

      /* Rx process is completed, restore huart->RxState to Ready */
      huart->RxState = HAL_UART_STATE_READY;
 8002454:	687b      	ldr	r3, [r7, #4]
 8002456:	2220      	movs	r2, #32
 8002458:	f883 2042 	strb.w	r2, [r3, #66]	@ 0x42

      /* Initialize type of RxEvent to Transfer Complete */
      huart->RxEventType = HAL_UART_RXEVENT_TC;
 800245c:	687b      	ldr	r3, [r7, #4]
 800245e:	2200      	movs	r2, #0
 8002460:	635a      	str	r2, [r3, #52]	@ 0x34

      /* Check current reception Mode :
         If Reception till IDLE event has been selected : */
      if (huart->ReceptionType == HAL_UART_RECEPTION_TOIDLE)
 8002462:	687b      	ldr	r3, [r7, #4]
 8002464:	6b1b      	ldr	r3, [r3, #48]	@ 0x30
 8002466:	2b01      	cmp	r3, #1
 8002468:	d135      	bne.n	80024d6 <UART_Receive_IT+0x164>
      {
        /* Set reception type to Standard */
        huart->ReceptionType = HAL_UART_RECEPTION_STANDARD;
 800246a:	687b      	ldr	r3, [r7, #4]
 800246c:	2200      	movs	r2, #0
 800246e:	631a      	str	r2, [r3, #48]	@ 0x30

        /* Disable IDLE interrupt */
        ATOMIC_CLEAR_BIT(huart->Instance->CR1, USART_CR1_IDLEIE);
 8002470:	687b      	ldr	r3, [r7, #4]
 8002472:	681b      	ldr	r3, [r3, #0]
 8002474:	330c      	adds	r3, #12
 8002476:	617b      	str	r3, [r7, #20]
   __ASM volatile ("ldrex %0, %1" : "=r" (result) : "Q" (*addr) );
 8002478:	697b      	ldr	r3, [r7, #20]
 800247a:	e853 3f00 	ldrex	r3, [r3]
 800247e:	613b      	str	r3, [r7, #16]
   return(result);
 8002480:	693b      	ldr	r3, [r7, #16]
 8002482:	f023 0310 	bic.w	r3, r3, #16
 8002486:	627b      	str	r3, [r7, #36]	@ 0x24
 8002488:	687b      	ldr	r3, [r7, #4]
 800248a:	681b      	ldr	r3, [r3, #0]
 800248c:	330c      	adds	r3, #12
 800248e:	6a7a      	ldr	r2, [r7, #36]	@ 0x24
 8002490:	623a      	str	r2, [r7, #32]
 8002492:	61fb      	str	r3, [r7, #28]
   __ASM volatile ("strex %0, %2, %1" : "=&r" (result), "=Q" (*addr) : "r" (value) );
 8002494:	69f9      	ldr	r1, [r7, #28]
 8002496:	6a3a      	ldr	r2, [r7, #32]
 8002498:	e841 2300 	strex	r3, r2, [r1]
 800249c:	61bb      	str	r3, [r7, #24]
   return(result);
 800249e:	69bb      	ldr	r3, [r7, #24]
 80024a0:	2b00      	cmp	r3, #0
 80024a2:	d1e5      	bne.n	8002470 <UART_Receive_IT+0xfe>

        /* Check if IDLE flag is set */
        if (__HAL_UART_GET_FLAG(huart, UART_FLAG_IDLE))
 80024a4:	687b      	ldr	r3, [r7, #4]
 80024a6:	681b      	ldr	r3, [r3, #0]
 80024a8:	681b      	ldr	r3, [r3, #0]
 80024aa:	f003 0310 	and.w	r3, r3, #16
 80024ae:	2b10      	cmp	r3, #16
 80024b0:	d10a      	bne.n	80024c8 <UART_Receive_IT+0x156>
        {
          /* Clear IDLE flag in ISR */
          __HAL_UART_CLEAR_IDLEFLAG(huart);
 80024b2:	2300      	movs	r3, #0
 80024b4:	60fb      	str	r3, [r7, #12]
 80024b6:	687b      	ldr	r3, [r7, #4]
 80024b8:	681b      	ldr	r3, [r3, #0]
 80024ba:	681b      	ldr	r3, [r3, #0]
 80024bc:	60fb      	str	r3, [r7, #12]
 80024be:	687b      	ldr	r3, [r7, #4]
 80024c0:	681b      	ldr	r3, [r3, #0]
 80024c2:	685b      	ldr	r3, [r3, #4]
 80024c4:	60fb      	str	r3, [r7, #12]
 80024c6:	68fb      	ldr	r3, [r7, #12]
#if (USE_HAL_UART_REGISTER_CALLBACKS == 1)
        /*Call registered Rx Event callback*/
        huart->RxEventCallback(huart, huart->RxXferSize);
#else
        /*Call legacy weak Rx Event callback*/
        HAL_UARTEx_RxEventCallback(huart, huart->RxXferSize);
 80024c8:	687b      	ldr	r3, [r7, #4]
 80024ca:	8d9b      	ldrh	r3, [r3, #44]	@ 0x2c
 80024cc:	4619      	mov	r1, r3
 80024ce:	6878      	ldr	r0, [r7, #4]
 80024d0:	f7ff fe2e 	bl	8002130 <HAL_UARTEx_RxEventCallback>
 80024d4:	e002      	b.n	80024dc <UART_Receive_IT+0x16a>
#if (USE_HAL_UART_REGISTER_CALLBACKS == 1)
        /*Call registered Rx complete callback*/
        huart->RxCpltCallback(huart);
#else
        /*Call legacy weak Rx complete callback*/
        HAL_UART_RxCpltCallback(huart);
 80024d6:	6878      	ldr	r0, [r7, #4]
 80024d8:	f7fd fe6c 	bl	80001b4 <HAL_UART_RxCpltCallback>
#endif /* USE_HAL_UART_REGISTER_CALLBACKS */
      }

      return HAL_OK;
 80024dc:	2300      	movs	r3, #0
 80024de:	e002      	b.n	80024e6 <UART_Receive_IT+0x174>
    }
    return HAL_OK;
 80024e0:	2300      	movs	r3, #0
 80024e2:	e000      	b.n	80024e6 <UART_Receive_IT+0x174>
  }
  else
  {
    return HAL_BUSY;
 80024e4:	2302      	movs	r3, #2
  }
}
 80024e6:	4618      	mov	r0, r3
 80024e8:	3730      	adds	r7, #48	@ 0x30
 80024ea:	46bd      	mov	sp, r7
 80024ec:	bd80      	pop	{r7, pc}
	...

080024f0 <UART_SetConfig>:
  * @param  huart  Pointer to a UART_HandleTypeDef structure that contains
  *                the configuration information for the specified UART module.
  * @retval None
  */
static void UART_SetConfig(UART_HandleTypeDef *huart)
{
 80024f0:	b580      	push	{r7, lr}
 80024f2:	b084      	sub	sp, #16
 80024f4:	af00      	add	r7, sp, #0
 80024f6:	6078      	str	r0, [r7, #4]
  assert_param(IS_UART_MODE(huart->Init.Mode));

  /*-------------------------- USART CR2 Configuration -----------------------*/
  /* Configure the UART Stop Bits: Set STOP[13:12] bits
     according to huart->Init.StopBits value */
  MODIFY_REG(huart->Instance->CR2, USART_CR2_STOP, huart->Init.StopBits);
 80024f8:	687b      	ldr	r3, [r7, #4]
 80024fa:	681b      	ldr	r3, [r3, #0]
 80024fc:	691b      	ldr	r3, [r3, #16]
 80024fe:	f423 5140 	bic.w	r1, r3, #12288	@ 0x3000
 8002502:	687b      	ldr	r3, [r7, #4]
 8002504:	68da      	ldr	r2, [r3, #12]
 8002506:	687b      	ldr	r3, [r7, #4]
 8002508:	681b      	ldr	r3, [r3, #0]
 800250a:	430a      	orrs	r2, r1
 800250c:	611a      	str	r2, [r3, #16]
  tmpreg = (uint32_t)huart->Init.WordLength | huart->Init.Parity | huart->Init.Mode | huart->Init.OverSampling;
  MODIFY_REG(huart->Instance->CR1,
             (uint32_t)(USART_CR1_M | USART_CR1_PCE | USART_CR1_PS | USART_CR1_TE | USART_CR1_RE | USART_CR1_OVER8),
             tmpreg);
#else
  tmpreg = (uint32_t)huart->Init.WordLength | huart->Init.Parity | huart->Init.Mode;
 800250e:	687b      	ldr	r3, [r7, #4]
 8002510:	689a      	ldr	r2, [r3, #8]
 8002512:	687b      	ldr	r3, [r7, #4]
 8002514:	691b      	ldr	r3, [r3, #16]
 8002516:	431a      	orrs	r2, r3
 8002518:	687b      	ldr	r3, [r7, #4]
 800251a:	695b      	ldr	r3, [r3, #20]
 800251c:	4313      	orrs	r3, r2
 800251e:	60bb      	str	r3, [r7, #8]
  MODIFY_REG(huart->Instance->CR1,
 8002520:	687b      	ldr	r3, [r7, #4]
 8002522:	681b      	ldr	r3, [r3, #0]
 8002524:	68db      	ldr	r3, [r3, #12]
 8002526:	f423 53b0 	bic.w	r3, r3, #5632	@ 0x1600
 800252a:	f023 030c 	bic.w	r3, r3, #12
 800252e:	687a      	ldr	r2, [r7, #4]
 8002530:	6812      	ldr	r2, [r2, #0]
 8002532:	68b9      	ldr	r1, [r7, #8]
 8002534:	430b      	orrs	r3, r1
 8002536:	60d3      	str	r3, [r2, #12]
             tmpreg);
#endif /* USART_CR1_OVER8 */

  /*-------------------------- USART CR3 Configuration -----------------------*/
  /* Configure the UART HFC: Set CTSE and RTSE bits according to huart->Init.HwFlowCtl value */
  MODIFY_REG(huart->Instance->CR3, (USART_CR3_RTSE | USART_CR3_CTSE), huart->Init.HwFlowCtl);
 8002538:	687b      	ldr	r3, [r7, #4]
 800253a:	681b      	ldr	r3, [r3, #0]
 800253c:	695b      	ldr	r3, [r3, #20]
 800253e:	f423 7140 	bic.w	r1, r3, #768	@ 0x300
 8002542:	687b      	ldr	r3, [r7, #4]
 8002544:	699a      	ldr	r2, [r3, #24]
 8002546:	687b      	ldr	r3, [r7, #4]
 8002548:	681b      	ldr	r3, [r3, #0]
 800254a:	430a      	orrs	r2, r1
 800254c:	615a      	str	r2, [r3, #20]


  if(huart->Instance == USART1)
 800254e:	687b      	ldr	r3, [r7, #4]
 8002550:	681b      	ldr	r3, [r3, #0]
 8002552:	4a2c      	ldr	r2, [pc, #176]	@ (8002604 <UART_SetConfig+0x114>)
 8002554:	4293      	cmp	r3, r2
 8002556:	d103      	bne.n	8002560 <UART_SetConfig+0x70>
  {
    pclk = HAL_RCC_GetPCLK2Freq();
 8002558:	f7ff fa9e 	bl	8001a98 <HAL_RCC_GetPCLK2Freq>
 800255c:	60f8      	str	r0, [r7, #12]
 800255e:	e002      	b.n	8002566 <UART_SetConfig+0x76>
  }
  else
  {
    pclk = HAL_RCC_GetPCLK1Freq();
 8002560:	f7ff fa86 	bl	8001a70 <HAL_RCC_GetPCLK1Freq>
 8002564:	60f8      	str	r0, [r7, #12]
  else
  {
    huart->Instance->BRR = UART_BRR_SAMPLING16(pclk, huart->Init.BaudRate);
  }
#else
  huart->Instance->BRR = UART_BRR_SAMPLING16(pclk, huart->Init.BaudRate);
 8002566:	68fa      	ldr	r2, [r7, #12]
 8002568:	4613      	mov	r3, r2
 800256a:	009b      	lsls	r3, r3, #2
 800256c:	4413      	add	r3, r2
 800256e:	009a      	lsls	r2, r3, #2
 8002570:	441a      	add	r2, r3
 8002572:	687b      	ldr	r3, [r7, #4]
 8002574:	685b      	ldr	r3, [r3, #4]
 8002576:	009b      	lsls	r3, r3, #2
 8002578:	fbb2 f3f3 	udiv	r3, r2, r3
 800257c:	4a22      	ldr	r2, [pc, #136]	@ (8002608 <UART_SetConfig+0x118>)
 800257e:	fba2 2303 	umull	r2, r3, r2, r3
 8002582:	095b      	lsrs	r3, r3, #5
 8002584:	0119      	lsls	r1, r3, #4
 8002586:	68fa      	ldr	r2, [r7, #12]
 8002588:	4613      	mov	r3, r2
 800258a:	009b      	lsls	r3, r3, #2
 800258c:	4413      	add	r3, r2
 800258e:	009a      	lsls	r2, r3, #2
 8002590:	441a      	add	r2, r3
 8002592:	687b      	ldr	r3, [r7, #4]
 8002594:	685b      	ldr	r3, [r3, #4]
 8002596:	009b      	lsls	r3, r3, #2
 8002598:	fbb2 f2f3 	udiv	r2, r2, r3
 800259c:	4b1a      	ldr	r3, [pc, #104]	@ (8002608 <UART_SetConfig+0x118>)
 800259e:	fba3 0302 	umull	r0, r3, r3, r2
 80025a2:	095b      	lsrs	r3, r3, #5
 80025a4:	2064      	movs	r0, #100	@ 0x64
 80025a6:	fb00 f303 	mul.w	r3, r0, r3
 80025aa:	1ad3      	subs	r3, r2, r3
 80025ac:	011b      	lsls	r3, r3, #4
 80025ae:	3332      	adds	r3, #50	@ 0x32
 80025b0:	4a15      	ldr	r2, [pc, #84]	@ (8002608 <UART_SetConfig+0x118>)
 80025b2:	fba2 2303 	umull	r2, r3, r2, r3
 80025b6:	095b      	lsrs	r3, r3, #5
 80025b8:	f003 03f0 	and.w	r3, r3, #240	@ 0xf0
 80025bc:	4419      	add	r1, r3
 80025be:	68fa      	ldr	r2, [r7, #12]
 80025c0:	4613      	mov	r3, r2
 80025c2:	009b      	lsls	r3, r3, #2
 80025c4:	4413      	add	r3, r2
 80025c6:	009a      	lsls	r2, r3, #2
 80025c8:	441a      	add	r2, r3
 80025ca:	687b      	ldr	r3, [r7, #4]
 80025cc:	685b      	ldr	r3, [r3, #4]
 80025ce:	009b      	lsls	r3, r3, #2
 80025d0:	fbb2 f2f3 	udiv	r2, r2, r3
 80025d4:	4b0c      	ldr	r3, [pc, #48]	@ (8002608 <UART_SetConfig+0x118>)
 80025d6:	fba3 0302 	umull	r0, r3, r3, r2
 80025da:	095b      	lsrs	r3, r3, #5
 80025dc:	2064      	movs	r0, #100	@ 0x64
 80025de:	fb00 f303 	mul.w	r3, r0, r3
 80025e2:	1ad3      	subs	r3, r2, r3
 80025e4:	011b      	lsls	r3, r3, #4
 80025e6:	3332      	adds	r3, #50	@ 0x32
 80025e8:	4a07      	ldr	r2, [pc, #28]	@ (8002608 <UART_SetConfig+0x118>)
 80025ea:	fba2 2303 	umull	r2, r3, r2, r3
 80025ee:	095b      	lsrs	r3, r3, #5
 80025f0:	f003 020f 	and.w	r2, r3, #15
 80025f4:	687b      	ldr	r3, [r7, #4]
 80025f6:	681b      	ldr	r3, [r3, #0]
 80025f8:	440a      	add	r2, r1
 80025fa:	609a      	str	r2, [r3, #8]
#endif /* USART_CR1_OVER8 */
}
 80025fc:	bf00      	nop
 80025fe:	3710      	adds	r7, #16
 8002600:	46bd      	mov	sp, r7
 8002602:	bd80      	pop	{r7, pc}
 8002604:	40013800 	.word	0x40013800
 8002608:	51eb851f 	.word	0x51eb851f

0800260c <memset>:
 800260c:	4603      	mov	r3, r0
 800260e:	4402      	add	r2, r0
 8002610:	4293      	cmp	r3, r2
 8002612:	d100      	bne.n	8002616 <memset+0xa>
 8002614:	4770      	bx	lr
 8002616:	f803 1b01 	strb.w	r1, [r3], #1
 800261a:	e7f9      	b.n	8002610 <memset+0x4>

0800261c <__libc_init_array>:
 800261c:	b570      	push	{r4, r5, r6, lr}
 800261e:	2600      	movs	r6, #0
 8002620:	4d0c      	ldr	r5, [pc, #48]	@ (8002654 <__libc_init_array+0x38>)
 8002622:	4c0d      	ldr	r4, [pc, #52]	@ (8002658 <__libc_init_array+0x3c>)
 8002624:	1b64      	subs	r4, r4, r5
 8002626:	10a4      	asrs	r4, r4, #2
 8002628:	42a6      	cmp	r6, r4
 800262a:	d109      	bne.n	8002640 <__libc_init_array+0x24>
 800262c:	f000 f81a 	bl	8002664 <_init>
 8002630:	2600      	movs	r6, #0
 8002632:	4d0a      	ldr	r5, [pc, #40]	@ (800265c <__libc_init_array+0x40>)
 8002634:	4c0a      	ldr	r4, [pc, #40]	@ (8002660 <__libc_init_array+0x44>)
 8002636:	1b64      	subs	r4, r4, r5
 8002638:	10a4      	asrs	r4, r4, #2
 800263a:	42a6      	cmp	r6, r4
 800263c:	d105      	bne.n	800264a <__libc_init_array+0x2e>
 800263e:	bd70      	pop	{r4, r5, r6, pc}
 8002640:	f855 3b04 	ldr.w	r3, [r5], #4
 8002644:	4798      	blx	r3
 8002646:	3601      	adds	r6, #1
 8002648:	e7ee      	b.n	8002628 <__libc_init_array+0xc>
 800264a:	f855 3b04 	ldr.w	r3, [r5], #4
 800264e:	4798      	blx	r3
 8002650:	3601      	adds	r6, #1
 8002652:	e7f2      	b.n	800263a <__libc_init_array+0x1e>
 8002654:	080026b8 	.word	0x080026b8
 8002658:	080026b8 	.word	0x080026b8
 800265c:	080026b8 	.word	0x080026b8
 8002660:	080026bc 	.word	0x080026bc

08002664 <_init>:
 8002664:	b5f8      	push	{r3, r4, r5, r6, r7, lr}
 8002666:	bf00      	nop
 8002668:	bcf8      	pop	{r3, r4, r5, r6, r7}
 800266a:	bc08      	pop	{r3}
 800266c:	469e      	mov	lr, r3
 800266e:	4770      	bx	lr

08002670 <_fini>:
 8002670:	b5f8      	push	{r3, r4, r5, r6, r7, lr}
 8002672:	bf00      	nop
 8002674:	bcf8      	pop	{r3, r4, r5, r6, r7}
 8002676:	bc08      	pop	{r3}
 8002678:	469e      	mov	lr, r3
 800267a:	4770      	bx	lr
