
IncomSystemTestProjectF103.elf:     file format elf32-littlearm

Sections:
Idx Name          Size      VMA       LMA       File off  Algn
  0 .isr_vector   0000010c  08000000  08000000  00001000  2**0
                  CONTENTS, ALLOC, LOAD, READONLY, DATA
  1 .text         00002638  0800010c  0800010c  0000110c  2**2
                  CONTENTS, ALLOC, LOAD, READONLY, CODE
  2 .rodata       0000003c  08002744  08002744  00003744  2**2
                  CONTENTS, ALLOC, LOAD, READONLY, DATA
  3 .ARM.extab    00000000  08002780  08002780  00004118  2**0
                  CONTENTS
  4 .ARM          00000000  08002780  08002780  00004118  2**0
                  CONTENTS
  5 .preinit_array 00000000  08002780  08002780  00004118  2**0
                  CONTENTS, ALLOC, LOAD, DATA
  6 .init_array   00000004  08002780  08002780  00003780  2**2
                  CONTENTS, ALLOC, LOAD, READONLY, DATA
  7 .fini_array   00000004  08002784  08002784  00003784  2**2
                  CONTENTS, ALLOC, LOAD, READONLY, DATA
  8 .data         00000118  20000000  08002788  00004000  2**2
                  CONTENTS, ALLOC, LOAD, DATA
  9 .bss          0000047c  20000118  080028a0  00004118  2**2
                  ALLOC
 10 ._user_heap_stack 00000604  20000594  080028a0  00004594  2**0
                  ALLOC
 11 .ARM.attributes 00000029  00000000  00000000  00004118  2**0
                  CONTENTS, READONLY
 12 .debug_info   0000809c  00000000  00000000  00004141  2**0
                  CONTENTS, READONLY, DEBUGGING, OCTETS
 13 .debug_abbrev 00001c3a  00000000  00000000  0000c1dd  2**0
                  CONTENTS, READONLY, DEBUGGING, OCTETS
 14 .debug_aranges 00000750  00000000  00000000  0000de18  2**3
                  CONTENTS, READONLY, DEBUGGING, OCTETS
 15 .debug_rnglists 00000586  00000000  00000000  0000e568  2**0
                  CONTENTS, READONLY, DEBUGGING, OCTETS
 16 .debug_macro  0001678d  00000000  00000000  0000eaee  2**0
                  CONTENTS, READONLY, DEBUGGING, OCTETS
 17 .debug_line   0000a2f6  00000000  00000000  0002527b  2**0
                  CONTENTS, READONLY, DEBUGGING, OCTETS
 18 .debug_str    0007e902  00000000  00000000  0002f571  2**0
                  CONTENTS, READONLY, DEBUGGING, OCTETS
 19 .comment      00000043  00000000  00000000  000ade73  2**0
                  CONTENTS, READONLY
 20 .debug_frame  00001b50  00000000  00000000  000adeb8  2**2
                  CONTENTS, READONLY, DEBUGGING, OCTETS
 21 .debug_line_str 0000005d  00000000  00000000  000afa08  2**0
                  CONTENTS, READONLY, DEBUGGING, OCTETS

Disassembly of section .text:

0800010c <__do_global_dtors_aux>:
 800010c:	b510      	push	{r4, lr}
 800010e:	4c05      	ldr	r4, [pc, #20]	@ (8000124 <__do_global_dtors_aux+0x18>)
 8000110:	7823      	ldrb	r3, [r4, #0]
 8000112:	b933      	cbnz	r3, 8000122 <__do_global_dtors_aux+0x16>
 8000114:	4b04      	ldr	r3, [pc, #16]	@ (8000128 <__do_global_dtors_aux+0x1c>)
 8000116:	b113      	cbz	r3, 800011e <__do_global_dtors_aux+0x12>
 8000118:	4804      	ldr	r0, [pc, #16]	@ (800012c <__do_global_dtors_aux+0x20>)
 800011a:	f3af 8000 	nop.w
 800011e:	2301      	movs	r3, #1
 8000120:	7023      	strb	r3, [r4, #0]
 8000122:	bd10      	pop	{r4, pc}
 8000124:	20000118 	.word	0x20000118
 8000128:	00000000 	.word	0x00000000
 800012c:	0800272c 	.word	0x0800272c

08000130 <frame_dummy>:
 8000130:	b508      	push	{r3, lr}
 8000132:	4b03      	ldr	r3, [pc, #12]	@ (8000140 <frame_dummy+0x10>)
 8000134:	b11b      	cbz	r3, 800013e <frame_dummy+0xe>
 8000136:	4903      	ldr	r1, [pc, #12]	@ (8000144 <frame_dummy+0x14>)
 8000138:	4803      	ldr	r0, [pc, #12]	@ (8000148 <frame_dummy+0x18>)
 800013a:	f3af 8000 	nop.w
 800013e:	bd08      	pop	{r3, pc}
 8000140:	00000000 	.word	0x00000000
 8000144:	2000011c 	.word	0x2000011c
 8000148:	0800272c 	.word	0x0800272c

0800014c <BootModeStart>:

uint8_t AwaitResponce(uint8_t status, uint32_t maxWaitTime);
uint8_t crcAN3155(uint8_t *data, uint8_t len);


void BootModeStart(){
 800014c:	b580      	push	{r7, lr}
 800014e:	af00      	add	r7, sp, #0
	HAL_GPIO_WritePin(BOOT_PORT, BOOT_PIN, GPIO_PIN_SET);
 8000150:	2201      	movs	r2, #1
 8000152:	f44f 4100 	mov.w	r1, #32768	@ 0x8000
 8000156:	480a      	ldr	r0, [pc, #40]	@ (8000180 <BootModeStart+0x34>)
 8000158:	f001 f8f2 	bl	8001340 <HAL_GPIO_WritePin>
	HAL_GPIO_WritePin(RESET_PORT, RESET_PIN, GPIO_PIN_RESET);
 800015c:	2200      	movs	r2, #0
 800015e:	f44f 4180 	mov.w	r1, #16384	@ 0x4000
 8000162:	4807      	ldr	r0, [pc, #28]	@ (8000180 <BootModeStart+0x34>)
 8000164:	f001 f8ec 	bl	8001340 <HAL_GPIO_WritePin>
	HAL_Delay(50);
 8000168:	2032      	movs	r0, #50	@ 0x32
 800016a:	f000 fd81 	bl	8000c70 <HAL_Delay>
	HAL_GPIO_WritePin(RESET_PORT, RESET_PIN, GPIO_PIN_SET);
 800016e:	2201      	movs	r2, #1
 8000170:	f44f 4180 	mov.w	r1, #16384	@ 0x4000
 8000174:	4802      	ldr	r0, [pc, #8]	@ (8000180 <BootModeStart+0x34>)
 8000176:	f001 f8e3 	bl	8001340 <HAL_GPIO_WritePin>
}
 800017a:	bf00      	nop
 800017c:	bd80      	pop	{r7, pc}
 800017e:	bf00      	nop
 8000180:	40011000 	.word	0x40011000

08000184 <BootModeEnd>:

void BootModeEnd(){
 8000184:	b580      	push	{r7, lr}
 8000186:	af00      	add	r7, sp, #0
	HAL_GPIO_WritePin(BOOT_PORT, BOOT_PIN, GPIO_PIN_RESET);
 8000188:	2200      	movs	r2, #0
 800018a:	f44f 4100 	mov.w	r1, #32768	@ 0x8000
 800018e:	480a      	ldr	r0, [pc, #40]	@ (80001b8 <BootModeEnd+0x34>)
 8000190:	f001 f8d6 	bl	8001340 <HAL_GPIO_WritePin>
	HAL_GPIO_WritePin(RESET_PORT, RESET_PIN, GPIO_PIN_RESET);
 8000194:	2200      	movs	r2, #0
 8000196:	f44f 4180 	mov.w	r1, #16384	@ 0x4000
 800019a:	4807      	ldr	r0, [pc, #28]	@ (80001b8 <BootModeEnd+0x34>)
 800019c:	f001 f8d0 	bl	8001340 <HAL_GPIO_WritePin>
	HAL_Delay(50);
 80001a0:	2032      	movs	r0, #50	@ 0x32
 80001a2:	f000 fd65 	bl	8000c70 <HAL_Delay>
	HAL_GPIO_WritePin(RESET_PORT, RESET_PIN, GPIO_PIN_SET);
 80001a6:	2201      	movs	r2, #1
 80001a8:	f44f 4180 	mov.w	r1, #16384	@ 0x4000
 80001ac:	4802      	ldr	r0, [pc, #8]	@ (80001b8 <BootModeEnd+0x34>)
 80001ae:	f001 f8c7 	bl	8001340 <HAL_GPIO_WritePin>
}
 80001b2:	bf00      	nop
 80001b4:	bd80      	pop	{r7, pc}
 80001b6:	bf00      	nop
 80001b8:	40011000 	.word	0x40011000

080001bc <AwaitResponce>:


uint8_t AwaitResponce(uint8_t status, uint32_t maxWaitTime){
 80001bc:	b580      	push	{r7, lr}
 80001be:	b084      	sub	sp, #16
 80001c0:	af00      	add	r7, sp, #0
 80001c2:	4603      	mov	r3, r0
 80001c4:	6039      	str	r1, [r7, #0]
 80001c6:	71fb      	strb	r3, [r7, #7]
	uint32_t timer = HAL_GetTick();
 80001c8:	f000 fd48 	bl	8000c5c <HAL_GetTick>
 80001cc:	60f8      	str	r0, [r7, #12]
	while(action.flag != status){
 80001ce:	e00d      	b.n	80001ec <AwaitResponce+0x30>
		if((HAL_GetTick()-timer) >= maxWaitTime || action.flag == NACK)
 80001d0:	f000 fd44 	bl	8000c5c <HAL_GetTick>
 80001d4:	4602      	mov	r2, r0
 80001d6:	68fb      	ldr	r3, [r7, #12]
 80001d8:	1ad3      	subs	r3, r2, r3
 80001da:	683a      	ldr	r2, [r7, #0]
 80001dc:	429a      	cmp	r2, r3
 80001de:	d903      	bls.n	80001e8 <AwaitResponce+0x2c>
 80001e0:	4b07      	ldr	r3, [pc, #28]	@ (8000200 <AwaitResponce+0x44>)
 80001e2:	785b      	ldrb	r3, [r3, #1]
 80001e4:	2b1f      	cmp	r3, #31
 80001e6:	d101      	bne.n	80001ec <AwaitResponce+0x30>
			return AN_ERROR;
 80001e8:	2300      	movs	r3, #0
 80001ea:	e005      	b.n	80001f8 <AwaitResponce+0x3c>
	while(action.flag != status){
 80001ec:	4b04      	ldr	r3, [pc, #16]	@ (8000200 <AwaitResponce+0x44>)
 80001ee:	785b      	ldrb	r3, [r3, #1]
 80001f0:	79fa      	ldrb	r2, [r7, #7]
 80001f2:	429a      	cmp	r2, r3
 80001f4:	d1ec      	bne.n	80001d0 <AwaitResponce+0x14>
	}
	return AN_OK;
 80001f6:	2301      	movs	r3, #1
}
 80001f8:	4618      	mov	r0, r3
 80001fa:	3710      	adds	r7, #16
 80001fc:	46bd      	mov	sp, r7
 80001fe:	bd80      	pop	{r7, pc}
 8000200:	20000008 	.word	0x20000008

08000204 <crcAN3155>:

uint8_t crcAN3155(uint8_t *data, uint8_t len){
 8000204:	b480      	push	{r7}
 8000206:	b085      	sub	sp, #20
 8000208:	af00      	add	r7, sp, #0
 800020a:	6078      	str	r0, [r7, #4]
 800020c:	460b      	mov	r3, r1
 800020e:	70fb      	strb	r3, [r7, #3]
	uint8_t numb = 0;
 8000210:	2300      	movs	r3, #0
 8000212:	73fb      	strb	r3, [r7, #15]
	for(int i=0; i<len; i++){
 8000214:	2300      	movs	r3, #0
 8000216:	60bb      	str	r3, [r7, #8]
 8000218:	e009      	b.n	800022e <crcAN3155+0x2a>
		numb^=data[i];
 800021a:	68bb      	ldr	r3, [r7, #8]
 800021c:	687a      	ldr	r2, [r7, #4]
 800021e:	4413      	add	r3, r2
 8000220:	781a      	ldrb	r2, [r3, #0]
 8000222:	7bfb      	ldrb	r3, [r7, #15]
 8000224:	4053      	eors	r3, r2
 8000226:	73fb      	strb	r3, [r7, #15]
	for(int i=0; i<len; i++){
 8000228:	68bb      	ldr	r3, [r7, #8]
 800022a:	3301      	adds	r3, #1
 800022c:	60bb      	str	r3, [r7, #8]
 800022e:	78fb      	ldrb	r3, [r7, #3]
 8000230:	68ba      	ldr	r2, [r7, #8]
 8000232:	429a      	cmp	r2, r3
 8000234:	dbf1      	blt.n	800021a <crcAN3155+0x16>
	}
	return numb;
 8000236:	7bfb      	ldrb	r3, [r7, #15]
}
 8000238:	4618      	mov	r0, r3
 800023a:	3714      	adds	r7, #20
 800023c:	46bd      	mov	sp, r7
 800023e:	bc80      	pop	{r7}
 8000240:	4770      	bx	lr
	...

08000244 <StartCommand>:

void StartCommand(){
 8000244:	b580      	push	{r7, lr}
 8000246:	b082      	sub	sp, #8
 8000248:	af00      	add	r7, sp, #0
	uint8_t data[1] = {START_COMMAND};
 800024a:	237f      	movs	r3, #127	@ 0x7f
 800024c:	703b      	strb	r3, [r7, #0]
	uint32_t timer = 0;
 800024e:	2300      	movs	r3, #0
 8000250:	607b      	str	r3, [r7, #4]
	while(action.flag == NONE){
 8000252:	e00f      	b.n	8000274 <StartCommand+0x30>
	  if((HAL_GetTick()-timer) >= 1000){
 8000254:	f000 fd02 	bl	8000c5c <HAL_GetTick>
 8000258:	4602      	mov	r2, r0
 800025a:	687b      	ldr	r3, [r7, #4]
 800025c:	1ad3      	subs	r3, r2, r3
 800025e:	f5b3 7f7a 	cmp.w	r3, #1000	@ 0x3e8
 8000262:	d307      	bcc.n	8000274 <StartCommand+0x30>
		  TransmitOnAN3155(data, 1);
 8000264:	463b      	mov	r3, r7
 8000266:	2101      	movs	r1, #1
 8000268:	4618      	mov	r0, r3
 800026a:	f000 f953 	bl	8000514 <TransmitOnAN3155>
		  timer = HAL_GetTick();
 800026e:	f000 fcf5 	bl	8000c5c <HAL_GetTick>
 8000272:	6078      	str	r0, [r7, #4]
	while(action.flag == NONE){
 8000274:	4b06      	ldr	r3, [pc, #24]	@ (8000290 <StartCommand+0x4c>)
 8000276:	785b      	ldrb	r3, [r3, #1]
 8000278:	2b00      	cmp	r3, #0
 800027a:	d0eb      	beq.n	8000254 <StartCommand+0x10>
	  }
	}
	action.flag = NONE;
 800027c:	4b04      	ldr	r3, [pc, #16]	@ (8000290 <StartCommand+0x4c>)
 800027e:	2200      	movs	r2, #0
 8000280:	705a      	strb	r2, [r3, #1]
	HAL_Delay(200);
 8000282:	20c8      	movs	r0, #200	@ 0xc8
 8000284:	f000 fcf4 	bl	8000c70 <HAL_Delay>
}
 8000288:	bf00      	nop
 800028a:	3708      	adds	r7, #8
 800028c:	46bd      	mov	sp, r7
 800028e:	bd80      	pop	{r7, pc}
 8000290:	20000008 	.word	0x20000008

08000294 <ReadFlashData>:

uint8_t ReadFlashData(uint32_t address, uint16_t len){
 8000294:	b580      	push	{r7, lr}
 8000296:	b084      	sub	sp, #16
 8000298:	af00      	add	r7, sp, #0
 800029a:	6078      	str	r0, [r7, #4]
 800029c:	460b      	mov	r3, r1
 800029e:	807b      	strh	r3, [r7, #2]
	uint8_t data[5] = {READ_COMMAND, 0xFF^READ_COMMAND, 0, 0, 0};
 80002a0:	4a37      	ldr	r2, [pc, #220]	@ (8000380 <ReadFlashData+0xec>)
 80002a2:	f107 0308 	add.w	r3, r7, #8
 80002a6:	e892 0003 	ldmia.w	r2, {r0, r1}
 80002aa:	6018      	str	r0, [r3, #0]
 80002ac:	3304      	adds	r3, #4
 80002ae:	7019      	strb	r1, [r3, #0]
	TransmitOnAN3155(data, 2);
 80002b0:	f107 0308 	add.w	r3, r7, #8
 80002b4:	2102      	movs	r1, #2
 80002b6:	4618      	mov	r0, r3
 80002b8:	f000 f92c 	bl	8000514 <TransmitOnAN3155>
	if(AwaitResponce(ACK, ANSWER_WAIT_TIME) == AN_ERROR)
 80002bc:	21c8      	movs	r1, #200	@ 0xc8
 80002be:	2079      	movs	r0, #121	@ 0x79
 80002c0:	f7ff ff7c 	bl	80001bc <AwaitResponce>
 80002c4:	4603      	mov	r3, r0
 80002c6:	2b00      	cmp	r3, #0
 80002c8:	d101      	bne.n	80002ce <ReadFlashData+0x3a>
		return AN_ERROR;
 80002ca:	2300      	movs	r3, #0
 80002cc:	e053      	b.n	8000376 <ReadFlashData+0xe2>
	action.flag = NONE;
 80002ce:	4b2d      	ldr	r3, [pc, #180]	@ (8000384 <ReadFlashData+0xf0>)
 80002d0:	2200      	movs	r2, #0
 80002d2:	705a      	strb	r2, [r3, #1]

	data[0] = (uint8_t)(address >> 24);
 80002d4:	687b      	ldr	r3, [r7, #4]
 80002d6:	0e1b      	lsrs	r3, r3, #24
 80002d8:	b2db      	uxtb	r3, r3
 80002da:	723b      	strb	r3, [r7, #8]
	data[1] = (uint8_t)(address >> 16);
 80002dc:	687b      	ldr	r3, [r7, #4]
 80002de:	0c1b      	lsrs	r3, r3, #16
 80002e0:	b2db      	uxtb	r3, r3
 80002e2:	727b      	strb	r3, [r7, #9]
	data[2] = (uint8_t)(address >> 8);
 80002e4:	687b      	ldr	r3, [r7, #4]
 80002e6:	0a1b      	lsrs	r3, r3, #8
 80002e8:	b2db      	uxtb	r3, r3
 80002ea:	72bb      	strb	r3, [r7, #10]
	data[3] = (uint8_t)(address);
 80002ec:	687b      	ldr	r3, [r7, #4]
 80002ee:	b2db      	uxtb	r3, r3
 80002f0:	72fb      	strb	r3, [r7, #11]
	data[4] = crcAN3155(data, 4);
 80002f2:	f107 0308 	add.w	r3, r7, #8
 80002f6:	2104      	movs	r1, #4
 80002f8:	4618      	mov	r0, r3
 80002fa:	f7ff ff83 	bl	8000204 <crcAN3155>
 80002fe:	4603      	mov	r3, r0
 8000300:	733b      	strb	r3, [r7, #12]
	TransmitOnAN3155(data, 5);
 8000302:	f107 0308 	add.w	r3, r7, #8
 8000306:	2105      	movs	r1, #5
 8000308:	4618      	mov	r0, r3
 800030a:	f000 f903 	bl	8000514 <TransmitOnAN3155>
	if(AwaitResponce(ACK, ANSWER_WAIT_TIME) == AN_ERROR)
 800030e:	21c8      	movs	r1, #200	@ 0xc8
 8000310:	2079      	movs	r0, #121	@ 0x79
 8000312:	f7ff ff53 	bl	80001bc <AwaitResponce>
 8000316:	4603      	mov	r3, r0
 8000318:	2b00      	cmp	r3, #0
 800031a:	d101      	bne.n	8000320 <ReadFlashData+0x8c>
		return AN_ERROR;
 800031c:	2300      	movs	r3, #0
 800031e:	e02a      	b.n	8000376 <ReadFlashData+0xe2>
	action.flag = NONE;
 8000320:	4b18      	ldr	r3, [pc, #96]	@ (8000384 <ReadFlashData+0xf0>)
 8000322:	2200      	movs	r2, #0
 8000324:	705a      	strb	r2, [r3, #1]

	data[0] = (uint8_t)(len-1);
 8000326:	887b      	ldrh	r3, [r7, #2]
 8000328:	b2db      	uxtb	r3, r3
 800032a:	3b01      	subs	r3, #1
 800032c:	b2db      	uxtb	r3, r3
 800032e:	723b      	strb	r3, [r7, #8]
	data[1] = ((uint8_t)(len-1))^0xFF;
 8000330:	887b      	ldrh	r3, [r7, #2]
 8000332:	b2db      	uxtb	r3, r3
 8000334:	425b      	negs	r3, r3
 8000336:	b2db      	uxtb	r3, r3
 8000338:	727b      	strb	r3, [r7, #9]
	recive.command = RECIVE_DATA;
 800033a:	4b13      	ldr	r3, [pc, #76]	@ (8000388 <ReadFlashData+0xf4>)
 800033c:	2202      	movs	r2, #2
 800033e:	701a      	strb	r2, [r3, #0]
	recive.length = len+1;
 8000340:	887b      	ldrh	r3, [r7, #2]
 8000342:	3301      	adds	r3, #1
 8000344:	b29a      	uxth	r2, r3
 8000346:	4b10      	ldr	r3, [pc, #64]	@ (8000388 <ReadFlashData+0xf4>)
 8000348:	805a      	strh	r2, [r3, #2]
	TransmitOnAN3155(data, 2);
 800034a:	f107 0308 	add.w	r3, r7, #8
 800034e:	2102      	movs	r1, #2
 8000350:	4618      	mov	r0, r3
 8000352:	f000 f8df 	bl	8000514 <TransmitOnAN3155>
	if(AwaitResponce(DATA, ANSWER_WAIT_TIME) == AN_ERROR)
 8000356:	21c8      	movs	r1, #200	@ 0xc8
 8000358:	20cc      	movs	r0, #204	@ 0xcc
 800035a:	f7ff ff2f 	bl	80001bc <AwaitResponce>
 800035e:	4603      	mov	r3, r0
 8000360:	2b00      	cmp	r3, #0
 8000362:	d101      	bne.n	8000368 <ReadFlashData+0xd4>
		return AN_ERROR;
 8000364:	2300      	movs	r3, #0
 8000366:	e006      	b.n	8000376 <ReadFlashData+0xe2>
	recive.command = RECIVE_STATE;
 8000368:	4b07      	ldr	r3, [pc, #28]	@ (8000388 <ReadFlashData+0xf4>)
 800036a:	2201      	movs	r2, #1
 800036c:	701a      	strb	r2, [r3, #0]
	recive.length = 1;
 800036e:	4b06      	ldr	r3, [pc, #24]	@ (8000388 <ReadFlashData+0xf4>)
 8000370:	2201      	movs	r2, #1
 8000372:	805a      	strh	r2, [r3, #2]

	return AN_OK;
 8000374:	2301      	movs	r3, #1
}
 8000376:	4618      	mov	r0, r3
 8000378:	3710      	adds	r7, #16
 800037a:	46bd      	mov	sp, r7
 800037c:	bd80      	pop	{r7, pc}
 800037e:	bf00      	nop
 8000380:	08002744 	.word	0x08002744
 8000384:	20000008 	.word	0x20000008
 8000388:	20000004 	.word	0x20000004

0800038c <GoInProgramm>:

uint8_t GoInProgramm(uint32_t address){
 800038c:	b580      	push	{r7, lr}
 800038e:	b084      	sub	sp, #16
 8000390:	af00      	add	r7, sp, #0
 8000392:	6078      	str	r0, [r7, #4]
	uint8_t data[5] = {GO_COMMAND, 0xFF^GO_COMMAND, 0, 0, 0};
 8000394:	4a23      	ldr	r2, [pc, #140]	@ (8000424 <GoInProgramm+0x98>)
 8000396:	f107 0308 	add.w	r3, r7, #8
 800039a:	e892 0003 	ldmia.w	r2, {r0, r1}
 800039e:	6018      	str	r0, [r3, #0]
 80003a0:	3304      	adds	r3, #4
 80003a2:	7019      	strb	r1, [r3, #0]
	TransmitOnAN3155(data, 2);
 80003a4:	f107 0308 	add.w	r3, r7, #8
 80003a8:	2102      	movs	r1, #2
 80003aa:	4618      	mov	r0, r3
 80003ac:	f000 f8b2 	bl	8000514 <TransmitOnAN3155>
	if(AwaitResponce(ACK, ANSWER_WAIT_TIME) == AN_ERROR)
 80003b0:	21c8      	movs	r1, #200	@ 0xc8
 80003b2:	2079      	movs	r0, #121	@ 0x79
 80003b4:	f7ff ff02 	bl	80001bc <AwaitResponce>
 80003b8:	4603      	mov	r3, r0
 80003ba:	2b00      	cmp	r3, #0
 80003bc:	d101      	bne.n	80003c2 <GoInProgramm+0x36>
		return AN_ERROR;
 80003be:	2300      	movs	r3, #0
 80003c0:	e02c      	b.n	800041c <GoInProgramm+0x90>
	action.flag = NONE;
 80003c2:	4b19      	ldr	r3, [pc, #100]	@ (8000428 <GoInProgramm+0x9c>)
 80003c4:	2200      	movs	r2, #0
 80003c6:	705a      	strb	r2, [r3, #1]

	data[0] = (uint8_t)(address >> 24);
 80003c8:	687b      	ldr	r3, [r7, #4]
 80003ca:	0e1b      	lsrs	r3, r3, #24
 80003cc:	b2db      	uxtb	r3, r3
 80003ce:	723b      	strb	r3, [r7, #8]
	data[1] = (uint8_t)(address >> 16);
 80003d0:	687b      	ldr	r3, [r7, #4]
 80003d2:	0c1b      	lsrs	r3, r3, #16
 80003d4:	b2db      	uxtb	r3, r3
 80003d6:	727b      	strb	r3, [r7, #9]
	data[2] = (uint8_t)(address >> 8);
 80003d8:	687b      	ldr	r3, [r7, #4]
 80003da:	0a1b      	lsrs	r3, r3, #8
 80003dc:	b2db      	uxtb	r3, r3
 80003de:	72bb      	strb	r3, [r7, #10]
	data[3] = (uint8_t)(address);
 80003e0:	687b      	ldr	r3, [r7, #4]
 80003e2:	b2db      	uxtb	r3, r3
 80003e4:	72fb      	strb	r3, [r7, #11]
	data[4] = crcAN3155(data, 4);
 80003e6:	f107 0308 	add.w	r3, r7, #8
 80003ea:	2104      	movs	r1, #4
 80003ec:	4618      	mov	r0, r3
 80003ee:	f7ff ff09 	bl	8000204 <crcAN3155>
 80003f2:	4603      	mov	r3, r0
 80003f4:	733b      	strb	r3, [r7, #12]
	TransmitOnAN3155(data, 5);
 80003f6:	f107 0308 	add.w	r3, r7, #8
 80003fa:	2105      	movs	r1, #5
 80003fc:	4618      	mov	r0, r3
 80003fe:	f000 f889 	bl	8000514 <TransmitOnAN3155>
	if(AwaitResponce(ACK, ANSWER_WAIT_TIME) == AN_ERROR)
 8000402:	21c8      	movs	r1, #200	@ 0xc8
 8000404:	2079      	movs	r0, #121	@ 0x79
 8000406:	f7ff fed9 	bl	80001bc <AwaitResponce>
 800040a:	4603      	mov	r3, r0
 800040c:	2b00      	cmp	r3, #0
 800040e:	d101      	bne.n	8000414 <GoInProgramm+0x88>
		return AN_ERROR;
 8000410:	2300      	movs	r3, #0
 8000412:	e003      	b.n	800041c <GoInProgramm+0x90>
	action.flag = NONE;
 8000414:	4b04      	ldr	r3, [pc, #16]	@ (8000428 <GoInProgramm+0x9c>)
 8000416:	2200      	movs	r2, #0
 8000418:	705a      	strb	r2, [r3, #1]
	return AN_OK;
 800041a:	2301      	movs	r3, #1
}
 800041c:	4618      	mov	r0, r3
 800041e:	3710      	adds	r7, #16
 8000420:	46bd      	mov	sp, r7
 8000422:	bd80      	pop	{r7, pc}
 8000424:	0800274c 	.word	0x0800274c
 8000428:	20000008 	.word	0x20000008

0800042c <DataParser>:
#ifndef INC_MODULES_PARSINGMODULE_H_
#define INC_MODULES_PARSINGMODULE_H_

#include "main.h"

void DataParser(uint8_t *data){
 800042c:	b480      	push	{r7}
 800042e:	b085      	sub	sp, #20
 8000430:	af00      	add	r7, sp, #0
 8000432:	6078      	str	r0, [r7, #4]
	switch(recive.command){
 8000434:	4b15      	ldr	r3, [pc, #84]	@ (800048c <DataParser+0x60>)
 8000436:	781b      	ldrb	r3, [r3, #0]
 8000438:	2b01      	cmp	r3, #1
 800043a:	d002      	beq.n	8000442 <DataParser+0x16>
 800043c:	2b02      	cmp	r3, #2
 800043e:	d005      	beq.n	800044c <DataParser+0x20>
		    	action.data[i] = data[i+1];
		    }
			action.flag = DATA;
			break;
	}
}
 8000440:	e01e      	b.n	8000480 <DataParser+0x54>
			action.flag = data[0];
 8000442:	687b      	ldr	r3, [r7, #4]
 8000444:	781a      	ldrb	r2, [r3, #0]
 8000446:	4b12      	ldr	r3, [pc, #72]	@ (8000490 <DataParser+0x64>)
 8000448:	705a      	strb	r2, [r3, #1]
			break;
 800044a:	e019      	b.n	8000480 <DataParser+0x54>
		    for(uint16_t i=0; i<recive.length-1; i++){
 800044c:	2300      	movs	r3, #0
 800044e:	81fb      	strh	r3, [r7, #14]
 8000450:	e00c      	b.n	800046c <DataParser+0x40>
		    	action.data[i] = data[i+1];
 8000452:	89fb      	ldrh	r3, [r7, #14]
 8000454:	3301      	adds	r3, #1
 8000456:	687a      	ldr	r2, [r7, #4]
 8000458:	441a      	add	r2, r3
 800045a:	89fb      	ldrh	r3, [r7, #14]
 800045c:	7811      	ldrb	r1, [r2, #0]
 800045e:	4a0c      	ldr	r2, [pc, #48]	@ (8000490 <DataParser+0x64>)
 8000460:	4413      	add	r3, r2
 8000462:	460a      	mov	r2, r1
 8000464:	709a      	strb	r2, [r3, #2]
		    for(uint16_t i=0; i<recive.length-1; i++){
 8000466:	89fb      	ldrh	r3, [r7, #14]
 8000468:	3301      	adds	r3, #1
 800046a:	81fb      	strh	r3, [r7, #14]
 800046c:	89fa      	ldrh	r2, [r7, #14]
 800046e:	4b07      	ldr	r3, [pc, #28]	@ (800048c <DataParser+0x60>)
 8000470:	885b      	ldrh	r3, [r3, #2]
 8000472:	3b01      	subs	r3, #1
 8000474:	429a      	cmp	r2, r3
 8000476:	dbec      	blt.n	8000452 <DataParser+0x26>
			action.flag = DATA;
 8000478:	4b05      	ldr	r3, [pc, #20]	@ (8000490 <DataParser+0x64>)
 800047a:	22cc      	movs	r2, #204	@ 0xcc
 800047c:	705a      	strb	r2, [r3, #1]
			break;
 800047e:	bf00      	nop
}
 8000480:	bf00      	nop
 8000482:	3714      	adds	r7, #20
 8000484:	46bd      	mov	sp, r7
 8000486:	bc80      	pop	{r7}
 8000488:	4770      	bx	lr
 800048a:	bf00      	nop
 800048c:	20000004 	.word	0x20000004
 8000490:	20000008 	.word	0x20000008

08000494 <HAL_UART_RxCpltCallback>:

uint16_t recived_bytes = 0;
uint8_t buffer[1024] = {};
uint32_t timer = 0;

void HAL_UART_RxCpltCallback(UART_HandleTypeDef *huart){
 8000494:	b580      	push	{r7, lr}
 8000496:	b082      	sub	sp, #8
 8000498:	af00      	add	r7, sp, #0
 800049a:	6078      	str	r0, [r7, #4]
	if((HAL_GetTick()-timer) >= 5)
 800049c:	f000 fbde 	bl	8000c5c <HAL_GetTick>
 80004a0:	4602      	mov	r2, r0
 80004a2:	4b17      	ldr	r3, [pc, #92]	@ (8000500 <HAL_UART_RxCpltCallback+0x6c>)
 80004a4:	681b      	ldr	r3, [r3, #0]
 80004a6:	1ad3      	subs	r3, r2, r3
 80004a8:	2b04      	cmp	r3, #4
 80004aa:	d902      	bls.n	80004b2 <HAL_UART_RxCpltCallback+0x1e>
		recived_bytes = 0;
 80004ac:	4b15      	ldr	r3, [pc, #84]	@ (8000504 <HAL_UART_RxCpltCallback+0x70>)
 80004ae:	2200      	movs	r2, #0
 80004b0:	801a      	strh	r2, [r3, #0]
	buffer[recived_bytes] = rxcall;
 80004b2:	4b14      	ldr	r3, [pc, #80]	@ (8000504 <HAL_UART_RxCpltCallback+0x70>)
 80004b4:	881b      	ldrh	r3, [r3, #0]
 80004b6:	461a      	mov	r2, r3
 80004b8:	4b13      	ldr	r3, [pc, #76]	@ (8000508 <HAL_UART_RxCpltCallback+0x74>)
 80004ba:	7819      	ldrb	r1, [r3, #0]
 80004bc:	4b13      	ldr	r3, [pc, #76]	@ (800050c <HAL_UART_RxCpltCallback+0x78>)
 80004be:	5499      	strb	r1, [r3, r2]
	recived_bytes++;
 80004c0:	4b10      	ldr	r3, [pc, #64]	@ (8000504 <HAL_UART_RxCpltCallback+0x70>)
 80004c2:	881b      	ldrh	r3, [r3, #0]
 80004c4:	3301      	adds	r3, #1
 80004c6:	b29a      	uxth	r2, r3
 80004c8:	4b0e      	ldr	r3, [pc, #56]	@ (8000504 <HAL_UART_RxCpltCallback+0x70>)
 80004ca:	801a      	strh	r2, [r3, #0]
	if(recived_bytes == recive.length){
 80004cc:	4b10      	ldr	r3, [pc, #64]	@ (8000510 <HAL_UART_RxCpltCallback+0x7c>)
 80004ce:	885a      	ldrh	r2, [r3, #2]
 80004d0:	4b0c      	ldr	r3, [pc, #48]	@ (8000504 <HAL_UART_RxCpltCallback+0x70>)
 80004d2:	881b      	ldrh	r3, [r3, #0]
 80004d4:	429a      	cmp	r2, r3
 80004d6:	d105      	bne.n	80004e4 <HAL_UART_RxCpltCallback+0x50>
		recived_bytes = 0;
 80004d8:	4b0a      	ldr	r3, [pc, #40]	@ (8000504 <HAL_UART_RxCpltCallback+0x70>)
 80004da:	2200      	movs	r2, #0
 80004dc:	801a      	strh	r2, [r3, #0]
		DataParser(buffer);
 80004de:	480b      	ldr	r0, [pc, #44]	@ (800050c <HAL_UART_RxCpltCallback+0x78>)
 80004e0:	f7ff ffa4 	bl	800042c <DataParser>
	}
	timer = HAL_GetTick();
 80004e4:	f000 fbba 	bl	8000c5c <HAL_GetTick>
 80004e8:	4603      	mov	r3, r0
 80004ea:	4a05      	ldr	r2, [pc, #20]	@ (8000500 <HAL_UART_RxCpltCallback+0x6c>)
 80004ec:	6013      	str	r3, [r2, #0]
	HAL_UART_Receive_IT(huart,&rxcall,1);
 80004ee:	2201      	movs	r2, #1
 80004f0:	4905      	ldr	r1, [pc, #20]	@ (8000508 <HAL_UART_RxCpltCallback+0x74>)
 80004f2:	6878      	ldr	r0, [r7, #4]
 80004f4:	f001 fbb6 	bl	8001c64 <HAL_UART_Receive_IT>
}
 80004f8:	bf00      	nop
 80004fa:	3708      	adds	r7, #8
 80004fc:	46bd      	mov	sp, r7
 80004fe:	bd80      	pop	{r7, pc}
 8000500:	20000538 	.word	0x20000538
 8000504:	20000134 	.word	0x20000134
 8000508:	20000546 	.word	0x20000546
 800050c:	20000138 	.word	0x20000138
 8000510:	20000004 	.word	0x20000004

08000514 <TransmitOnAN3155>:

void TransmitOnAN3155(uint8_t *data, uint16_t len){
 8000514:	b580      	push	{r7, lr}
 8000516:	b084      	sub	sp, #16
 8000518:	af00      	add	r7, sp, #0
 800051a:	6078      	str	r0, [r7, #4]
 800051c:	460b      	mov	r3, r1
 800051e:	807b      	strh	r3, [r7, #2]
	for (uint16_t i = 0; i<len; i++){
 8000520:	2300      	movs	r3, #0
 8000522:	81fb      	strh	r3, [r7, #14]
 8000524:	e00b      	b.n	800053e <TransmitOnAN3155+0x2a>
		USART1->DR = data[i];
 8000526:	89fb      	ldrh	r3, [r7, #14]
 8000528:	687a      	ldr	r2, [r7, #4]
 800052a:	4413      	add	r3, r2
 800052c:	781a      	ldrb	r2, [r3, #0]
 800052e:	4b08      	ldr	r3, [pc, #32]	@ (8000550 <TransmitOnAN3155+0x3c>)
 8000530:	605a      	str	r2, [r3, #4]
//		while ((USART1->SR & USART_SR_TXE) == 0);
		HAL_Delay(1);
 8000532:	2001      	movs	r0, #1
 8000534:	f000 fb9c 	bl	8000c70 <HAL_Delay>
	for (uint16_t i = 0; i<len; i++){
 8000538:	89fb      	ldrh	r3, [r7, #14]
 800053a:	3301      	adds	r3, #1
 800053c:	81fb      	strh	r3, [r7, #14]
 800053e:	89fa      	ldrh	r2, [r7, #14]
 8000540:	887b      	ldrh	r3, [r7, #2]
 8000542:	429a      	cmp	r2, r3
 8000544:	d3ef      	bcc.n	8000526 <TransmitOnAN3155+0x12>
	}
}
 8000546:	bf00      	nop
 8000548:	bf00      	nop
 800054a:	3710      	adds	r7, #16
 800054c:	46bd      	mov	sp, r7
 800054e:	bd80      	pop	{r7, pc}
 8000550:	40013800 	.word	0x40013800

08000554 <MX_GPIO_Init>:
        * Output
        * EVENT_OUT
        * EXTI
*/
void MX_GPIO_Init(void)
{
 8000554:	b580      	push	{r7, lr}
 8000556:	b088      	sub	sp, #32
 8000558:	af00      	add	r7, sp, #0

  GPIO_InitTypeDef GPIO_InitStruct = {0};
 800055a:	f107 0310 	add.w	r3, r7, #16
 800055e:	2200      	movs	r2, #0
 8000560:	601a      	str	r2, [r3, #0]
 8000562:	605a      	str	r2, [r3, #4]
 8000564:	609a      	str	r2, [r3, #8]
 8000566:	60da      	str	r2, [r3, #12]

  /* GPIO Ports Clock Enable */
  __HAL_RCC_GPIOC_CLK_ENABLE();
 8000568:	4b21      	ldr	r3, [pc, #132]	@ (80005f0 <MX_GPIO_Init+0x9c>)
 800056a:	699b      	ldr	r3, [r3, #24]
 800056c:	4a20      	ldr	r2, [pc, #128]	@ (80005f0 <MX_GPIO_Init+0x9c>)
 800056e:	f043 0310 	orr.w	r3, r3, #16
 8000572:	6193      	str	r3, [r2, #24]
 8000574:	4b1e      	ldr	r3, [pc, #120]	@ (80005f0 <MX_GPIO_Init+0x9c>)
 8000576:	699b      	ldr	r3, [r3, #24]
 8000578:	f003 0310 	and.w	r3, r3, #16
 800057c:	60fb      	str	r3, [r7, #12]
 800057e:	68fb      	ldr	r3, [r7, #12]
  __HAL_RCC_GPIOD_CLK_ENABLE();
 8000580:	4b1b      	ldr	r3, [pc, #108]	@ (80005f0 <MX_GPIO_Init+0x9c>)
 8000582:	699b      	ldr	r3, [r3, #24]
 8000584:	4a1a      	ldr	r2, [pc, #104]	@ (80005f0 <MX_GPIO_Init+0x9c>)
 8000586:	f043 0320 	orr.w	r3, r3, #32
 800058a:	6193      	str	r3, [r2, #24]
 800058c:	4b18      	ldr	r3, [pc, #96]	@ (80005f0 <MX_GPIO_Init+0x9c>)
 800058e:	699b      	ldr	r3, [r3, #24]
 8000590:	f003 0320 	and.w	r3, r3, #32
 8000594:	60bb      	str	r3, [r7, #8]
 8000596:	68bb      	ldr	r3, [r7, #8]
  __HAL_RCC_GPIOA_CLK_ENABLE();
 8000598:	4b15      	ldr	r3, [pc, #84]	@ (80005f0 <MX_GPIO_Init+0x9c>)
 800059a:	699b      	ldr	r3, [r3, #24]
 800059c:	4a14      	ldr	r2, [pc, #80]	@ (80005f0 <MX_GPIO_Init+0x9c>)
 800059e:	f043 0304 	orr.w	r3, r3, #4
 80005a2:	6193      	str	r3, [r2, #24]
 80005a4:	4b12      	ldr	r3, [pc, #72]	@ (80005f0 <MX_GPIO_Init+0x9c>)
 80005a6:	699b      	ldr	r3, [r3, #24]
 80005a8:	f003 0304 	and.w	r3, r3, #4
 80005ac:	607b      	str	r3, [r7, #4]
 80005ae:	687b      	ldr	r3, [r7, #4]

  /*Configure GPIO pin Output Level */
  HAL_GPIO_WritePin(GPIOC, GPIO_PIN_13|GPIO_PIN_14, GPIO_PIN_SET);
 80005b0:	2201      	movs	r2, #1
 80005b2:	f44f 41c0 	mov.w	r1, #24576	@ 0x6000
 80005b6:	480f      	ldr	r0, [pc, #60]	@ (80005f4 <MX_GPIO_Init+0xa0>)
 80005b8:	f000 fec2 	bl	8001340 <HAL_GPIO_WritePin>
  HAL_GPIO_WritePin(GPIOC, GPIO_PIN_15, GPIO_PIN_RESET);
 80005bc:	2200      	movs	r2, #0
 80005be:	f44f 4100 	mov.w	r1, #32768	@ 0x8000
 80005c2:	480c      	ldr	r0, [pc, #48]	@ (80005f4 <MX_GPIO_Init+0xa0>)
 80005c4:	f000 febc 	bl	8001340 <HAL_GPIO_WritePin>

  /*Configure GPIO pins : PC13 PC14 PC15 */
  GPIO_InitStruct.Pin = GPIO_PIN_13|GPIO_PIN_14|GPIO_PIN_15;
 80005c8:	f44f 4360 	mov.w	r3, #57344	@ 0xe000
 80005cc:	613b      	str	r3, [r7, #16]
  GPIO_InitStruct.Mode = GPIO_MODE_OUTPUT_PP;
 80005ce:	2301      	movs	r3, #1
 80005d0:	617b      	str	r3, [r7, #20]
  GPIO_InitStruct.Pull = GPIO_NOPULL;
 80005d2:	2300      	movs	r3, #0
 80005d4:	61bb      	str	r3, [r7, #24]
  GPIO_InitStruct.Speed = GPIO_SPEED_FREQ_LOW;
 80005d6:	2302      	movs	r3, #2
 80005d8:	61fb      	str	r3, [r7, #28]
  HAL_GPIO_Init(GPIOC, &GPIO_InitStruct);
 80005da:	f107 0310 	add.w	r3, r7, #16
 80005de:	4619      	mov	r1, r3
 80005e0:	4804      	ldr	r0, [pc, #16]	@ (80005f4 <MX_GPIO_Init+0xa0>)
 80005e2:	f000 fd29 	bl	8001038 <HAL_GPIO_Init>

}
 80005e6:	bf00      	nop
 80005e8:	3720      	adds	r7, #32
 80005ea:	46bd      	mov	sp, r7
 80005ec:	bd80      	pop	{r7, pc}
 80005ee:	bf00      	nop
 80005f0:	40021000 	.word	0x40021000
 80005f4:	40011000 	.word	0x40011000

080005f8 <crc16>:
  Check : 0x29B1 ("123456789")
  MaxLen: 4095 байт (32767 бит) - обнаружение одинарных, двойных, тройных и всех нечетных ошибок
*/
#define POLY 0x1021

static uint16_t crc16(uint16_t crc_now ,uint8_t *data, uint16_t size) {
 80005f8:	b480      	push	{r7}
 80005fa:	b085      	sub	sp, #20
 80005fc:	af00      	add	r7, sp, #0
 80005fe:	4603      	mov	r3, r0
 8000600:	6039      	str	r1, [r7, #0]
 8000602:	80fb      	strh	r3, [r7, #6]
 8000604:	4613      	mov	r3, r2
 8000606:	80bb      	strh	r3, [r7, #4]
	uint16_t crc = crc_now;
 8000608:	88fb      	ldrh	r3, [r7, #6]
 800060a:	81fb      	strh	r3, [r7, #14]

	for (uint16_t j = 0; j < size; j++)
 800060c:	2300      	movs	r3, #0
 800060e:	81bb      	strh	r3, [r7, #12]
 8000610:	e028      	b.n	8000664 <crc16+0x6c>
	{
		crc ^= data[j] << 8;
 8000612:	89bb      	ldrh	r3, [r7, #12]
 8000614:	683a      	ldr	r2, [r7, #0]
 8000616:	4413      	add	r3, r2
 8000618:	781b      	ldrb	r3, [r3, #0]
 800061a:	021b      	lsls	r3, r3, #8
 800061c:	b21a      	sxth	r2, r3
 800061e:	f9b7 300e 	ldrsh.w	r3, [r7, #14]
 8000622:	4053      	eors	r3, r2
 8000624:	b21b      	sxth	r3, r3
 8000626:	81fb      	strh	r3, [r7, #14]
		for (uint8_t i = 0; i < 8; i++)
 8000628:	2300      	movs	r3, #0
 800062a:	72fb      	strb	r3, [r7, #11]
 800062c:	e014      	b.n	8000658 <crc16+0x60>
			crc = crc & 0x8000 ? (crc << 1) ^ POLY : crc << 1;
 800062e:	f9b7 300e 	ldrsh.w	r3, [r7, #14]
 8000632:	2b00      	cmp	r3, #0
 8000634:	da09      	bge.n	800064a <crc16+0x52>
 8000636:	89fb      	ldrh	r3, [r7, #14]
 8000638:	005b      	lsls	r3, r3, #1
 800063a:	b21b      	sxth	r3, r3
 800063c:	f483 5381 	eor.w	r3, r3, #4128	@ 0x1020
 8000640:	f083 0301 	eor.w	r3, r3, #1
 8000644:	b21b      	sxth	r3, r3
 8000646:	b29b      	uxth	r3, r3
 8000648:	e002      	b.n	8000650 <crc16+0x58>
 800064a:	89fb      	ldrh	r3, [r7, #14]
 800064c:	005b      	lsls	r3, r3, #1
 800064e:	b29b      	uxth	r3, r3
 8000650:	81fb      	strh	r3, [r7, #14]
		for (uint8_t i = 0; i < 8; i++)
 8000652:	7afb      	ldrb	r3, [r7, #11]
 8000654:	3301      	adds	r3, #1
 8000656:	72fb      	strb	r3, [r7, #11]
 8000658:	7afb      	ldrb	r3, [r7, #11]
 800065a:	2b07      	cmp	r3, #7
 800065c:	d9e7      	bls.n	800062e <crc16+0x36>
	for (uint16_t j = 0; j < size; j++)
 800065e:	89bb      	ldrh	r3, [r7, #12]
 8000660:	3301      	adds	r3, #1
 8000662:	81bb      	strh	r3, [r7, #12]
 8000664:	89ba      	ldrh	r2, [r7, #12]
 8000666:	88bb      	ldrh	r3, [r7, #4]
 8000668:	429a      	cmp	r2, r3
 800066a:	d3d2      	bcc.n	8000612 <crc16+0x1a>
	}
	return crc;
 800066c:	89fb      	ldrh	r3, [r7, #14]
}
 800066e:	4618      	mov	r0, r3
 8000670:	3714      	adds	r7, #20
 8000672:	46bd      	mov	sp, r7
 8000674:	bc80      	pop	{r7}
 8000676:	4770      	bx	lr

08000678 <GetDataSize>:
uint16_t crc16_schet = 0;
uint16_t read = MAX_DATA;

volatile uint16_t crc_now = 0xFFFF;

void GetDataSize(uint32_t address){
 8000678:	b580      	push	{r7, lr}
 800067a:	b082      	sub	sp, #8
 800067c:	af00      	add	r7, sp, #0
 800067e:	6078      	str	r0, [r7, #4]
	if(ReadFlashData(address, 4)){
 8000680:	2104      	movs	r1, #4
 8000682:	6878      	ldr	r0, [r7, #4]
 8000684:	f7ff fe06 	bl	8000294 <ReadFlashData>
 8000688:	4603      	mov	r3, r0
 800068a:	2b00      	cmp	r3, #0
 800068c:	d012      	beq.n	80006b4 <GetDataSize+0x3c>
		dataSize = (uint32_t)(action.data[3] << 24) |
 800068e:	4b0b      	ldr	r3, [pc, #44]	@ (80006bc <GetDataSize+0x44>)
 8000690:	795b      	ldrb	r3, [r3, #5]
 8000692:	061a      	lsls	r2, r3, #24
		(uint32_t)(action.data[2] << 16) | (uint32_t)(action.data[1] << 8) |
 8000694:	4b09      	ldr	r3, [pc, #36]	@ (80006bc <GetDataSize+0x44>)
 8000696:	791b      	ldrb	r3, [r3, #4]
 8000698:	041b      	lsls	r3, r3, #16
		dataSize = (uint32_t)(action.data[3] << 24) |
 800069a:	431a      	orrs	r2, r3
		(uint32_t)(action.data[2] << 16) | (uint32_t)(action.data[1] << 8) |
 800069c:	4b07      	ldr	r3, [pc, #28]	@ (80006bc <GetDataSize+0x44>)
 800069e:	78db      	ldrb	r3, [r3, #3]
 80006a0:	021b      	lsls	r3, r3, #8
 80006a2:	4313      	orrs	r3, r2
		(uint32_t)(action.data[0]);
 80006a4:	4a05      	ldr	r2, [pc, #20]	@ (80006bc <GetDataSize+0x44>)
 80006a6:	7892      	ldrb	r2, [r2, #2]
		(uint32_t)(action.data[2] << 16) | (uint32_t)(action.data[1] << 8) |
 80006a8:	4313      	orrs	r3, r2
		dataSize = (uint32_t)(action.data[3] << 24) |
 80006aa:	4a05      	ldr	r2, [pc, #20]	@ (80006c0 <GetDataSize+0x48>)
 80006ac:	6013      	str	r3, [r2, #0]
		action.command = GET_CRC16;
 80006ae:	4b03      	ldr	r3, [pc, #12]	@ (80006bc <GetDataSize+0x44>)
 80006b0:	2202      	movs	r2, #2
 80006b2:	701a      	strb	r2, [r3, #0]
	}
}
 80006b4:	bf00      	nop
 80006b6:	3708      	adds	r7, #8
 80006b8:	46bd      	mov	sp, r7
 80006ba:	bd80      	pop	{r7, pc}
 80006bc:	20000008 	.word	0x20000008
 80006c0:	20000540 	.word	0x20000540

080006c4 <GetCrc16>:

void GetCrc16(uint32_t address){
 80006c4:	b580      	push	{r7, lr}
 80006c6:	b082      	sub	sp, #8
 80006c8:	af00      	add	r7, sp, #0
 80006ca:	6078      	str	r0, [r7, #4]
	if(ReadFlashData(address, 2)){
 80006cc:	2102      	movs	r1, #2
 80006ce:	6878      	ldr	r0, [r7, #4]
 80006d0:	f7ff fde0 	bl	8000294 <ReadFlashData>
 80006d4:	4603      	mov	r3, r0
 80006d6:	2b00      	cmp	r3, #0
 80006d8:	d00c      	beq.n	80006f4 <GetCrc16+0x30>
		crc16_schet = (uint16_t)(action.data[1] << 8) |
 80006da:	4b08      	ldr	r3, [pc, #32]	@ (80006fc <GetCrc16+0x38>)
 80006dc:	78db      	ldrb	r3, [r3, #3]
 80006de:	021b      	lsls	r3, r3, #8
 80006e0:	b29b      	uxth	r3, r3
		(uint16_t)(action.data[0]);
 80006e2:	4a06      	ldr	r2, [pc, #24]	@ (80006fc <GetCrc16+0x38>)
 80006e4:	7892      	ldrb	r2, [r2, #2]
		crc16_schet = (uint16_t)(action.data[1] << 8) |
 80006e6:	4313      	orrs	r3, r2
 80006e8:	b29a      	uxth	r2, r3
 80006ea:	4b05      	ldr	r3, [pc, #20]	@ (8000700 <GetCrc16+0x3c>)
 80006ec:	801a      	strh	r2, [r3, #0]
		action.command = READ_DATA;
 80006ee:	4b03      	ldr	r3, [pc, #12]	@ (80006fc <GetCrc16+0x38>)
 80006f0:	2203      	movs	r2, #3
 80006f2:	701a      	strb	r2, [r3, #0]
	}
}
 80006f4:	bf00      	nop
 80006f6:	3708      	adds	r7, #8
 80006f8:	46bd      	mov	sp, r7
 80006fa:	bd80      	pop	{r7, pc}
 80006fc:	20000008 	.word	0x20000008
 8000700:	20000544 	.word	0x20000544

08000704 <ReadMemoryOnDevice>:

void ReadMemoryOnDevice(){
 8000704:	b580      	push	{r7, lr}
 8000706:	af00      	add	r7, sp, #0
	if(ReadFlashData(FLASH_ADRESS_START+byteReads, read) && dataSize >= read){
 8000708:	4b23      	ldr	r3, [pc, #140]	@ (8000798 <ReadMemoryOnDevice+0x94>)
 800070a:	681b      	ldr	r3, [r3, #0]
 800070c:	f103 6300 	add.w	r3, r3, #134217728	@ 0x8000000
 8000710:	4a22      	ldr	r2, [pc, #136]	@ (800079c <ReadMemoryOnDevice+0x98>)
 8000712:	8812      	ldrh	r2, [r2, #0]
 8000714:	4611      	mov	r1, r2
 8000716:	4618      	mov	r0, r3
 8000718:	f7ff fdbc 	bl	8000294 <ReadFlashData>
 800071c:	4603      	mov	r3, r0
 800071e:	2b00      	cmp	r3, #0
 8000720:	d038      	beq.n	8000794 <ReadMemoryOnDevice+0x90>
 8000722:	4b1e      	ldr	r3, [pc, #120]	@ (800079c <ReadMemoryOnDevice+0x98>)
 8000724:	881b      	ldrh	r3, [r3, #0]
 8000726:	461a      	mov	r2, r3
 8000728:	4b1d      	ldr	r3, [pc, #116]	@ (80007a0 <ReadMemoryOnDevice+0x9c>)
 800072a:	681b      	ldr	r3, [r3, #0]
 800072c:	429a      	cmp	r2, r3
 800072e:	d831      	bhi.n	8000794 <ReadMemoryOnDevice+0x90>
		byteReads+=read;
 8000730:	4b1a      	ldr	r3, [pc, #104]	@ (800079c <ReadMemoryOnDevice+0x98>)
 8000732:	881b      	ldrh	r3, [r3, #0]
 8000734:	461a      	mov	r2, r3
 8000736:	4b18      	ldr	r3, [pc, #96]	@ (8000798 <ReadMemoryOnDevice+0x94>)
 8000738:	681b      	ldr	r3, [r3, #0]
 800073a:	4413      	add	r3, r2
 800073c:	4a16      	ldr	r2, [pc, #88]	@ (8000798 <ReadMemoryOnDevice+0x94>)
 800073e:	6013      	str	r3, [r2, #0]
		crc_now = crc16(crc_now, action.data, read);
 8000740:	4b18      	ldr	r3, [pc, #96]	@ (80007a4 <ReadMemoryOnDevice+0xa0>)
 8000742:	881b      	ldrh	r3, [r3, #0]
 8000744:	b29b      	uxth	r3, r3
 8000746:	4a15      	ldr	r2, [pc, #84]	@ (800079c <ReadMemoryOnDevice+0x98>)
 8000748:	8812      	ldrh	r2, [r2, #0]
 800074a:	4917      	ldr	r1, [pc, #92]	@ (80007a8 <ReadMemoryOnDevice+0xa4>)
 800074c:	4618      	mov	r0, r3
 800074e:	f7ff ff53 	bl	80005f8 <crc16>
 8000752:	4603      	mov	r3, r0
 8000754:	461a      	mov	r2, r3
 8000756:	4b13      	ldr	r3, [pc, #76]	@ (80007a4 <ReadMemoryOnDevice+0xa0>)
 8000758:	801a      	strh	r2, [r3, #0]
		if((dataSize-byteReads) == 0){
 800075a:	4b11      	ldr	r3, [pc, #68]	@ (80007a0 <ReadMemoryOnDevice+0x9c>)
 800075c:	681a      	ldr	r2, [r3, #0]
 800075e:	4b0e      	ldr	r3, [pc, #56]	@ (8000798 <ReadMemoryOnDevice+0x94>)
 8000760:	681b      	ldr	r3, [r3, #0]
 8000762:	429a      	cmp	r2, r3
 8000764:	d103      	bne.n	800076e <ReadMemoryOnDevice+0x6a>
		  action.command = GO_COMMAND;
 8000766:	4b11      	ldr	r3, [pc, #68]	@ (80007ac <ReadMemoryOnDevice+0xa8>)
 8000768:	2221      	movs	r2, #33	@ 0x21
 800076a:	701a      	strb	r2, [r3, #0]
		}else if((dataSize-byteReads) < read){
		  read = (dataSize-byteReads);
		}
	}
}
 800076c:	e012      	b.n	8000794 <ReadMemoryOnDevice+0x90>
		}else if((dataSize-byteReads) < read){
 800076e:	4b0c      	ldr	r3, [pc, #48]	@ (80007a0 <ReadMemoryOnDevice+0x9c>)
 8000770:	681a      	ldr	r2, [r3, #0]
 8000772:	4b09      	ldr	r3, [pc, #36]	@ (8000798 <ReadMemoryOnDevice+0x94>)
 8000774:	681b      	ldr	r3, [r3, #0]
 8000776:	1ad3      	subs	r3, r2, r3
 8000778:	4a08      	ldr	r2, [pc, #32]	@ (800079c <ReadMemoryOnDevice+0x98>)
 800077a:	8812      	ldrh	r2, [r2, #0]
 800077c:	4293      	cmp	r3, r2
 800077e:	d209      	bcs.n	8000794 <ReadMemoryOnDevice+0x90>
		  read = (dataSize-byteReads);
 8000780:	4b07      	ldr	r3, [pc, #28]	@ (80007a0 <ReadMemoryOnDevice+0x9c>)
 8000782:	681b      	ldr	r3, [r3, #0]
 8000784:	b29a      	uxth	r2, r3
 8000786:	4b04      	ldr	r3, [pc, #16]	@ (8000798 <ReadMemoryOnDevice+0x94>)
 8000788:	681b      	ldr	r3, [r3, #0]
 800078a:	b29b      	uxth	r3, r3
 800078c:	1ad3      	subs	r3, r2, r3
 800078e:	b29a      	uxth	r2, r3
 8000790:	4b02      	ldr	r3, [pc, #8]	@ (800079c <ReadMemoryOnDevice+0x98>)
 8000792:	801a      	strh	r2, [r3, #0]
}
 8000794:	bf00      	nop
 8000796:	bd80      	pop	{r7, pc}
 8000798:	2000053c 	.word	0x2000053c
 800079c:	20000000 	.word	0x20000000
 80007a0:	20000540 	.word	0x20000540
 80007a4:	20000002 	.word	0x20000002
 80007a8:	2000000a 	.word	0x2000000a
 80007ac:	20000008 	.word	0x20000008

080007b0 <VerifyAndGo>:

void VerifyAndGo(){
 80007b0:	b580      	push	{r7, lr}
 80007b2:	af00      	add	r7, sp, #0
	if(crc16_schet == crc_now){
 80007b4:	4b0c      	ldr	r3, [pc, #48]	@ (80007e8 <VerifyAndGo+0x38>)
 80007b6:	881a      	ldrh	r2, [r3, #0]
 80007b8:	4b0c      	ldr	r3, [pc, #48]	@ (80007ec <VerifyAndGo+0x3c>)
 80007ba:	881b      	ldrh	r3, [r3, #0]
 80007bc:	b29b      	uxth	r3, r3
 80007be:	429a      	cmp	r2, r3
 80007c0:	d10c      	bne.n	80007dc <VerifyAndGo+0x2c>
		if(GoInProgramm(FLASH_ADRESS_START)){
 80007c2:	f04f 6000 	mov.w	r0, #134217728	@ 0x8000000
 80007c6:	f7ff fde1 	bl	800038c <GoInProgramm>
 80007ca:	4603      	mov	r3, r0
 80007cc:	2b00      	cmp	r3, #0
 80007ce:	d008      	beq.n	80007e2 <VerifyAndGo+0x32>
			BootModeEnd();
 80007d0:	f7ff fcd8 	bl	8000184 <BootModeEnd>
			action.command = SUCCESS_LOG;
 80007d4:	4b06      	ldr	r3, [pc, #24]	@ (80007f0 <VerifyAndGo+0x40>)
 80007d6:	2205      	movs	r2, #5
 80007d8:	701a      	strb	r2, [r3, #0]
		}
	}else
		action.command = ERROR_LOG;
}
 80007da:	e002      	b.n	80007e2 <VerifyAndGo+0x32>
		action.command = ERROR_LOG;
 80007dc:	4b04      	ldr	r3, [pc, #16]	@ (80007f0 <VerifyAndGo+0x40>)
 80007de:	2200      	movs	r2, #0
 80007e0:	701a      	strb	r2, [r3, #0]
}
 80007e2:	bf00      	nop
 80007e4:	bd80      	pop	{r7, pc}
 80007e6:	bf00      	nop
 80007e8:	20000544 	.word	0x20000544
 80007ec:	20000002 	.word	0x20000002
 80007f0:	20000008 	.word	0x20000008

080007f4 <SystemClock_Config>:
#define INC_INITS_RCCINIT_H_

#include "main.h"

void SystemClock_Config(void)
{
 80007f4:	b580      	push	{r7, lr}
 80007f6:	b090      	sub	sp, #64	@ 0x40
 80007f8:	af00      	add	r7, sp, #0
  RCC_OscInitTypeDef RCC_OscInitStruct = {0};
 80007fa:	f107 0318 	add.w	r3, r7, #24
 80007fe:	2228      	movs	r2, #40	@ 0x28
 8000800:	2100      	movs	r1, #0
 8000802:	4618      	mov	r0, r3
 8000804:	f001 ff66 	bl	80026d4 <memset>
  RCC_ClkInitTypeDef RCC_ClkInitStruct = {0};
 8000808:	1d3b      	adds	r3, r7, #4
 800080a:	2200      	movs	r2, #0
 800080c:	601a      	str	r2, [r3, #0]
 800080e:	605a      	str	r2, [r3, #4]
 8000810:	609a      	str	r2, [r3, #8]
 8000812:	60da      	str	r2, [r3, #12]
 8000814:	611a      	str	r2, [r3, #16]

  /** Initializes the RCC Oscillators according to the specified parameters
  * in the RCC_OscInitTypeDef structure.
  */
  RCC_OscInitStruct.OscillatorType = RCC_OSCILLATORTYPE_HSE;
 8000816:	2301      	movs	r3, #1
 8000818:	61bb      	str	r3, [r7, #24]
  RCC_OscInitStruct.HSEState = RCC_HSE_ON;
 800081a:	f44f 3380 	mov.w	r3, #65536	@ 0x10000
 800081e:	61fb      	str	r3, [r7, #28]
  RCC_OscInitStruct.HSEPredivValue = RCC_HSE_PREDIV_DIV1;
 8000820:	2300      	movs	r3, #0
 8000822:	623b      	str	r3, [r7, #32]
  RCC_OscInitStruct.HSIState = RCC_HSI_ON;
 8000824:	2301      	movs	r3, #1
 8000826:	62bb      	str	r3, [r7, #40]	@ 0x28
  RCC_OscInitStruct.PLL.PLLState = RCC_PLL_ON;
 8000828:	2302      	movs	r3, #2
 800082a:	637b      	str	r3, [r7, #52]	@ 0x34
  RCC_OscInitStruct.PLL.PLLSource = RCC_PLLSOURCE_HSE;
 800082c:	f44f 3380 	mov.w	r3, #65536	@ 0x10000
 8000830:	63bb      	str	r3, [r7, #56]	@ 0x38
  RCC_OscInitStruct.PLL.PLLMUL = RCC_PLL_MUL8;
 8000832:	f44f 13c0 	mov.w	r3, #1572864	@ 0x180000
 8000836:	63fb      	str	r3, [r7, #60]	@ 0x3c
  HAL_RCC_OscConfig(&RCC_OscInitStruct);
 8000838:	f107 0318 	add.w	r3, r7, #24
 800083c:	4618      	mov	r0, r3
 800083e:	f000 fdb1 	bl	80013a4 <HAL_RCC_OscConfig>

  /** Initializes the CPU, AHB and APB buses clocks
  */
  RCC_ClkInitStruct.ClockType = RCC_CLOCKTYPE_HCLK|RCC_CLOCKTYPE_SYSCLK
 8000842:	230f      	movs	r3, #15
 8000844:	607b      	str	r3, [r7, #4]
                              |RCC_CLOCKTYPE_PCLK1|RCC_CLOCKTYPE_PCLK2;
  RCC_ClkInitStruct.SYSCLKSource = RCC_SYSCLKSOURCE_PLLCLK;
 8000846:	2302      	movs	r3, #2
 8000848:	60bb      	str	r3, [r7, #8]
  RCC_ClkInitStruct.AHBCLKDivider = RCC_SYSCLK_DIV1;
 800084a:	2300      	movs	r3, #0
 800084c:	60fb      	str	r3, [r7, #12]
  RCC_ClkInitStruct.APB1CLKDivider = RCC_HCLK_DIV2;
 800084e:	f44f 6380 	mov.w	r3, #1024	@ 0x400
 8000852:	613b      	str	r3, [r7, #16]
  RCC_ClkInitStruct.APB2CLKDivider = RCC_HCLK_DIV1;
 8000854:	2300      	movs	r3, #0
 8000856:	617b      	str	r3, [r7, #20]

  HAL_RCC_ClockConfig(&RCC_ClkInitStruct, FLASH_LATENCY_2);
 8000858:	1d3b      	adds	r3, r7, #4
 800085a:	2102      	movs	r1, #2
 800085c:	4618      	mov	r0, r3
 800085e:	f001 f823 	bl	80018a8 <HAL_RCC_ClockConfig>
}
 8000862:	bf00      	nop
 8000864:	3740      	adds	r7, #64	@ 0x40
 8000866:	46bd      	mov	sp, r7
 8000868:	bd80      	pop	{r7, pc}
	...

0800086c <main>:
uint8_t rxcall = 0;
ReciveData recive = {RECIVE_STATE, 1};
Action action = {GET_DATA_SIZE, 0, {}};

int main(void)
{
 800086c:	b580      	push	{r7, lr}
 800086e:	af00      	add	r7, sp, #0
  HAL_Init();
 8000870:	f000 f99c 	bl	8000bac <HAL_Init>
  SystemClock_Config();
 8000874:	f7ff ffbe 	bl	80007f4 <SystemClock_Config>
  MX_GPIO_Init();
 8000878:	f7ff fe6c 	bl	8000554 <MX_GPIO_Init>
  MX_USART1_UART_Init();
 800087c:	f000 f8f8 	bl	8000a70 <MX_USART1_UART_Init>
  HAL_UART_Receive_IT(&huart1,&rxcall,1);
 8000880:	2201      	movs	r2, #1
 8000882:	493e      	ldr	r1, [pc, #248]	@ (800097c <main+0x110>)
 8000884:	483e      	ldr	r0, [pc, #248]	@ (8000980 <main+0x114>)
 8000886:	f001 f9ed 	bl	8001c64 <HAL_UART_Receive_IT>

  BootModeStart(); 								// Start boot mode
 800088a:	f7ff fc5f 	bl	800014c <BootModeStart>
  HAL_Delay(400);
 800088e:	f44f 70c8 	mov.w	r0, #400	@ 0x190
 8000892:	f000 f9ed 	bl	8000c70 <HAL_Delay>

  StartCommand();  								// Start connection
 8000896:	f7ff fcd5 	bl	8000244 <StartCommand>
  HAL_GPIO_WritePin(GPIOC, GPIO_PIN_13, GPIO_PIN_RESET);
 800089a:	2200      	movs	r2, #0
 800089c:	f44f 5100 	mov.w	r1, #8192	@ 0x2000
 80008a0:	4838      	ldr	r0, [pc, #224]	@ (8000984 <main+0x118>)
 80008a2:	f000 fd4d 	bl	8001340 <HAL_GPIO_WritePin>
  while (1)
  {
	  switch(action.command){
 80008a6:	4b38      	ldr	r3, [pc, #224]	@ (8000988 <main+0x11c>)
 80008a8:	781b      	ldrb	r3, [r3, #0]
 80008aa:	2b21      	cmp	r3, #33	@ 0x21
 80008ac:	d8fb      	bhi.n	80008a6 <main+0x3a>
 80008ae:	a201      	add	r2, pc, #4	@ (adr r2, 80008b4 <main+0x48>)
 80008b0:	f852 f023 	ldr.w	pc, [r2, r3, lsl #2]
 80008b4:	08000967 	.word	0x08000967
 80008b8:	0800093d 	.word	0x0800093d
 80008bc:	08000945 	.word	0x08000945
 80008c0:	0800094d 	.word	0x0800094d
 80008c4:	080008a7 	.word	0x080008a7
 80008c8:	08000959 	.word	0x08000959
 80008cc:	080008a7 	.word	0x080008a7
 80008d0:	080008a7 	.word	0x080008a7
 80008d4:	080008a7 	.word	0x080008a7
 80008d8:	080008a7 	.word	0x080008a7
 80008dc:	080008a7 	.word	0x080008a7
 80008e0:	080008a7 	.word	0x080008a7
 80008e4:	080008a7 	.word	0x080008a7
 80008e8:	080008a7 	.word	0x080008a7
 80008ec:	080008a7 	.word	0x080008a7
 80008f0:	080008a7 	.word	0x080008a7
 80008f4:	080008a7 	.word	0x080008a7
 80008f8:	080008a7 	.word	0x080008a7
 80008fc:	080008a7 	.word	0x080008a7
 8000900:	080008a7 	.word	0x080008a7
 8000904:	080008a7 	.word	0x080008a7
 8000908:	080008a7 	.word	0x080008a7
 800090c:	080008a7 	.word	0x080008a7
 8000910:	080008a7 	.word	0x080008a7
 8000914:	080008a7 	.word	0x080008a7
 8000918:	080008a7 	.word	0x080008a7
 800091c:	080008a7 	.word	0x080008a7
 8000920:	080008a7 	.word	0x080008a7
 8000924:	080008a7 	.word	0x080008a7
 8000928:	080008a7 	.word	0x080008a7
 800092c:	080008a7 	.word	0x080008a7
 8000930:	080008a7 	.word	0x080008a7
 8000934:	080008a7 	.word	0x080008a7
 8000938:	08000953 	.word	0x08000953
	  	  case(GET_DATA_SIZE):
			  GetDataSize(FLASH_DATA_SIZE_POS);
 800093c:	4813      	ldr	r0, [pc, #76]	@ (800098c <main+0x120>)
 800093e:	f7ff fe9b 	bl	8000678 <GetDataSize>
		  	  break;
 8000942:	e01a      	b.n	800097a <main+0x10e>
	  	  case(GET_CRC16):
			  GetCrc16(FLASH_CRC16_POS);
 8000944:	4812      	ldr	r0, [pc, #72]	@ (8000990 <main+0x124>)
 8000946:	f7ff febd 	bl	80006c4 <GetCrc16>
	  	  	  break;
 800094a:	e016      	b.n	800097a <main+0x10e>
	  	  case(READ_DATA):
			  ReadMemoryOnDevice();
 800094c:	f7ff feda 	bl	8000704 <ReadMemoryOnDevice>
	  	  	  break;
 8000950:	e013      	b.n	800097a <main+0x10e>
	  	  case(GO_COMMAND):
			  VerifyAndGo();
 8000952:	f7ff ff2d 	bl	80007b0 <VerifyAndGo>
	  	  	  break;
 8000956:	e010      	b.n	800097a <main+0x10e>
	  	  case(SUCCESS_LOG):
			  HAL_GPIO_WritePin(GPIOC, GPIO_PIN_13, GPIO_PIN_SET);
 8000958:	2201      	movs	r2, #1
 800095a:	f44f 5100 	mov.w	r1, #8192	@ 0x2000
 800095e:	4809      	ldr	r0, [pc, #36]	@ (8000984 <main+0x118>)
 8000960:	f000 fcee 	bl	8001340 <HAL_GPIO_WritePin>
	  	  	  break;
 8000964:	e009      	b.n	800097a <main+0x10e>
	  	  case(ERROR_LOG):
			  HAL_GPIO_TogglePin(GPIOC, GPIO_PIN_13);
 8000966:	f44f 5100 	mov.w	r1, #8192	@ 0x2000
 800096a:	4806      	ldr	r0, [pc, #24]	@ (8000984 <main+0x118>)
 800096c:	f000 fd00 	bl	8001370 <HAL_GPIO_TogglePin>
			  HAL_Delay(500);
 8000970:	f44f 70fa 	mov.w	r0, #500	@ 0x1f4
 8000974:	f000 f97c 	bl	8000c70 <HAL_Delay>
 8000978:	e795      	b.n	80008a6 <main+0x3a>
	  switch(action.command){
 800097a:	e794      	b.n	80008a6 <main+0x3a>
 800097c:	20000546 	.word	0x20000546
 8000980:	20000548 	.word	0x20000548
 8000984:	40011000 	.word	0x40011000
 8000988:	20000008 	.word	0x20000008
 800098c:	0800fffa 	.word	0x0800fffa
 8000990:	0800fffe 	.word	0x0800fffe

08000994 <HAL_MspInit>:
/* USER CODE END 0 */
/**
  * Initializes the Global MSP.
  */
void HAL_MspInit(void)
{
 8000994:	b480      	push	{r7}
 8000996:	b085      	sub	sp, #20
 8000998:	af00      	add	r7, sp, #0

  /* USER CODE BEGIN MspInit 0 */

  /* USER CODE END MspInit 0 */

  __HAL_RCC_AFIO_CLK_ENABLE();
 800099a:	4b15      	ldr	r3, [pc, #84]	@ (80009f0 <HAL_MspInit+0x5c>)
 800099c:	699b      	ldr	r3, [r3, #24]
 800099e:	4a14      	ldr	r2, [pc, #80]	@ (80009f0 <HAL_MspInit+0x5c>)
 80009a0:	f043 0301 	orr.w	r3, r3, #1
 80009a4:	6193      	str	r3, [r2, #24]
 80009a6:	4b12      	ldr	r3, [pc, #72]	@ (80009f0 <HAL_MspInit+0x5c>)
 80009a8:	699b      	ldr	r3, [r3, #24]
 80009aa:	f003 0301 	and.w	r3, r3, #1
 80009ae:	60bb      	str	r3, [r7, #8]
 80009b0:	68bb      	ldr	r3, [r7, #8]
  __HAL_RCC_PWR_CLK_ENABLE();
 80009b2:	4b0f      	ldr	r3, [pc, #60]	@ (80009f0 <HAL_MspInit+0x5c>)
 80009b4:	69db      	ldr	r3, [r3, #28]
 80009b6:	4a0e      	ldr	r2, [pc, #56]	@ (80009f0 <HAL_MspInit+0x5c>)
 80009b8:	f043 5380 	orr.w	r3, r3, #268435456	@ 0x10000000
 80009bc:	61d3      	str	r3, [r2, #28]
 80009be:	4b0c      	ldr	r3, [pc, #48]	@ (80009f0 <HAL_MspInit+0x5c>)
 80009c0:	69db      	ldr	r3, [r3, #28]
 80009c2:	f003 5380 	and.w	r3, r3, #268435456	@ 0x10000000
 80009c6:	607b      	str	r3, [r7, #4]
 80009c8:	687b      	ldr	r3, [r7, #4]

  /* System interrupt init*/

  /** NOJTAG: JTAG-DP Disabled and SW-DP Enabled
  */
  __HAL_AFIO_REMAP_SWJ_NOJTAG();
 80009ca:	4b0a      	ldr	r3, [pc, #40]	@ (80009f4 <HAL_MspInit+0x60>)
 80009cc:	685b      	ldr	r3, [r3, #4]
 80009ce:	60fb      	str	r3, [r7, #12]
 80009d0:	68fb      	ldr	r3, [r7, #12]
 80009d2:	f023 63e0 	bic.w	r3, r3, #117440512	@ 0x7000000
 80009d6:	60fb      	str	r3, [r7, #12]
 80009d8:	68fb      	ldr	r3, [r7, #12]
 80009da:	f043 7300 	orr.w	r3, r3, #33554432	@ 0x2000000
 80009de:	60fb      	str	r3, [r7, #12]
 80009e0:	4a04      	ldr	r2, [pc, #16]	@ (80009f4 <HAL_MspInit+0x60>)
 80009e2:	68fb      	ldr	r3, [r7, #12]
 80009e4:	6053      	str	r3, [r2, #4]

  /* USER CODE BEGIN MspInit 1 */

  /* USER CODE END MspInit 1 */
}
 80009e6:	bf00      	nop
 80009e8:	3714      	adds	r7, #20
 80009ea:	46bd      	mov	sp, r7
 80009ec:	bc80      	pop	{r7}
 80009ee:	4770      	bx	lr
 80009f0:	40021000 	.word	0x40021000
 80009f4:	40010000 	.word	0x40010000

080009f8 <NMI_Handler>:
/******************************************************************************/
/**
  * @brief This function handles Non maskable interrupt.
  */
void NMI_Handler(void)
{
 80009f8:	b480      	push	{r7}
 80009fa:	af00      	add	r7, sp, #0
  /* USER CODE BEGIN NonMaskableInt_IRQn 0 */

  /* USER CODE END NonMaskableInt_IRQn 0 */
  /* USER CODE BEGIN NonMaskableInt_IRQn 1 */
   while (1)
 80009fc:	bf00      	nop
 80009fe:	e7fd      	b.n	80009fc <NMI_Handler+0x4>

08000a00 <HardFault_Handler>:

/**
  * @brief This function handles Hard fault interrupt.
  */
void HardFault_Handler(void)
{
 8000a00:	b480      	push	{r7}
 8000a02:	af00      	add	r7, sp, #0
  /* USER CODE BEGIN HardFault_IRQn 0 */

  /* USER CODE END HardFault_IRQn 0 */
  while (1)
 8000a04:	bf00      	nop
 8000a06:	e7fd      	b.n	8000a04 <HardFault_Handler+0x4>

08000a08 <MemManage_Handler>:

/**
  * @brief This function handles Memory management fault.
  */
void MemManage_Handler(void)
{
 8000a08:	b480      	push	{r7}
 8000a0a:	af00      	add	r7, sp, #0
  /* USER CODE BEGIN MemoryManagement_IRQn 0 */

  /* USER CODE END MemoryManagement_IRQn 0 */
  while (1)
 8000a0c:	bf00      	nop
 8000a0e:	e7fd      	b.n	8000a0c <MemManage_Handler+0x4>

08000a10 <BusFault_Handler>:

/**
  * @brief This function handles Prefetch fault, memory access fault.
  */
void BusFault_Handler(void)
{
 8000a10:	b480      	push	{r7}
 8000a12:	af00      	add	r7, sp, #0
  /* USER CODE BEGIN BusFault_IRQn 0 */

  /* USER CODE END BusFault_IRQn 0 */
  while (1)
 8000a14:	bf00      	nop
 8000a16:	e7fd      	b.n	8000a14 <BusFault_Handler+0x4>

08000a18 <UsageFault_Handler>:

/**
  * @brief This function handles Undefined instruction or illegal state.
  */
void UsageFault_Handler(void)
{
 8000a18:	b480      	push	{r7}
 8000a1a:	af00      	add	r7, sp, #0
  /* USER CODE BEGIN UsageFault_IRQn 0 */

  /* USER CODE END UsageFault_IRQn 0 */
  while (1)
 8000a1c:	bf00      	nop
 8000a1e:	e7fd      	b.n	8000a1c <UsageFault_Handler+0x4>

08000a20 <SVC_Handler>:

/**
  * @brief This function handles System service call via SWI instruction.
  */
void SVC_Handler(void)
{
 8000a20:	b480      	push	{r7}
 8000a22:	af00      	add	r7, sp, #0

  /* USER CODE END SVCall_IRQn 0 */
  /* USER CODE BEGIN SVCall_IRQn 1 */

  /* USER CODE END SVCall_IRQn 1 */
}
 8000a24:	bf00      	nop
 8000a26:	46bd      	mov	sp, r7
 8000a28:	bc80      	pop	{r7}
 8000a2a:	4770      	bx	lr

08000a2c <DebugMon_Handler>:

/**
  * @brief This function handles Debug monitor.
  */
void DebugMon_Handler(void)
{
 8000a2c:	b480      	push	{r7}
 8000a2e:	af00      	add	r7, sp, #0

  /* USER CODE END DebugMonitor_IRQn 0 */
  /* USER CODE BEGIN DebugMonitor_IRQn 1 */

  /* USER CODE END DebugMonitor_IRQn 1 */
}
 8000a30:	bf00      	nop
 8000a32:	46bd      	mov	sp, r7
 8000a34:	bc80      	pop	{r7}
 8000a36:	4770      	bx	lr

08000a38 <PendSV_Handler>:

/**
  * @brief This function handles Pendable request for system service.
  */
void PendSV_Handler(void)
{
 8000a38:	b480      	push	{r7}
 8000a3a:	af00      	add	r7, sp, #0

  /* USER CODE END PendSV_IRQn 0 */
  /* USER CODE BEGIN PendSV_IRQn 1 */

  /* USER CODE END PendSV_IRQn 1 */
}
 8000a3c:	bf00      	nop
 8000a3e:	46bd      	mov	sp, r7
 8000a40:	bc80      	pop	{r7}
 8000a42:	4770      	bx	lr

08000a44 <SysTick_Handler>:

/**
  * @brief This function handles System tick timer.
  */
void SysTick_Handler(void)
{
 8000a44:	b580      	push	{r7, lr}
 8000a46:	af00      	add	r7, sp, #0
  /* USER CODE BEGIN SysTick_IRQn 0 */

  /* USER CODE END SysTick_IRQn 0 */
  HAL_IncTick();
 8000a48:	f000 f8f6 	bl	8000c38 <HAL_IncTick>
  /* USER CODE BEGIN SysTick_IRQn 1 */

  /* USER CODE END SysTick_IRQn 1 */
}
 8000a4c:	bf00      	nop
 8000a4e:	bd80      	pop	{r7, pc}

08000a50 <USART1_IRQHandler>:

/**
  * @brief This function handles USART1 global interrupt.
  */
void USART1_IRQHandler(void)
{
 8000a50:	b580      	push	{r7, lr}
 8000a52:	af00      	add	r7, sp, #0
  /* USER CODE BEGIN USART1_IRQn 0 */

  /* USER CODE END USART1_IRQn 0 */
  HAL_UART_IRQHandler(&huart1);
 8000a54:	4802      	ldr	r0, [pc, #8]	@ (8000a60 <USART1_IRQHandler+0x10>)
 8000a56:	f001 f92b 	bl	8001cb0 <HAL_UART_IRQHandler>
  /* USER CODE BEGIN USART1_IRQn 1 */

  /* USER CODE END USART1_IRQn 1 */
}
 8000a5a:	bf00      	nop
 8000a5c:	bd80      	pop	{r7, pc}
 8000a5e:	bf00      	nop
 8000a60:	20000548 	.word	0x20000548

08000a64 <SystemInit>:
  * @note   This function should be used only after reset.
  * @param  None
  * @retval None
  */
void SystemInit (void)
{
 8000a64:	b480      	push	{r7}
 8000a66:	af00      	add	r7, sp, #0

  /* Configure the Vector Table location -------------------------------------*/
#if defined(USER_VECT_TAB_ADDRESS)
  SCB->VTOR = VECT_TAB_BASE_ADDRESS | VECT_TAB_OFFSET; /* Vector Table Relocation in Internal SRAM. */
#endif /* USER_VECT_TAB_ADDRESS */
}
 8000a68:	bf00      	nop
 8000a6a:	46bd      	mov	sp, r7
 8000a6c:	bc80      	pop	{r7}
 8000a6e:	4770      	bx	lr

08000a70 <MX_USART1_UART_Init>:
UART_HandleTypeDef huart1;

/* USART1 init function */

void MX_USART1_UART_Init(void)
{
 8000a70:	b580      	push	{r7, lr}
 8000a72:	af00      	add	r7, sp, #0
  /* USER CODE END USART1_Init 0 */

  /* USER CODE BEGIN USART1_Init 1 */

  /* USER CODE END USART1_Init 1 */
  huart1.Instance = USART1;
 8000a74:	4b0e      	ldr	r3, [pc, #56]	@ (8000ab0 <MX_USART1_UART_Init+0x40>)
 8000a76:	4a0f      	ldr	r2, [pc, #60]	@ (8000ab4 <MX_USART1_UART_Init+0x44>)
 8000a78:	601a      	str	r2, [r3, #0]
  huart1.Init.BaudRate = 115200;
 8000a7a:	4b0d      	ldr	r3, [pc, #52]	@ (8000ab0 <MX_USART1_UART_Init+0x40>)
 8000a7c:	f44f 32e1 	mov.w	r2, #115200	@ 0x1c200
 8000a80:	605a      	str	r2, [r3, #4]
  huart1.Init.WordLength = UART_WORDLENGTH_8B;
 8000a82:	4b0b      	ldr	r3, [pc, #44]	@ (8000ab0 <MX_USART1_UART_Init+0x40>)
 8000a84:	2200      	movs	r2, #0
 8000a86:	609a      	str	r2, [r3, #8]
  huart1.Init.StopBits = UART_STOPBITS_1;
 8000a88:	4b09      	ldr	r3, [pc, #36]	@ (8000ab0 <MX_USART1_UART_Init+0x40>)
 8000a8a:	2200      	movs	r2, #0
 8000a8c:	60da      	str	r2, [r3, #12]
  huart1.Init.Parity = UART_PARITY_NONE;
 8000a8e:	4b08      	ldr	r3, [pc, #32]	@ (8000ab0 <MX_USART1_UART_Init+0x40>)
 8000a90:	2200      	movs	r2, #0
 8000a92:	611a      	str	r2, [r3, #16]
  huart1.Init.Mode = UART_MODE_TX_RX;
 8000a94:	4b06      	ldr	r3, [pc, #24]	@ (8000ab0 <MX_USART1_UART_Init+0x40>)
 8000a96:	220c      	movs	r2, #12
 8000a98:	615a      	str	r2, [r3, #20]
  huart1.Init.HwFlowCtl = UART_HWCONTROL_NONE;
 8000a9a:	4b05      	ldr	r3, [pc, #20]	@ (8000ab0 <MX_USART1_UART_Init+0x40>)
 8000a9c:	2200      	movs	r2, #0
 8000a9e:	619a      	str	r2, [r3, #24]
  huart1.Init.OverSampling = UART_OVERSAMPLING_16;
 8000aa0:	4b03      	ldr	r3, [pc, #12]	@ (8000ab0 <MX_USART1_UART_Init+0x40>)
 8000aa2:	2200      	movs	r2, #0
 8000aa4:	61da      	str	r2, [r3, #28]
  HAL_UART_Init(&huart1);
 8000aa6:	4802      	ldr	r0, [pc, #8]	@ (8000ab0 <MX_USART1_UART_Init+0x40>)
 8000aa8:	f001 f88c 	bl	8001bc4 <HAL_UART_Init>
}
 8000aac:	bf00      	nop
 8000aae:	bd80      	pop	{r7, pc}
 8000ab0:	20000548 	.word	0x20000548
 8000ab4:	40013800 	.word	0x40013800

08000ab8 <HAL_UART_MspInit>:

void HAL_UART_MspInit(UART_HandleTypeDef* uartHandle)
{
 8000ab8:	b580      	push	{r7, lr}
 8000aba:	b088      	sub	sp, #32
 8000abc:	af00      	add	r7, sp, #0
 8000abe:	6078      	str	r0, [r7, #4]

  GPIO_InitTypeDef GPIO_InitStruct = {0};
 8000ac0:	f107 0310 	add.w	r3, r7, #16
 8000ac4:	2200      	movs	r2, #0
 8000ac6:	601a      	str	r2, [r3, #0]
 8000ac8:	605a      	str	r2, [r3, #4]
 8000aca:	609a      	str	r2, [r3, #8]
 8000acc:	60da      	str	r2, [r3, #12]
  if(uartHandle->Instance==USART1)
 8000ace:	687b      	ldr	r3, [r7, #4]
 8000ad0:	681b      	ldr	r3, [r3, #0]
 8000ad2:	4a20      	ldr	r2, [pc, #128]	@ (8000b54 <HAL_UART_MspInit+0x9c>)
 8000ad4:	4293      	cmp	r3, r2
 8000ad6:	d139      	bne.n	8000b4c <HAL_UART_MspInit+0x94>
  {
  /* USER CODE BEGIN USART1_MspInit 0 */

  /* USER CODE END USART1_MspInit 0 */
    /* USART1 clock enable */
    __HAL_RCC_USART1_CLK_ENABLE();
 8000ad8:	4b1f      	ldr	r3, [pc, #124]	@ (8000b58 <HAL_UART_MspInit+0xa0>)
 8000ada:	699b      	ldr	r3, [r3, #24]
 8000adc:	4a1e      	ldr	r2, [pc, #120]	@ (8000b58 <HAL_UART_MspInit+0xa0>)
 8000ade:	f443 4380 	orr.w	r3, r3, #16384	@ 0x4000
 8000ae2:	6193      	str	r3, [r2, #24]
 8000ae4:	4b1c      	ldr	r3, [pc, #112]	@ (8000b58 <HAL_UART_MspInit+0xa0>)
 8000ae6:	699b      	ldr	r3, [r3, #24]
 8000ae8:	f403 4380 	and.w	r3, r3, #16384	@ 0x4000
 8000aec:	60fb      	str	r3, [r7, #12]
 8000aee:	68fb      	ldr	r3, [r7, #12]

    __HAL_RCC_GPIOA_CLK_ENABLE();
 8000af0:	4b19      	ldr	r3, [pc, #100]	@ (8000b58 <HAL_UART_MspInit+0xa0>)
 8000af2:	699b      	ldr	r3, [r3, #24]
 8000af4:	4a18      	ldr	r2, [pc, #96]	@ (8000b58 <HAL_UART_MspInit+0xa0>)
 8000af6:	f043 0304 	orr.w	r3, r3, #4
 8000afa:	6193      	str	r3, [r2, #24]
 8000afc:	4b16      	ldr	r3, [pc, #88]	@ (8000b58 <HAL_UART_MspInit+0xa0>)
 8000afe:	699b      	ldr	r3, [r3, #24]
 8000b00:	f003 0304 	and.w	r3, r3, #4
 8000b04:	60bb      	str	r3, [r7, #8]
 8000b06:	68bb      	ldr	r3, [r7, #8]
    /**USART1 GPIO Configuration
    PA9     ------> USART1_TX
    PA10     ------> USART1_RX
    */
    GPIO_InitStruct.Pin = GPIO_PIN_9;
 8000b08:	f44f 7300 	mov.w	r3, #512	@ 0x200
 8000b0c:	613b      	str	r3, [r7, #16]
    GPIO_InitStruct.Mode = GPIO_MODE_AF_PP;
 8000b0e:	2302      	movs	r3, #2
 8000b10:	617b      	str	r3, [r7, #20]
    GPIO_InitStruct.Speed = GPIO_SPEED_FREQ_HIGH;
 8000b12:	2303      	movs	r3, #3
 8000b14:	61fb      	str	r3, [r7, #28]
    HAL_GPIO_Init(GPIOA, &GPIO_InitStruct);
 8000b16:	f107 0310 	add.w	r3, r7, #16
 8000b1a:	4619      	mov	r1, r3
 8000b1c:	480f      	ldr	r0, [pc, #60]	@ (8000b5c <HAL_UART_MspInit+0xa4>)
 8000b1e:	f000 fa8b 	bl	8001038 <HAL_GPIO_Init>

    GPIO_InitStruct.Pin = GPIO_PIN_10;
 8000b22:	f44f 6380 	mov.w	r3, #1024	@ 0x400
 8000b26:	613b      	str	r3, [r7, #16]
    GPIO_InitStruct.Mode = GPIO_MODE_INPUT;
 8000b28:	2300      	movs	r3, #0
 8000b2a:	617b      	str	r3, [r7, #20]
    GPIO_InitStruct.Pull = GPIO_NOPULL;
 8000b2c:	2300      	movs	r3, #0
 8000b2e:	61bb      	str	r3, [r7, #24]
    HAL_GPIO_Init(GPIOA, &GPIO_InitStruct);
 8000b30:	f107 0310 	add.w	r3, r7, #16
 8000b34:	4619      	mov	r1, r3
 8000b36:	4809      	ldr	r0, [pc, #36]	@ (8000b5c <HAL_UART_MspInit+0xa4>)
 8000b38:	f000 fa7e 	bl	8001038 <HAL_GPIO_Init>

    /* USART1 interrupt Init */
    HAL_NVIC_SetPriority(USART1_IRQn, 0, 0);
 8000b3c:	2200      	movs	r2, #0
 8000b3e:	2100      	movs	r1, #0
 8000b40:	2025      	movs	r0, #37	@ 0x25
 8000b42:	f000 f990 	bl	8000e66 <HAL_NVIC_SetPriority>
    HAL_NVIC_EnableIRQ(USART1_IRQn);
 8000b46:	2025      	movs	r0, #37	@ 0x25
 8000b48:	f000 f9a9 	bl	8000e9e <HAL_NVIC_EnableIRQ>
  /* USER CODE BEGIN USART1_MspInit 1 */

  /* USER CODE END USART1_MspInit 1 */
  }
}
 8000b4c:	bf00      	nop
 8000b4e:	3720      	adds	r7, #32
 8000b50:	46bd      	mov	sp, r7
 8000b52:	bd80      	pop	{r7, pc}
 8000b54:	40013800 	.word	0x40013800
 8000b58:	40021000 	.word	0x40021000
 8000b5c:	40010800 	.word	0x40010800

08000b60 <Reset_Handler>:
  .weak Reset_Handler
  .type Reset_Handler, %function
Reset_Handler:

/* Call the clock system initialization function.*/
    bl  SystemInit
 8000b60:	f7ff ff80 	bl	8000a64 <SystemInit>

/* Copy the data segment initializers from flash to SRAM */
  ldr r0, =_sdata
 8000b64:	480b      	ldr	r0, [pc, #44]	@ (8000b94 <LoopFillZerobss+0xe>)
  ldr r1, =_edata
 8000b66:	490c      	ldr	r1, [pc, #48]	@ (8000b98 <LoopFillZerobss+0x12>)
  ldr r2, =_sidata
 8000b68:	4a0c      	ldr	r2, [pc, #48]	@ (8000b9c <LoopFillZerobss+0x16>)
  movs r3, #0
 8000b6a:	2300      	movs	r3, #0
  b LoopCopyDataInit
 8000b6c:	e002      	b.n	8000b74 <LoopCopyDataInit>

08000b6e <CopyDataInit>:

CopyDataInit:
  ldr r4, [r2, r3]
 8000b6e:	58d4      	ldr	r4, [r2, r3]
  str r4, [r0, r3]
 8000b70:	50c4      	str	r4, [r0, r3]
  adds r3, r3, #4
 8000b72:	3304      	adds	r3, #4

08000b74 <LoopCopyDataInit>:

LoopCopyDataInit:
  adds r4, r0, r3
 8000b74:	18c4      	adds	r4, r0, r3
  cmp r4, r1
 8000b76:	428c      	cmp	r4, r1
  bcc CopyDataInit
 8000b78:	d3f9      	bcc.n	8000b6e <CopyDataInit>
  
/* Zero fill the bss segment. */
  ldr r2, =_sbss
 8000b7a:	4a09      	ldr	r2, [pc, #36]	@ (8000ba0 <LoopFillZerobss+0x1a>)
  ldr r4, =_ebss
 8000b7c:	4c09      	ldr	r4, [pc, #36]	@ (8000ba4 <LoopFillZerobss+0x1e>)
  movs r3, #0
 8000b7e:	2300      	movs	r3, #0
  b LoopFillZerobss
 8000b80:	e001      	b.n	8000b86 <LoopFillZerobss>

08000b82 <FillZerobss>:

FillZerobss:
  str  r3, [r2]
 8000b82:	6013      	str	r3, [r2, #0]
  adds r2, r2, #4
 8000b84:	3204      	adds	r2, #4

08000b86 <LoopFillZerobss>:

LoopFillZerobss:
  cmp r2, r4
 8000b86:	42a2      	cmp	r2, r4
  bcc FillZerobss
 8000b88:	d3fb      	bcc.n	8000b82 <FillZerobss>

/* Call static constructors */
    bl __libc_init_array
 8000b8a:	f001 fdab 	bl	80026e4 <__libc_init_array>
/* Call the application's entry point.*/
  bl main
 8000b8e:	f7ff fe6d 	bl	800086c <main>
  bx lr
 8000b92:	4770      	bx	lr
  ldr r0, =_sdata
 8000b94:	20000000 	.word	0x20000000
  ldr r1, =_edata
 8000b98:	20000118 	.word	0x20000118
  ldr r2, =_sidata
 8000b9c:	08002788 	.word	0x08002788
  ldr r2, =_sbss
 8000ba0:	20000118 	.word	0x20000118
  ldr r4, =_ebss
 8000ba4:	20000594 	.word	0x20000594

08000ba8 <ADC1_2_IRQHandler>:
 * @retval : None
*/
    .section .text.Default_Handler,"ax",%progbits
Default_Handler:
Infinite_Loop:
  b Infinite_Loop
 8000ba8:	e7fe      	b.n	8000ba8 <ADC1_2_IRQHandler>
	...

08000bac <HAL_Init>:
  *         need to ensure that the SysTick time base is always set to 1 millisecond
  *         to have correct HAL operation.
  * @retval HAL status
  */
HAL_StatusTypeDef HAL_Init(void)
{
 8000bac:	b580      	push	{r7, lr}
 8000bae:	af00      	add	r7, sp, #0
    defined(STM32F102x6) || defined(STM32F102xB) || \
    defined(STM32F103x6) || defined(STM32F103xB) || defined(STM32F103xE) || defined(STM32F103xG) || \
    defined(STM32F105xC) || defined(STM32F107xC)

  /* Prefetch buffer is not available on value line devices */
  __HAL_FLASH_PREFETCH_BUFFER_ENABLE();
 8000bb0:	4b08      	ldr	r3, [pc, #32]	@ (8000bd4 <HAL_Init+0x28>)
 8000bb2:	681b      	ldr	r3, [r3, #0]
 8000bb4:	4a07      	ldr	r2, [pc, #28]	@ (8000bd4 <HAL_Init+0x28>)
 8000bb6:	f043 0310 	orr.w	r3, r3, #16
 8000bba:	6013      	str	r3, [r2, #0]
#endif
#endif /* PREFETCH_ENABLE */

  /* Set Interrupt Group Priority */
  HAL_NVIC_SetPriorityGrouping(NVIC_PRIORITYGROUP_4);
 8000bbc:	2003      	movs	r0, #3
 8000bbe:	f000 f947 	bl	8000e50 <HAL_NVIC_SetPriorityGrouping>

  /* Use systick as time base source and configure 1ms tick (default clock after Reset is HSI) */
  HAL_InitTick(TICK_INT_PRIORITY);
 8000bc2:	200f      	movs	r0, #15
 8000bc4:	f000 f808 	bl	8000bd8 <HAL_InitTick>

  /* Init the low level hardware */
  HAL_MspInit();
 8000bc8:	f7ff fee4 	bl	8000994 <HAL_MspInit>

  /* Return function status */
  return HAL_OK;
 8000bcc:	2300      	movs	r3, #0
}
 8000bce:	4618      	mov	r0, r3
 8000bd0:	bd80      	pop	{r7, pc}
 8000bd2:	bf00      	nop
 8000bd4:	40022000 	.word	0x40022000

08000bd8 <HAL_InitTick>:
  *       implementation  in user file.
  * @param TickPriority Tick interrupt priority.
  * @retval HAL status
  */
__weak HAL_StatusTypeDef HAL_InitTick(uint32_t TickPriority)
{
 8000bd8:	b580      	push	{r7, lr}
 8000bda:	b082      	sub	sp, #8
 8000bdc:	af00      	add	r7, sp, #0
 8000bde:	6078      	str	r0, [r7, #4]
  /* Configure the SysTick to have interrupt in 1ms time basis*/
  if (HAL_SYSTICK_Config(SystemCoreClock / (1000U / uwTickFreq)) > 0U)
 8000be0:	4b12      	ldr	r3, [pc, #72]	@ (8000c2c <HAL_InitTick+0x54>)
 8000be2:	681a      	ldr	r2, [r3, #0]
 8000be4:	4b12      	ldr	r3, [pc, #72]	@ (8000c30 <HAL_InitTick+0x58>)
 8000be6:	781b      	ldrb	r3, [r3, #0]
 8000be8:	4619      	mov	r1, r3
 8000bea:	f44f 737a 	mov.w	r3, #1000	@ 0x3e8
 8000bee:	fbb3 f3f1 	udiv	r3, r3, r1
 8000bf2:	fbb2 f3f3 	udiv	r3, r2, r3
 8000bf6:	4618      	mov	r0, r3
 8000bf8:	f000 f95f 	bl	8000eba <HAL_SYSTICK_Config>
 8000bfc:	4603      	mov	r3, r0
 8000bfe:	2b00      	cmp	r3, #0
 8000c00:	d001      	beq.n	8000c06 <HAL_InitTick+0x2e>
  {
    return HAL_ERROR;
 8000c02:	2301      	movs	r3, #1
 8000c04:	e00e      	b.n	8000c24 <HAL_InitTick+0x4c>
  }

  /* Configure the SysTick IRQ priority */
  if (TickPriority < (1UL << __NVIC_PRIO_BITS))
 8000c06:	687b      	ldr	r3, [r7, #4]
 8000c08:	2b0f      	cmp	r3, #15
 8000c0a:	d80a      	bhi.n	8000c22 <HAL_InitTick+0x4a>
  {
    HAL_NVIC_SetPriority(SysTick_IRQn, TickPriority, 0U);
 8000c0c:	2200      	movs	r2, #0
 8000c0e:	6879      	ldr	r1, [r7, #4]
 8000c10:	f04f 30ff 	mov.w	r0, #4294967295
 8000c14:	f000 f927 	bl	8000e66 <HAL_NVIC_SetPriority>
    uwTickPrio = TickPriority;
 8000c18:	4a06      	ldr	r2, [pc, #24]	@ (8000c34 <HAL_InitTick+0x5c>)
 8000c1a:	687b      	ldr	r3, [r7, #4]
 8000c1c:	6013      	str	r3, [r2, #0]
  {
    return HAL_ERROR;
  }

  /* Return function status */
  return HAL_OK;
 8000c1e:	2300      	movs	r3, #0
 8000c20:	e000      	b.n	8000c24 <HAL_InitTick+0x4c>
    return HAL_ERROR;
 8000c22:	2301      	movs	r3, #1
}
 8000c24:	4618      	mov	r0, r3
 8000c26:	3708      	adds	r7, #8
 8000c28:	46bd      	mov	sp, r7
 8000c2a:	bd80      	pop	{r7, pc}
 8000c2c:	2000010c 	.word	0x2000010c
 8000c30:	20000114 	.word	0x20000114
 8000c34:	20000110 	.word	0x20000110

08000c38 <HAL_IncTick>:
  * @note This function is declared as __weak to be overwritten in case of other
  *      implementations in user file.
  * @retval None
  */
__weak void HAL_IncTick(void)
{
 8000c38:	b480      	push	{r7}
 8000c3a:	af00      	add	r7, sp, #0
  uwTick += uwTickFreq;
 8000c3c:	4b05      	ldr	r3, [pc, #20]	@ (8000c54 <HAL_IncTick+0x1c>)
 8000c3e:	781b      	ldrb	r3, [r3, #0]
 8000c40:	461a      	mov	r2, r3
 8000c42:	4b05      	ldr	r3, [pc, #20]	@ (8000c58 <HAL_IncTick+0x20>)
 8000c44:	681b      	ldr	r3, [r3, #0]
 8000c46:	4413      	add	r3, r2
 8000c48:	4a03      	ldr	r2, [pc, #12]	@ (8000c58 <HAL_IncTick+0x20>)
 8000c4a:	6013      	str	r3, [r2, #0]
}
 8000c4c:	bf00      	nop
 8000c4e:	46bd      	mov	sp, r7
 8000c50:	bc80      	pop	{r7}
 8000c52:	4770      	bx	lr
 8000c54:	20000114 	.word	0x20000114
 8000c58:	20000590 	.word	0x20000590

08000c5c <HAL_GetTick>:
  * @note  This function is declared as __weak to be overwritten in case of other
  *       implementations in user file.
  * @retval tick value
  */
__weak uint32_t HAL_GetTick(void)
{
 8000c5c:	b480      	push	{r7}
 8000c5e:	af00      	add	r7, sp, #0
  return uwTick;
 8000c60:	4b02      	ldr	r3, [pc, #8]	@ (8000c6c <HAL_GetTick+0x10>)
 8000c62:	681b      	ldr	r3, [r3, #0]
}
 8000c64:	4618      	mov	r0, r3
 8000c66:	46bd      	mov	sp, r7
 8000c68:	bc80      	pop	{r7}
 8000c6a:	4770      	bx	lr
 8000c6c:	20000590 	.word	0x20000590

08000c70 <HAL_Delay>:
  *       implementations in user file.
  * @param Delay specifies the delay time length, in milliseconds.
  * @retval None
  */
__weak void HAL_Delay(uint32_t Delay)
{
 8000c70:	b580      	push	{r7, lr}
 8000c72:	b084      	sub	sp, #16
 8000c74:	af00      	add	r7, sp, #0
 8000c76:	6078      	str	r0, [r7, #4]
  uint32_t tickstart = HAL_GetTick();
 8000c78:	f7ff fff0 	bl	8000c5c <HAL_GetTick>
 8000c7c:	60b8      	str	r0, [r7, #8]
  uint32_t wait = Delay;
 8000c7e:	687b      	ldr	r3, [r7, #4]
 8000c80:	60fb      	str	r3, [r7, #12]

  /* Add a freq to guarantee minimum wait */
  if (wait < HAL_MAX_DELAY)
 8000c82:	68fb      	ldr	r3, [r7, #12]
 8000c84:	f1b3 3fff 	cmp.w	r3, #4294967295
 8000c88:	d005      	beq.n	8000c96 <HAL_Delay+0x26>
  {
    wait += (uint32_t)(uwTickFreq);
 8000c8a:	4b0a      	ldr	r3, [pc, #40]	@ (8000cb4 <HAL_Delay+0x44>)
 8000c8c:	781b      	ldrb	r3, [r3, #0]
 8000c8e:	461a      	mov	r2, r3
 8000c90:	68fb      	ldr	r3, [r7, #12]
 8000c92:	4413      	add	r3, r2
 8000c94:	60fb      	str	r3, [r7, #12]
  }

  while ((HAL_GetTick() - tickstart) < wait)
 8000c96:	bf00      	nop
 8000c98:	f7ff ffe0 	bl	8000c5c <HAL_GetTick>
 8000c9c:	4602      	mov	r2, r0
 8000c9e:	68bb      	ldr	r3, [r7, #8]
 8000ca0:	1ad3      	subs	r3, r2, r3
 8000ca2:	68fa      	ldr	r2, [r7, #12]
 8000ca4:	429a      	cmp	r2, r3
 8000ca6:	d8f7      	bhi.n	8000c98 <HAL_Delay+0x28>
  {
  }
}
 8000ca8:	bf00      	nop
 8000caa:	bf00      	nop
 8000cac:	3710      	adds	r7, #16
 8000cae:	46bd      	mov	sp, r7
 8000cb0:	bd80      	pop	{r7, pc}
 8000cb2:	bf00      	nop
 8000cb4:	20000114 	.word	0x20000114

08000cb8 <__NVIC_SetPriorityGrouping>:
           In case of a conflict between priority grouping and available
           priority bits (__NVIC_PRIO_BITS), the smallest possible priority group is set.
  \param [in]      PriorityGroup  Priority grouping field.
 */
__STATIC_INLINE void __NVIC_SetPriorityGrouping(uint32_t PriorityGroup)
{
 8000cb8:	b480      	push	{r7}
 8000cba:	b085      	sub	sp, #20
 8000cbc:	af00      	add	r7, sp, #0
 8000cbe:	6078      	str	r0, [r7, #4]
  uint32_t reg_value;
  uint32_t PriorityGroupTmp = (PriorityGroup & (uint32_t)0x07UL);             /* only values 0..7 are used          */
 8000cc0:	687b      	ldr	r3, [r7, #4]
 8000cc2:	f003 0307 	and.w	r3, r3, #7
 8000cc6:	60fb      	str	r3, [r7, #12]

  reg_value  =  SCB->AIRCR;                                                   /* read old register configuration    */
 8000cc8:	4b0c      	ldr	r3, [pc, #48]	@ (8000cfc <__NVIC_SetPriorityGrouping+0x44>)
 8000cca:	68db      	ldr	r3, [r3, #12]
 8000ccc:	60bb      	str	r3, [r7, #8]
  reg_value &= ~((uint32_t)(SCB_AIRCR_VECTKEY_Msk | SCB_AIRCR_PRIGROUP_Msk)); /* clear bits to change               */
 8000cce:	68ba      	ldr	r2, [r7, #8]
 8000cd0:	f64f 03ff 	movw	r3, #63743	@ 0xf8ff
 8000cd4:	4013      	ands	r3, r2
 8000cd6:	60bb      	str	r3, [r7, #8]
  reg_value  =  (reg_value                                   |
                ((uint32_t)0x5FAUL << SCB_AIRCR_VECTKEY_Pos) |
                (PriorityGroupTmp << SCB_AIRCR_PRIGROUP_Pos) );               /* Insert write key and priority group */
 8000cd8:	68fb      	ldr	r3, [r7, #12]
 8000cda:	021a      	lsls	r2, r3, #8
                ((uint32_t)0x5FAUL << SCB_AIRCR_VECTKEY_Pos) |
 8000cdc:	68bb      	ldr	r3, [r7, #8]
 8000cde:	4313      	orrs	r3, r2
  reg_value  =  (reg_value                                   |
 8000ce0:	f043 63bf 	orr.w	r3, r3, #100139008	@ 0x5f80000
 8000ce4:	f443 3300 	orr.w	r3, r3, #131072	@ 0x20000
 8000ce8:	60bb      	str	r3, [r7, #8]
  SCB->AIRCR =  reg_value;
 8000cea:	4a04      	ldr	r2, [pc, #16]	@ (8000cfc <__NVIC_SetPriorityGrouping+0x44>)
 8000cec:	68bb      	ldr	r3, [r7, #8]
 8000cee:	60d3      	str	r3, [r2, #12]
}
 8000cf0:	bf00      	nop
 8000cf2:	3714      	adds	r7, #20
 8000cf4:	46bd      	mov	sp, r7
 8000cf6:	bc80      	pop	{r7}
 8000cf8:	4770      	bx	lr
 8000cfa:	bf00      	nop
 8000cfc:	e000ed00 	.word	0xe000ed00

08000d00 <__NVIC_GetPriorityGrouping>:
  \brief   Get Priority Grouping
  \details Reads the priority grouping field from the NVIC Interrupt Controller.
  \return                Priority grouping field (SCB->AIRCR [10:8] PRIGROUP field).
 */
__STATIC_INLINE uint32_t __NVIC_GetPriorityGrouping(void)
{
 8000d00:	b480      	push	{r7}
 8000d02:	af00      	add	r7, sp, #0
  return ((uint32_t)((SCB->AIRCR & SCB_AIRCR_PRIGROUP_Msk) >> SCB_AIRCR_PRIGROUP_Pos));
 8000d04:	4b04      	ldr	r3, [pc, #16]	@ (8000d18 <__NVIC_GetPriorityGrouping+0x18>)
 8000d06:	68db      	ldr	r3, [r3, #12]
 8000d08:	0a1b      	lsrs	r3, r3, #8
 8000d0a:	f003 0307 	and.w	r3, r3, #7
}
 8000d0e:	4618      	mov	r0, r3
 8000d10:	46bd      	mov	sp, r7
 8000d12:	bc80      	pop	{r7}
 8000d14:	4770      	bx	lr
 8000d16:	bf00      	nop
 8000d18:	e000ed00 	.word	0xe000ed00

08000d1c <__NVIC_EnableIRQ>:
  \details Enables a device specific interrupt in the NVIC interrupt controller.
  \param [in]      IRQn  Device specific interrupt number.
  \note    IRQn must not be negative.
 */
__STATIC_INLINE void __NVIC_EnableIRQ(IRQn_Type IRQn)
{
 8000d1c:	b480      	push	{r7}
 8000d1e:	b083      	sub	sp, #12
 8000d20:	af00      	add	r7, sp, #0
 8000d22:	4603      	mov	r3, r0
 8000d24:	71fb      	strb	r3, [r7, #7]
  if ((int32_t)(IRQn) >= 0)
 8000d26:	f997 3007 	ldrsb.w	r3, [r7, #7]
 8000d2a:	2b00      	cmp	r3, #0
 8000d2c:	db0b      	blt.n	8000d46 <__NVIC_EnableIRQ+0x2a>
  {
    NVIC->ISER[(((uint32_t)IRQn) >> 5UL)] = (uint32_t)(1UL << (((uint32_t)IRQn) & 0x1FUL));
 8000d2e:	79fb      	ldrb	r3, [r7, #7]
 8000d30:	f003 021f 	and.w	r2, r3, #31
 8000d34:	4906      	ldr	r1, [pc, #24]	@ (8000d50 <__NVIC_EnableIRQ+0x34>)
 8000d36:	f997 3007 	ldrsb.w	r3, [r7, #7]
 8000d3a:	095b      	lsrs	r3, r3, #5
 8000d3c:	2001      	movs	r0, #1
 8000d3e:	fa00 f202 	lsl.w	r2, r0, r2
 8000d42:	f841 2023 	str.w	r2, [r1, r3, lsl #2]
  }
}
 8000d46:	bf00      	nop
 8000d48:	370c      	adds	r7, #12
 8000d4a:	46bd      	mov	sp, r7
 8000d4c:	bc80      	pop	{r7}
 8000d4e:	4770      	bx	lr
 8000d50:	e000e100 	.word	0xe000e100

08000d54 <__NVIC_SetPriority>:
  \param [in]      IRQn  Interrupt number.
  \param [in]  priority  Priority to set.
  \note    The priority cannot be set for every processor exception.
 */
__STATIC_INLINE void __NVIC_SetPriority(IRQn_Type IRQn, uint32_t priority)
{
 8000d54:	b480      	push	{r7}
 8000d56:	b083      	sub	sp, #12
 8000d58:	af00      	add	r7, sp, #0
 8000d5a:	4603      	mov	r3, r0
 8000d5c:	6039      	str	r1, [r7, #0]
 8000d5e:	71fb      	strb	r3, [r7, #7]
  if ((int32_t)(IRQn) >= 0)
 8000d60:	f997 3007 	ldrsb.w	r3, [r7, #7]
 8000d64:	2b00      	cmp	r3, #0
 8000d66:	db0a      	blt.n	8000d7e <__NVIC_SetPriority+0x2a>
  {
    NVIC->IP[((uint32_t)IRQn)]               = (uint8_t)((priority << (8U - __NVIC_PRIO_BITS)) & (uint32_t)0xFFUL);
 8000d68:	683b      	ldr	r3, [r7, #0]
 8000d6a:	b2da      	uxtb	r2, r3
 8000d6c:	490c      	ldr	r1, [pc, #48]	@ (8000da0 <__NVIC_SetPriority+0x4c>)
 8000d6e:	f997 3007 	ldrsb.w	r3, [r7, #7]
 8000d72:	0112      	lsls	r2, r2, #4
 8000d74:	b2d2      	uxtb	r2, r2
 8000d76:	440b      	add	r3, r1
 8000d78:	f883 2300 	strb.w	r2, [r3, #768]	@ 0x300
  }
  else
  {
    SCB->SHP[(((uint32_t)IRQn) & 0xFUL)-4UL] = (uint8_t)((priority << (8U - __NVIC_PRIO_BITS)) & (uint32_t)0xFFUL);
  }
}
 8000d7c:	e00a      	b.n	8000d94 <__NVIC_SetPriority+0x40>
    SCB->SHP[(((uint32_t)IRQn) & 0xFUL)-4UL] = (uint8_t)((priority << (8U - __NVIC_PRIO_BITS)) & (uint32_t)0xFFUL);
 8000d7e:	683b      	ldr	r3, [r7, #0]
 8000d80:	b2da      	uxtb	r2, r3
 8000d82:	4908      	ldr	r1, [pc, #32]	@ (8000da4 <__NVIC_SetPriority+0x50>)
 8000d84:	79fb      	ldrb	r3, [r7, #7]
 8000d86:	f003 030f 	and.w	r3, r3, #15
 8000d8a:	3b04      	subs	r3, #4
 8000d8c:	0112      	lsls	r2, r2, #4
 8000d8e:	b2d2      	uxtb	r2, r2
 8000d90:	440b      	add	r3, r1
 8000d92:	761a      	strb	r2, [r3, #24]
}
 8000d94:	bf00      	nop
 8000d96:	370c      	adds	r7, #12
 8000d98:	46bd      	mov	sp, r7
 8000d9a:	bc80      	pop	{r7}
 8000d9c:	4770      	bx	lr
 8000d9e:	bf00      	nop
 8000da0:	e000e100 	.word	0xe000e100
 8000da4:	e000ed00 	.word	0xe000ed00

08000da8 <NVIC_EncodePriority>:
  \param [in]   PreemptPriority  Preemptive priority value (starting from 0).
  \param [in]       SubPriority  Subpriority value (starting from 0).
  \return                        Encoded priority. Value can be used in the function \ref NVIC_SetPriority().
 */
__STATIC_INLINE uint32_t NVIC_EncodePriority (uint32_t PriorityGroup, uint32_t PreemptPriority, uint32_t SubPriority)
{
 8000da8:	b480      	push	{r7}
 8000daa:	b089      	sub	sp, #36	@ 0x24
 8000dac:	af00      	add	r7, sp, #0
 8000dae:	60f8      	str	r0, [r7, #12]
 8000db0:	60b9      	str	r1, [r7, #8]
 8000db2:	607a      	str	r2, [r7, #4]
  uint32_t PriorityGroupTmp = (PriorityGroup & (uint32_t)0x07UL);   /* only values 0..7 are used          */
 8000db4:	68fb      	ldr	r3, [r7, #12]
 8000db6:	f003 0307 	and.w	r3, r3, #7
 8000dba:	61fb      	str	r3, [r7, #28]
  uint32_t PreemptPriorityBits;
  uint32_t SubPriorityBits;

  PreemptPriorityBits = ((7UL - PriorityGroupTmp) > (uint32_t)(__NVIC_PRIO_BITS)) ? (uint32_t)(__NVIC_PRIO_BITS) : (uint32_t)(7UL - PriorityGroupTmp);
 8000dbc:	69fb      	ldr	r3, [r7, #28]
 8000dbe:	f1c3 0307 	rsb	r3, r3, #7
 8000dc2:	2b04      	cmp	r3, #4
 8000dc4:	bf28      	it	cs
 8000dc6:	2304      	movcs	r3, #4
 8000dc8:	61bb      	str	r3, [r7, #24]
  SubPriorityBits     = ((PriorityGroupTmp + (uint32_t)(__NVIC_PRIO_BITS)) < (uint32_t)7UL) ? (uint32_t)0UL : (uint32_t)((PriorityGroupTmp - 7UL) + (uint32_t)(__NVIC_PRIO_BITS));
 8000dca:	69fb      	ldr	r3, [r7, #28]
 8000dcc:	3304      	adds	r3, #4
 8000dce:	2b06      	cmp	r3, #6
 8000dd0:	d902      	bls.n	8000dd8 <NVIC_EncodePriority+0x30>
 8000dd2:	69fb      	ldr	r3, [r7, #28]
 8000dd4:	3b03      	subs	r3, #3
 8000dd6:	e000      	b.n	8000dda <NVIC_EncodePriority+0x32>
 8000dd8:	2300      	movs	r3, #0
 8000dda:	617b      	str	r3, [r7, #20]

  return (
           ((PreemptPriority & (uint32_t)((1UL << (PreemptPriorityBits)) - 1UL)) << SubPriorityBits) |
 8000ddc:	f04f 32ff 	mov.w	r2, #4294967295
 8000de0:	69bb      	ldr	r3, [r7, #24]
 8000de2:	fa02 f303 	lsl.w	r3, r2, r3
 8000de6:	43da      	mvns	r2, r3
 8000de8:	68bb      	ldr	r3, [r7, #8]
 8000dea:	401a      	ands	r2, r3
 8000dec:	697b      	ldr	r3, [r7, #20]
 8000dee:	409a      	lsls	r2, r3
           ((SubPriority     & (uint32_t)((1UL << (SubPriorityBits    )) - 1UL)))
 8000df0:	f04f 31ff 	mov.w	r1, #4294967295
 8000df4:	697b      	ldr	r3, [r7, #20]
 8000df6:	fa01 f303 	lsl.w	r3, r1, r3
 8000dfa:	43d9      	mvns	r1, r3
 8000dfc:	687b      	ldr	r3, [r7, #4]
 8000dfe:	400b      	ands	r3, r1
           ((PreemptPriority & (uint32_t)((1UL << (PreemptPriorityBits)) - 1UL)) << SubPriorityBits) |
 8000e00:	4313      	orrs	r3, r2
         );
}
 8000e02:	4618      	mov	r0, r3
 8000e04:	3724      	adds	r7, #36	@ 0x24
 8000e06:	46bd      	mov	sp, r7
 8000e08:	bc80      	pop	{r7}
 8000e0a:	4770      	bx	lr

08000e0c <SysTick_Config>:
  \note    When the variable <b>__Vendor_SysTickConfig</b> is set to 1, then the
           function <b>SysTick_Config</b> is not included. In this case, the file <b><i>device</i>.h</b>
           must contain a vendor-specific implementation of this function.
 */
__STATIC_INLINE uint32_t SysTick_Config(uint32_t ticks)
{
 8000e0c:	b580      	push	{r7, lr}
 8000e0e:	b082      	sub	sp, #8
 8000e10:	af00      	add	r7, sp, #0
 8000e12:	6078      	str	r0, [r7, #4]
  if ((ticks - 1UL) > SysTick_LOAD_RELOAD_Msk)
 8000e14:	687b      	ldr	r3, [r7, #4]
 8000e16:	3b01      	subs	r3, #1
 8000e18:	f1b3 7f80 	cmp.w	r3, #16777216	@ 0x1000000
 8000e1c:	d301      	bcc.n	8000e22 <SysTick_Config+0x16>
  {
    return (1UL);                                                   /* Reload value impossible */
 8000e1e:	2301      	movs	r3, #1
 8000e20:	e00f      	b.n	8000e42 <SysTick_Config+0x36>
  }

  SysTick->LOAD  = (uint32_t)(ticks - 1UL);                         /* set reload register */
 8000e22:	4a0a      	ldr	r2, [pc, #40]	@ (8000e4c <SysTick_Config+0x40>)
 8000e24:	687b      	ldr	r3, [r7, #4]
 8000e26:	3b01      	subs	r3, #1
 8000e28:	6053      	str	r3, [r2, #4]
  NVIC_SetPriority (SysTick_IRQn, (1UL << __NVIC_PRIO_BITS) - 1UL); /* set Priority for Systick Interrupt */
 8000e2a:	210f      	movs	r1, #15
 8000e2c:	f04f 30ff 	mov.w	r0, #4294967295
 8000e30:	f7ff ff90 	bl	8000d54 <__NVIC_SetPriority>
  SysTick->VAL   = 0UL;                                             /* Load the SysTick Counter Value */
 8000e34:	4b05      	ldr	r3, [pc, #20]	@ (8000e4c <SysTick_Config+0x40>)
 8000e36:	2200      	movs	r2, #0
 8000e38:	609a      	str	r2, [r3, #8]
  SysTick->CTRL  = SysTick_CTRL_CLKSOURCE_Msk |
 8000e3a:	4b04      	ldr	r3, [pc, #16]	@ (8000e4c <SysTick_Config+0x40>)
 8000e3c:	2207      	movs	r2, #7
 8000e3e:	601a      	str	r2, [r3, #0]
                   SysTick_CTRL_TICKINT_Msk   |
                   SysTick_CTRL_ENABLE_Msk;                         /* Enable SysTick IRQ and SysTick Timer */
  return (0UL);                                                     /* Function successful */
 8000e40:	2300      	movs	r3, #0
}
 8000e42:	4618      	mov	r0, r3
 8000e44:	3708      	adds	r7, #8
 8000e46:	46bd      	mov	sp, r7
 8000e48:	bd80      	pop	{r7, pc}
 8000e4a:	bf00      	nop
 8000e4c:	e000e010 	.word	0xe000e010

08000e50 <HAL_NVIC_SetPriorityGrouping>:
  * @note   When the NVIC_PriorityGroup_0 is selected, IRQ preemption is no more possible. 
  *         The pending IRQ priority will be managed only by the subpriority. 
  * @retval None
  */
void HAL_NVIC_SetPriorityGrouping(uint32_t PriorityGroup)
{
 8000e50:	b580      	push	{r7, lr}
 8000e52:	b082      	sub	sp, #8
 8000e54:	af00      	add	r7, sp, #0
 8000e56:	6078      	str	r0, [r7, #4]
  /* Check the parameters */
  assert_param(IS_NVIC_PRIORITY_GROUP(PriorityGroup));
  
  /* Set the PRIGROUP[10:8] bits according to the PriorityGroup parameter value */
  NVIC_SetPriorityGrouping(PriorityGroup);
 8000e58:	6878      	ldr	r0, [r7, #4]
 8000e5a:	f7ff ff2d 	bl	8000cb8 <__NVIC_SetPriorityGrouping>
}
 8000e5e:	bf00      	nop
 8000e60:	3708      	adds	r7, #8
 8000e62:	46bd      	mov	sp, r7
 8000e64:	bd80      	pop	{r7, pc}

08000e66 <HAL_NVIC_SetPriority>:
  *         This parameter can be a value between 0 and 15
  *         A lower priority value indicates a higher priority.          
  * @retval None
  */
void HAL_NVIC_SetPriority(IRQn_Type IRQn, uint32_t PreemptPriority, uint32_t SubPriority)
{ 
 8000e66:	b580      	push	{r7, lr}
 8000e68:	b086      	sub	sp, #24
 8000e6a:	af00      	add	r7, sp, #0
 8000e6c:	4603      	mov	r3, r0
 8000e6e:	60b9      	str	r1, [r7, #8]
 8000e70:	607a      	str	r2, [r7, #4]
 8000e72:	73fb      	strb	r3, [r7, #15]
  uint32_t prioritygroup = 0x00U;
 8000e74:	2300      	movs	r3, #0
 8000e76:	617b      	str	r3, [r7, #20]
  
  /* Check the parameters */
  assert_param(IS_NVIC_SUB_PRIORITY(SubPriority));
  assert_param(IS_NVIC_PREEMPTION_PRIORITY(PreemptPriority));
  
  prioritygroup = NVIC_GetPriorityGrouping();
 8000e78:	f7ff ff42 	bl	8000d00 <__NVIC_GetPriorityGrouping>
 8000e7c:	6178      	str	r0, [r7, #20]
  
  NVIC_SetPriority(IRQn, NVIC_EncodePriority(prioritygroup, PreemptPriority, SubPriority));
 8000e7e:	687a      	ldr	r2, [r7, #4]
 8000e80:	68b9      	ldr	r1, [r7, #8]
 8000e82:	6978      	ldr	r0, [r7, #20]
 8000e84:	f7ff ff90 	bl	8000da8 <NVIC_EncodePriority>
 8000e88:	4602      	mov	r2, r0
 8000e8a:	f997 300f 	ldrsb.w	r3, [r7, #15]
 8000e8e:	4611      	mov	r1, r2
 8000e90:	4618      	mov	r0, r3
 8000e92:	f7ff ff5f 	bl	8000d54 <__NVIC_SetPriority>
}
 8000e96:	bf00      	nop
 8000e98:	3718      	adds	r7, #24
 8000e9a:	46bd      	mov	sp, r7
 8000e9c:	bd80      	pop	{r7, pc}

08000e9e <HAL_NVIC_EnableIRQ>:
  *         This parameter can be an enumerator of IRQn_Type enumeration
  *         (For the complete STM32 Devices IRQ Channels list, please refer to the appropriate CMSIS device file (stm32f10xxx.h))
  * @retval None
  */
void HAL_NVIC_EnableIRQ(IRQn_Type IRQn)
{
 8000e9e:	b580      	push	{r7, lr}
 8000ea0:	b082      	sub	sp, #8
 8000ea2:	af00      	add	r7, sp, #0
 8000ea4:	4603      	mov	r3, r0
 8000ea6:	71fb      	strb	r3, [r7, #7]
  /* Check the parameters */
  assert_param(IS_NVIC_DEVICE_IRQ(IRQn));

  /* Enable interrupt */
  NVIC_EnableIRQ(IRQn);
 8000ea8:	f997 3007 	ldrsb.w	r3, [r7, #7]
 8000eac:	4618      	mov	r0, r3
 8000eae:	f7ff ff35 	bl	8000d1c <__NVIC_EnableIRQ>
}
 8000eb2:	bf00      	nop
 8000eb4:	3708      	adds	r7, #8
 8000eb6:	46bd      	mov	sp, r7
 8000eb8:	bd80      	pop	{r7, pc}

08000eba <HAL_SYSTICK_Config>:
  * @param  TicksNumb: Specifies the ticks Number of ticks between two interrupts.
  * @retval status:  - 0  Function succeeded.
  *                  - 1  Function failed.
  */
uint32_t HAL_SYSTICK_Config(uint32_t TicksNumb)
{
 8000eba:	b580      	push	{r7, lr}
 8000ebc:	b082      	sub	sp, #8
 8000ebe:	af00      	add	r7, sp, #0
 8000ec0:	6078      	str	r0, [r7, #4]
   return SysTick_Config(TicksNumb);
 8000ec2:	6878      	ldr	r0, [r7, #4]
 8000ec4:	f7ff ffa2 	bl	8000e0c <SysTick_Config>
 8000ec8:	4603      	mov	r3, r0
}
 8000eca:	4618      	mov	r0, r3
 8000ecc:	3708      	adds	r7, #8
 8000ece:	46bd      	mov	sp, r7
 8000ed0:	bd80      	pop	{r7, pc}

08000ed2 <HAL_DMA_Abort>:
  * @param  hdma: pointer to a DMA_HandleTypeDef structure that contains
  *               the configuration information for the specified DMA Channel.
  * @retval HAL status
  */
HAL_StatusTypeDef HAL_DMA_Abort(DMA_HandleTypeDef *hdma)
{
 8000ed2:	b480      	push	{r7}
 8000ed4:	b085      	sub	sp, #20
 8000ed6:	af00      	add	r7, sp, #0
 8000ed8:	6078      	str	r0, [r7, #4]
  HAL_StatusTypeDef status = HAL_OK;
 8000eda:	2300      	movs	r3, #0
 8000edc:	73fb      	strb	r3, [r7, #15]
  
  if(hdma->State != HAL_DMA_STATE_BUSY)
 8000ede:	687b      	ldr	r3, [r7, #4]
 8000ee0:	f893 3021 	ldrb.w	r3, [r3, #33]	@ 0x21
 8000ee4:	b2db      	uxtb	r3, r3
 8000ee6:	2b02      	cmp	r3, #2
 8000ee8:	d008      	beq.n	8000efc <HAL_DMA_Abort+0x2a>
  {
    /* no transfer ongoing */
    hdma->ErrorCode = HAL_DMA_ERROR_NO_XFER;
 8000eea:	687b      	ldr	r3, [r7, #4]
 8000eec:	2204      	movs	r2, #4
 8000eee:	639a      	str	r2, [r3, #56]	@ 0x38
    
    /* Process Unlocked */
    __HAL_UNLOCK(hdma);
 8000ef0:	687b      	ldr	r3, [r7, #4]
 8000ef2:	2200      	movs	r2, #0
 8000ef4:	f883 2020 	strb.w	r2, [r3, #32]
    
    return HAL_ERROR;
 8000ef8:	2301      	movs	r3, #1
 8000efa:	e020      	b.n	8000f3e <HAL_DMA_Abort+0x6c>
  }
  else

  {
    /* Disable DMA IT */
    __HAL_DMA_DISABLE_IT(hdma, (DMA_IT_TC | DMA_IT_HT | DMA_IT_TE));
 8000efc:	687b      	ldr	r3, [r7, #4]
 8000efe:	681b      	ldr	r3, [r3, #0]
 8000f00:	681a      	ldr	r2, [r3, #0]
 8000f02:	687b      	ldr	r3, [r7, #4]
 8000f04:	681b      	ldr	r3, [r3, #0]
 8000f06:	f022 020e 	bic.w	r2, r2, #14
 8000f0a:	601a      	str	r2, [r3, #0]
      
    /* Disable the channel */
    __HAL_DMA_DISABLE(hdma);
 8000f0c:	687b      	ldr	r3, [r7, #4]
 8000f0e:	681b      	ldr	r3, [r3, #0]
 8000f10:	681a      	ldr	r2, [r3, #0]
 8000f12:	687b      	ldr	r3, [r7, #4]
 8000f14:	681b      	ldr	r3, [r3, #0]
 8000f16:	f022 0201 	bic.w	r2, r2, #1
 8000f1a:	601a      	str	r2, [r3, #0]
      
    /* Clear all flags */
    hdma->DmaBaseAddress->IFCR = (DMA_ISR_GIF1 << hdma->ChannelIndex);
 8000f1c:	687b      	ldr	r3, [r7, #4]
 8000f1e:	6c1a      	ldr	r2, [r3, #64]	@ 0x40
 8000f20:	687b      	ldr	r3, [r7, #4]
 8000f22:	6bdb      	ldr	r3, [r3, #60]	@ 0x3c
 8000f24:	2101      	movs	r1, #1
 8000f26:	fa01 f202 	lsl.w	r2, r1, r2
 8000f2a:	605a      	str	r2, [r3, #4]
  }
  /* Change the DMA state */
  hdma->State = HAL_DMA_STATE_READY;
 8000f2c:	687b      	ldr	r3, [r7, #4]
 8000f2e:	2201      	movs	r2, #1
 8000f30:	f883 2021 	strb.w	r2, [r3, #33]	@ 0x21

  /* Process Unlocked */
  __HAL_UNLOCK(hdma);      
 8000f34:	687b      	ldr	r3, [r7, #4]
 8000f36:	2200      	movs	r2, #0
 8000f38:	f883 2020 	strb.w	r2, [r3, #32]
  
  return status; 
 8000f3c:	7bfb      	ldrb	r3, [r7, #15]
}
 8000f3e:	4618      	mov	r0, r3
 8000f40:	3714      	adds	r7, #20
 8000f42:	46bd      	mov	sp, r7
 8000f44:	bc80      	pop	{r7}
 8000f46:	4770      	bx	lr

08000f48 <HAL_DMA_Abort_IT>:
  * @param  hdma  : pointer to a DMA_HandleTypeDef structure that contains
  *                 the configuration information for the specified DMA Channel.
  * @retval HAL status
  */
HAL_StatusTypeDef HAL_DMA_Abort_IT(DMA_HandleTypeDef *hdma)
{  
 8000f48:	b580      	push	{r7, lr}
 8000f4a:	b084      	sub	sp, #16
 8000f4c:	af00      	add	r7, sp, #0
 8000f4e:	6078      	str	r0, [r7, #4]
  HAL_StatusTypeDef status = HAL_OK;
 8000f50:	2300      	movs	r3, #0
 8000f52:	73fb      	strb	r3, [r7, #15]
  
  if(HAL_DMA_STATE_BUSY != hdma->State)
 8000f54:	687b      	ldr	r3, [r7, #4]
 8000f56:	f893 3021 	ldrb.w	r3, [r3, #33]	@ 0x21
 8000f5a:	b2db      	uxtb	r3, r3
 8000f5c:	2b02      	cmp	r3, #2
 8000f5e:	d005      	beq.n	8000f6c <HAL_DMA_Abort_IT+0x24>
  {
    /* no transfer ongoing */
    hdma->ErrorCode = HAL_DMA_ERROR_NO_XFER;
 8000f60:	687b      	ldr	r3, [r7, #4]
 8000f62:	2204      	movs	r2, #4
 8000f64:	639a      	str	r2, [r3, #56]	@ 0x38
        
    status = HAL_ERROR;
 8000f66:	2301      	movs	r3, #1
 8000f68:	73fb      	strb	r3, [r7, #15]
 8000f6a:	e051      	b.n	8001010 <HAL_DMA_Abort_IT+0xc8>
  }
  else
  { 
    /* Disable DMA IT */
    __HAL_DMA_DISABLE_IT(hdma, (DMA_IT_TC | DMA_IT_HT | DMA_IT_TE));
 8000f6c:	687b      	ldr	r3, [r7, #4]
 8000f6e:	681b      	ldr	r3, [r3, #0]
 8000f70:	681a      	ldr	r2, [r3, #0]
 8000f72:	687b      	ldr	r3, [r7, #4]
 8000f74:	681b      	ldr	r3, [r3, #0]
 8000f76:	f022 020e 	bic.w	r2, r2, #14
 8000f7a:	601a      	str	r2, [r3, #0]

    /* Disable the channel */
    __HAL_DMA_DISABLE(hdma);
 8000f7c:	687b      	ldr	r3, [r7, #4]
 8000f7e:	681b      	ldr	r3, [r3, #0]
 8000f80:	681a      	ldr	r2, [r3, #0]
 8000f82:	687b      	ldr	r3, [r7, #4]
 8000f84:	681b      	ldr	r3, [r3, #0]
 8000f86:	f022 0201 	bic.w	r2, r2, #1
 8000f8a:	601a      	str	r2, [r3, #0]

    /* Clear all flags */
    __HAL_DMA_CLEAR_FLAG(hdma, __HAL_DMA_GET_GI_FLAG_INDEX(hdma));
 8000f8c:	687b      	ldr	r3, [r7, #4]
 8000f8e:	681b      	ldr	r3, [r3, #0]
 8000f90:	4a22      	ldr	r2, [pc, #136]	@ (800101c <HAL_DMA_Abort_IT+0xd4>)
 8000f92:	4293      	cmp	r3, r2
 8000f94:	d029      	beq.n	8000fea <HAL_DMA_Abort_IT+0xa2>
 8000f96:	687b      	ldr	r3, [r7, #4]
 8000f98:	681b      	ldr	r3, [r3, #0]
 8000f9a:	4a21      	ldr	r2, [pc, #132]	@ (8001020 <HAL_DMA_Abort_IT+0xd8>)
 8000f9c:	4293      	cmp	r3, r2
 8000f9e:	d022      	beq.n	8000fe6 <HAL_DMA_Abort_IT+0x9e>
 8000fa0:	687b      	ldr	r3, [r7, #4]
 8000fa2:	681b      	ldr	r3, [r3, #0]
 8000fa4:	4a1f      	ldr	r2, [pc, #124]	@ (8001024 <HAL_DMA_Abort_IT+0xdc>)
 8000fa6:	4293      	cmp	r3, r2
 8000fa8:	d01a      	beq.n	8000fe0 <HAL_DMA_Abort_IT+0x98>
 8000faa:	687b      	ldr	r3, [r7, #4]
 8000fac:	681b      	ldr	r3, [r3, #0]
 8000fae:	4a1e      	ldr	r2, [pc, #120]	@ (8001028 <HAL_DMA_Abort_IT+0xe0>)
 8000fb0:	4293      	cmp	r3, r2
 8000fb2:	d012      	beq.n	8000fda <HAL_DMA_Abort_IT+0x92>
 8000fb4:	687b      	ldr	r3, [r7, #4]
 8000fb6:	681b      	ldr	r3, [r3, #0]
 8000fb8:	4a1c      	ldr	r2, [pc, #112]	@ (800102c <HAL_DMA_Abort_IT+0xe4>)
 8000fba:	4293      	cmp	r3, r2
 8000fbc:	d00a      	beq.n	8000fd4 <HAL_DMA_Abort_IT+0x8c>
 8000fbe:	687b      	ldr	r3, [r7, #4]
 8000fc0:	681b      	ldr	r3, [r3, #0]
 8000fc2:	4a1b      	ldr	r2, [pc, #108]	@ (8001030 <HAL_DMA_Abort_IT+0xe8>)
 8000fc4:	4293      	cmp	r3, r2
 8000fc6:	d102      	bne.n	8000fce <HAL_DMA_Abort_IT+0x86>
 8000fc8:	f44f 1380 	mov.w	r3, #1048576	@ 0x100000
 8000fcc:	e00e      	b.n	8000fec <HAL_DMA_Abort_IT+0xa4>
 8000fce:	f04f 7380 	mov.w	r3, #16777216	@ 0x1000000
 8000fd2:	e00b      	b.n	8000fec <HAL_DMA_Abort_IT+0xa4>
 8000fd4:	f44f 3380 	mov.w	r3, #65536	@ 0x10000
 8000fd8:	e008      	b.n	8000fec <HAL_DMA_Abort_IT+0xa4>
 8000fda:	f44f 5380 	mov.w	r3, #4096	@ 0x1000
 8000fde:	e005      	b.n	8000fec <HAL_DMA_Abort_IT+0xa4>
 8000fe0:	f44f 7380 	mov.w	r3, #256	@ 0x100
 8000fe4:	e002      	b.n	8000fec <HAL_DMA_Abort_IT+0xa4>
 8000fe6:	2310      	movs	r3, #16
 8000fe8:	e000      	b.n	8000fec <HAL_DMA_Abort_IT+0xa4>
 8000fea:	2301      	movs	r3, #1
 8000fec:	4a11      	ldr	r2, [pc, #68]	@ (8001034 <HAL_DMA_Abort_IT+0xec>)
 8000fee:	6053      	str	r3, [r2, #4]

    /* Change the DMA state */
    hdma->State = HAL_DMA_STATE_READY;
 8000ff0:	687b      	ldr	r3, [r7, #4]
 8000ff2:	2201      	movs	r2, #1
 8000ff4:	f883 2021 	strb.w	r2, [r3, #33]	@ 0x21

    /* Process Unlocked */
    __HAL_UNLOCK(hdma);
 8000ff8:	687b      	ldr	r3, [r7, #4]
 8000ffa:	2200      	movs	r2, #0
 8000ffc:	f883 2020 	strb.w	r2, [r3, #32]

    /* Call User Abort callback */
    if(hdma->XferAbortCallback != NULL)
 8001000:	687b      	ldr	r3, [r7, #4]
 8001002:	6b5b      	ldr	r3, [r3, #52]	@ 0x34
 8001004:	2b00      	cmp	r3, #0
 8001006:	d003      	beq.n	8001010 <HAL_DMA_Abort_IT+0xc8>
    {
      hdma->XferAbortCallback(hdma);
 8001008:	687b      	ldr	r3, [r7, #4]
 800100a:	6b5b      	ldr	r3, [r3, #52]	@ 0x34
 800100c:	6878      	ldr	r0, [r7, #4]
 800100e:	4798      	blx	r3
    } 
  }
  return status;
 8001010:	7bfb      	ldrb	r3, [r7, #15]
}
 8001012:	4618      	mov	r0, r3
 8001014:	3710      	adds	r7, #16
 8001016:	46bd      	mov	sp, r7
 8001018:	bd80      	pop	{r7, pc}
 800101a:	bf00      	nop
 800101c:	40020008 	.word	0x40020008
 8001020:	4002001c 	.word	0x4002001c
 8001024:	40020030 	.word	0x40020030
 8001028:	40020044 	.word	0x40020044
 800102c:	40020058 	.word	0x40020058
 8001030:	4002006c 	.word	0x4002006c
 8001034:	40020000 	.word	0x40020000

08001038 <HAL_GPIO_Init>:
  * @param  GPIO_Init: pointer to a GPIO_InitTypeDef structure that contains
  *         the configuration information for the specified GPIO peripheral.
  * @retval None
  */
void HAL_GPIO_Init(GPIO_TypeDef  *GPIOx, GPIO_InitTypeDef *GPIO_Init)
{
 8001038:	b480      	push	{r7}
 800103a:	b08b      	sub	sp, #44	@ 0x2c
 800103c:	af00      	add	r7, sp, #0
 800103e:	6078      	str	r0, [r7, #4]
 8001040:	6039      	str	r1, [r7, #0]
  uint32_t position = 0x00u;
 8001042:	2300      	movs	r3, #0
 8001044:	627b      	str	r3, [r7, #36]	@ 0x24
  uint32_t ioposition;
  uint32_t iocurrent;
  uint32_t temp;
  uint32_t config = 0x00u;
 8001046:	2300      	movs	r3, #0
 8001048:	623b      	str	r3, [r7, #32]
  assert_param(IS_GPIO_ALL_INSTANCE(GPIOx));
  assert_param(IS_GPIO_PIN(GPIO_Init->Pin));
  assert_param(IS_GPIO_MODE(GPIO_Init->Mode));

  /* Configure the port pins */
  while (((GPIO_Init->Pin) >> position) != 0x00u)
 800104a:	e169      	b.n	8001320 <HAL_GPIO_Init+0x2e8>
  {
    /* Get the IO position */
    ioposition = (0x01uL << position);
 800104c:	2201      	movs	r2, #1
 800104e:	6a7b      	ldr	r3, [r7, #36]	@ 0x24
 8001050:	fa02 f303 	lsl.w	r3, r2, r3
 8001054:	61fb      	str	r3, [r7, #28]

    /* Get the current IO position */
    iocurrent = (uint32_t)(GPIO_Init->Pin) & ioposition;
 8001056:	683b      	ldr	r3, [r7, #0]
 8001058:	681b      	ldr	r3, [r3, #0]
 800105a:	69fa      	ldr	r2, [r7, #28]
 800105c:	4013      	ands	r3, r2
 800105e:	61bb      	str	r3, [r7, #24]

    if (iocurrent == ioposition)
 8001060:	69ba      	ldr	r2, [r7, #24]
 8001062:	69fb      	ldr	r3, [r7, #28]
 8001064:	429a      	cmp	r2, r3
 8001066:	f040 8158 	bne.w	800131a <HAL_GPIO_Init+0x2e2>
    {
      /* Check the Alternate function parameters */
      assert_param(IS_GPIO_AF_INSTANCE(GPIOx));

      /* Based on the required mode, filling config variable with MODEy[1:0] and CNFy[3:2] corresponding bits */
      switch (GPIO_Init->Mode)
 800106a:	683b      	ldr	r3, [r7, #0]
 800106c:	685b      	ldr	r3, [r3, #4]
 800106e:	4a9a      	ldr	r2, [pc, #616]	@ (80012d8 <HAL_GPIO_Init+0x2a0>)
 8001070:	4293      	cmp	r3, r2
 8001072:	d05e      	beq.n	8001132 <HAL_GPIO_Init+0xfa>
 8001074:	4a98      	ldr	r2, [pc, #608]	@ (80012d8 <HAL_GPIO_Init+0x2a0>)
 8001076:	4293      	cmp	r3, r2
 8001078:	d875      	bhi.n	8001166 <HAL_GPIO_Init+0x12e>
 800107a:	4a98      	ldr	r2, [pc, #608]	@ (80012dc <HAL_GPIO_Init+0x2a4>)
 800107c:	4293      	cmp	r3, r2
 800107e:	d058      	beq.n	8001132 <HAL_GPIO_Init+0xfa>
 8001080:	4a96      	ldr	r2, [pc, #600]	@ (80012dc <HAL_GPIO_Init+0x2a4>)
 8001082:	4293      	cmp	r3, r2
 8001084:	d86f      	bhi.n	8001166 <HAL_GPIO_Init+0x12e>
 8001086:	4a96      	ldr	r2, [pc, #600]	@ (80012e0 <HAL_GPIO_Init+0x2a8>)
 8001088:	4293      	cmp	r3, r2
 800108a:	d052      	beq.n	8001132 <HAL_GPIO_Init+0xfa>
 800108c:	4a94      	ldr	r2, [pc, #592]	@ (80012e0 <HAL_GPIO_Init+0x2a8>)
 800108e:	4293      	cmp	r3, r2
 8001090:	d869      	bhi.n	8001166 <HAL_GPIO_Init+0x12e>
 8001092:	4a94      	ldr	r2, [pc, #592]	@ (80012e4 <HAL_GPIO_Init+0x2ac>)
 8001094:	4293      	cmp	r3, r2
 8001096:	d04c      	beq.n	8001132 <HAL_GPIO_Init+0xfa>
 8001098:	4a92      	ldr	r2, [pc, #584]	@ (80012e4 <HAL_GPIO_Init+0x2ac>)
 800109a:	4293      	cmp	r3, r2
 800109c:	d863      	bhi.n	8001166 <HAL_GPIO_Init+0x12e>
 800109e:	4a92      	ldr	r2, [pc, #584]	@ (80012e8 <HAL_GPIO_Init+0x2b0>)
 80010a0:	4293      	cmp	r3, r2
 80010a2:	d046      	beq.n	8001132 <HAL_GPIO_Init+0xfa>
 80010a4:	4a90      	ldr	r2, [pc, #576]	@ (80012e8 <HAL_GPIO_Init+0x2b0>)
 80010a6:	4293      	cmp	r3, r2
 80010a8:	d85d      	bhi.n	8001166 <HAL_GPIO_Init+0x12e>
 80010aa:	2b12      	cmp	r3, #18
 80010ac:	d82a      	bhi.n	8001104 <HAL_GPIO_Init+0xcc>
 80010ae:	2b12      	cmp	r3, #18
 80010b0:	d859      	bhi.n	8001166 <HAL_GPIO_Init+0x12e>
 80010b2:	a201      	add	r2, pc, #4	@ (adr r2, 80010b8 <HAL_GPIO_Init+0x80>)
 80010b4:	f852 f023 	ldr.w	pc, [r2, r3, lsl #2]
 80010b8:	08001133 	.word	0x08001133
 80010bc:	0800110d 	.word	0x0800110d
 80010c0:	0800111f 	.word	0x0800111f
 80010c4:	08001161 	.word	0x08001161
 80010c8:	08001167 	.word	0x08001167
 80010cc:	08001167 	.word	0x08001167
 80010d0:	08001167 	.word	0x08001167
 80010d4:	08001167 	.word	0x08001167
 80010d8:	08001167 	.word	0x08001167
 80010dc:	08001167 	.word	0x08001167
 80010e0:	08001167 	.word	0x08001167
 80010e4:	08001167 	.word	0x08001167
 80010e8:	08001167 	.word	0x08001167
 80010ec:	08001167 	.word	0x08001167
 80010f0:	08001167 	.word	0x08001167
 80010f4:	08001167 	.word	0x08001167
 80010f8:	08001167 	.word	0x08001167
 80010fc:	08001115 	.word	0x08001115
 8001100:	08001129 	.word	0x08001129
 8001104:	4a79      	ldr	r2, [pc, #484]	@ (80012ec <HAL_GPIO_Init+0x2b4>)
 8001106:	4293      	cmp	r3, r2
 8001108:	d013      	beq.n	8001132 <HAL_GPIO_Init+0xfa>
          config = GPIO_CR_MODE_INPUT + GPIO_CR_CNF_ANALOG;
          break;

        /* Parameters are checked with assert_param */
        default:
          break;
 800110a:	e02c      	b.n	8001166 <HAL_GPIO_Init+0x12e>
          config = GPIO_Init->Speed + GPIO_CR_CNF_GP_OUTPUT_PP;
 800110c:	683b      	ldr	r3, [r7, #0]
 800110e:	68db      	ldr	r3, [r3, #12]
 8001110:	623b      	str	r3, [r7, #32]
          break;
 8001112:	e029      	b.n	8001168 <HAL_GPIO_Init+0x130>
          config = GPIO_Init->Speed + GPIO_CR_CNF_GP_OUTPUT_OD;
 8001114:	683b      	ldr	r3, [r7, #0]
 8001116:	68db      	ldr	r3, [r3, #12]
 8001118:	3304      	adds	r3, #4
 800111a:	623b      	str	r3, [r7, #32]
          break;
 800111c:	e024      	b.n	8001168 <HAL_GPIO_Init+0x130>
          config = GPIO_Init->Speed + GPIO_CR_CNF_AF_OUTPUT_PP;
 800111e:	683b      	ldr	r3, [r7, #0]
 8001120:	68db      	ldr	r3, [r3, #12]
 8001122:	3308      	adds	r3, #8
 8001124:	623b      	str	r3, [r7, #32]
          break;
 8001126:	e01f      	b.n	8001168 <HAL_GPIO_Init+0x130>
          config = GPIO_Init->Speed + GPIO_CR_CNF_AF_OUTPUT_OD;
 8001128:	683b      	ldr	r3, [r7, #0]
 800112a:	68db      	ldr	r3, [r3, #12]
 800112c:	330c      	adds	r3, #12
 800112e:	623b      	str	r3, [r7, #32]
          break;
 8001130:	e01a      	b.n	8001168 <HAL_GPIO_Init+0x130>
          if (GPIO_Init->Pull == GPIO_NOPULL)
 8001132:	683b      	ldr	r3, [r7, #0]
 8001134:	689b      	ldr	r3, [r3, #8]
 8001136:	2b00      	cmp	r3, #0
 8001138:	d102      	bne.n	8001140 <HAL_GPIO_Init+0x108>
            config = GPIO_CR_MODE_INPUT + GPIO_CR_CNF_INPUT_FLOATING;
 800113a:	2304      	movs	r3, #4
 800113c:	623b      	str	r3, [r7, #32]
          break;
 800113e:	e013      	b.n	8001168 <HAL_GPIO_Init+0x130>
          else if (GPIO_Init->Pull == GPIO_PULLUP)
 8001140:	683b      	ldr	r3, [r7, #0]
 8001142:	689b      	ldr	r3, [r3, #8]
 8001144:	2b01      	cmp	r3, #1
 8001146:	d105      	bne.n	8001154 <HAL_GPIO_Init+0x11c>
            config = GPIO_CR_MODE_INPUT + GPIO_CR_CNF_INPUT_PU_PD;
 8001148:	2308      	movs	r3, #8
 800114a:	623b      	str	r3, [r7, #32]
            GPIOx->BSRR = ioposition;
 800114c:	687b      	ldr	r3, [r7, #4]
 800114e:	69fa      	ldr	r2, [r7, #28]
 8001150:	611a      	str	r2, [r3, #16]
          break;
 8001152:	e009      	b.n	8001168 <HAL_GPIO_Init+0x130>
            config = GPIO_CR_MODE_INPUT + GPIO_CR_CNF_INPUT_PU_PD;
 8001154:	2308      	movs	r3, #8
 8001156:	623b      	str	r3, [r7, #32]
            GPIOx->BRR = ioposition;
 8001158:	687b      	ldr	r3, [r7, #4]
 800115a:	69fa      	ldr	r2, [r7, #28]
 800115c:	615a      	str	r2, [r3, #20]
          break;
 800115e:	e003      	b.n	8001168 <HAL_GPIO_Init+0x130>
          config = GPIO_CR_MODE_INPUT + GPIO_CR_CNF_ANALOG;
 8001160:	2300      	movs	r3, #0
 8001162:	623b      	str	r3, [r7, #32]
          break;
 8001164:	e000      	b.n	8001168 <HAL_GPIO_Init+0x130>
          break;
 8001166:	bf00      	nop
      }

      /* Check if the current bit belongs to first half or last half of the pin count number
       in order to address CRH or CRL register*/
      configregister = (iocurrent < GPIO_PIN_8) ? &GPIOx->CRL     : &GPIOx->CRH;
 8001168:	69bb      	ldr	r3, [r7, #24]
 800116a:	2bff      	cmp	r3, #255	@ 0xff
 800116c:	d801      	bhi.n	8001172 <HAL_GPIO_Init+0x13a>
 800116e:	687b      	ldr	r3, [r7, #4]
 8001170:	e001      	b.n	8001176 <HAL_GPIO_Init+0x13e>
 8001172:	687b      	ldr	r3, [r7, #4]
 8001174:	3304      	adds	r3, #4
 8001176:	617b      	str	r3, [r7, #20]
      registeroffset = (iocurrent < GPIO_PIN_8) ? (position << 2u) : ((position - 8u) << 2u);
 8001178:	69bb      	ldr	r3, [r7, #24]
 800117a:	2bff      	cmp	r3, #255	@ 0xff
 800117c:	d802      	bhi.n	8001184 <HAL_GPIO_Init+0x14c>
 800117e:	6a7b      	ldr	r3, [r7, #36]	@ 0x24
 8001180:	009b      	lsls	r3, r3, #2
 8001182:	e002      	b.n	800118a <HAL_GPIO_Init+0x152>
 8001184:	6a7b      	ldr	r3, [r7, #36]	@ 0x24
 8001186:	3b08      	subs	r3, #8
 8001188:	009b      	lsls	r3, r3, #2
 800118a:	613b      	str	r3, [r7, #16]

      /* Apply the new configuration of the pin to the register */
      MODIFY_REG((*configregister), ((GPIO_CRL_MODE0 | GPIO_CRL_CNF0) << registeroffset), (config << registeroffset));
 800118c:	697b      	ldr	r3, [r7, #20]
 800118e:	681a      	ldr	r2, [r3, #0]
 8001190:	210f      	movs	r1, #15
 8001192:	693b      	ldr	r3, [r7, #16]
 8001194:	fa01 f303 	lsl.w	r3, r1, r3
 8001198:	43db      	mvns	r3, r3
 800119a:	401a      	ands	r2, r3
 800119c:	6a39      	ldr	r1, [r7, #32]
 800119e:	693b      	ldr	r3, [r7, #16]
 80011a0:	fa01 f303 	lsl.w	r3, r1, r3
 80011a4:	431a      	orrs	r2, r3
 80011a6:	697b      	ldr	r3, [r7, #20]
 80011a8:	601a      	str	r2, [r3, #0]

      /*--------------------- EXTI Mode Configuration ------------------------*/
      /* Configure the External Interrupt or event for the current IO */
      if ((GPIO_Init->Mode & EXTI_MODE) == EXTI_MODE)
 80011aa:	683b      	ldr	r3, [r7, #0]
 80011ac:	685b      	ldr	r3, [r3, #4]
 80011ae:	f003 5380 	and.w	r3, r3, #268435456	@ 0x10000000
 80011b2:	2b00      	cmp	r3, #0
 80011b4:	f000 80b1 	beq.w	800131a <HAL_GPIO_Init+0x2e2>
      {
        /* Enable AFIO Clock */
        __HAL_RCC_AFIO_CLK_ENABLE();
 80011b8:	4b4d      	ldr	r3, [pc, #308]	@ (80012f0 <HAL_GPIO_Init+0x2b8>)
 80011ba:	699b      	ldr	r3, [r3, #24]
 80011bc:	4a4c      	ldr	r2, [pc, #304]	@ (80012f0 <HAL_GPIO_Init+0x2b8>)
 80011be:	f043 0301 	orr.w	r3, r3, #1
 80011c2:	6193      	str	r3, [r2, #24]
 80011c4:	4b4a      	ldr	r3, [pc, #296]	@ (80012f0 <HAL_GPIO_Init+0x2b8>)
 80011c6:	699b      	ldr	r3, [r3, #24]
 80011c8:	f003 0301 	and.w	r3, r3, #1
 80011cc:	60bb      	str	r3, [r7, #8]
 80011ce:	68bb      	ldr	r3, [r7, #8]
        temp = AFIO->EXTICR[position >> 2u];
 80011d0:	4a48      	ldr	r2, [pc, #288]	@ (80012f4 <HAL_GPIO_Init+0x2bc>)
 80011d2:	6a7b      	ldr	r3, [r7, #36]	@ 0x24
 80011d4:	089b      	lsrs	r3, r3, #2
 80011d6:	3302      	adds	r3, #2
 80011d8:	f852 3023 	ldr.w	r3, [r2, r3, lsl #2]
 80011dc:	60fb      	str	r3, [r7, #12]
        CLEAR_BIT(temp, (0x0Fu) << (4u * (position & 0x03u)));
 80011de:	6a7b      	ldr	r3, [r7, #36]	@ 0x24
 80011e0:	f003 0303 	and.w	r3, r3, #3
 80011e4:	009b      	lsls	r3, r3, #2
 80011e6:	220f      	movs	r2, #15
 80011e8:	fa02 f303 	lsl.w	r3, r2, r3
 80011ec:	43db      	mvns	r3, r3
 80011ee:	68fa      	ldr	r2, [r7, #12]
 80011f0:	4013      	ands	r3, r2
 80011f2:	60fb      	str	r3, [r7, #12]
        SET_BIT(temp, (GPIO_GET_INDEX(GPIOx)) << (4u * (position & 0x03u)));
 80011f4:	687b      	ldr	r3, [r7, #4]
 80011f6:	4a40      	ldr	r2, [pc, #256]	@ (80012f8 <HAL_GPIO_Init+0x2c0>)
 80011f8:	4293      	cmp	r3, r2
 80011fa:	d013      	beq.n	8001224 <HAL_GPIO_Init+0x1ec>
 80011fc:	687b      	ldr	r3, [r7, #4]
 80011fe:	4a3f      	ldr	r2, [pc, #252]	@ (80012fc <HAL_GPIO_Init+0x2c4>)
 8001200:	4293      	cmp	r3, r2
 8001202:	d00d      	beq.n	8001220 <HAL_GPIO_Init+0x1e8>
 8001204:	687b      	ldr	r3, [r7, #4]
 8001206:	4a3e      	ldr	r2, [pc, #248]	@ (8001300 <HAL_GPIO_Init+0x2c8>)
 8001208:	4293      	cmp	r3, r2
 800120a:	d007      	beq.n	800121c <HAL_GPIO_Init+0x1e4>
 800120c:	687b      	ldr	r3, [r7, #4]
 800120e:	4a3d      	ldr	r2, [pc, #244]	@ (8001304 <HAL_GPIO_Init+0x2cc>)
 8001210:	4293      	cmp	r3, r2
 8001212:	d101      	bne.n	8001218 <HAL_GPIO_Init+0x1e0>
 8001214:	2303      	movs	r3, #3
 8001216:	e006      	b.n	8001226 <HAL_GPIO_Init+0x1ee>
 8001218:	2304      	movs	r3, #4
 800121a:	e004      	b.n	8001226 <HAL_GPIO_Init+0x1ee>
 800121c:	2302      	movs	r3, #2
 800121e:	e002      	b.n	8001226 <HAL_GPIO_Init+0x1ee>
 8001220:	2301      	movs	r3, #1
 8001222:	e000      	b.n	8001226 <HAL_GPIO_Init+0x1ee>
 8001224:	2300      	movs	r3, #0
 8001226:	6a7a      	ldr	r2, [r7, #36]	@ 0x24
 8001228:	f002 0203 	and.w	r2, r2, #3
 800122c:	0092      	lsls	r2, r2, #2
 800122e:	4093      	lsls	r3, r2
 8001230:	68fa      	ldr	r2, [r7, #12]
 8001232:	4313      	orrs	r3, r2
 8001234:	60fb      	str	r3, [r7, #12]
        AFIO->EXTICR[position >> 2u] = temp;
 8001236:	492f      	ldr	r1, [pc, #188]	@ (80012f4 <HAL_GPIO_Init+0x2bc>)
 8001238:	6a7b      	ldr	r3, [r7, #36]	@ 0x24
 800123a:	089b      	lsrs	r3, r3, #2
 800123c:	3302      	adds	r3, #2
 800123e:	68fa      	ldr	r2, [r7, #12]
 8001240:	f841 2023 	str.w	r2, [r1, r3, lsl #2]


        /* Enable or disable the rising trigger */
        if ((GPIO_Init->Mode & RISING_EDGE) == RISING_EDGE)
 8001244:	683b      	ldr	r3, [r7, #0]
 8001246:	685b      	ldr	r3, [r3, #4]
 8001248:	f403 1380 	and.w	r3, r3, #1048576	@ 0x100000
 800124c:	2b00      	cmp	r3, #0
 800124e:	d006      	beq.n	800125e <HAL_GPIO_Init+0x226>
        {
          SET_BIT(EXTI->RTSR, iocurrent);
 8001250:	4b2d      	ldr	r3, [pc, #180]	@ (8001308 <HAL_GPIO_Init+0x2d0>)
 8001252:	689a      	ldr	r2, [r3, #8]
 8001254:	492c      	ldr	r1, [pc, #176]	@ (8001308 <HAL_GPIO_Init+0x2d0>)
 8001256:	69bb      	ldr	r3, [r7, #24]
 8001258:	4313      	orrs	r3, r2
 800125a:	608b      	str	r3, [r1, #8]
 800125c:	e006      	b.n	800126c <HAL_GPIO_Init+0x234>
        }
        else
        {
          CLEAR_BIT(EXTI->RTSR, iocurrent);
 800125e:	4b2a      	ldr	r3, [pc, #168]	@ (8001308 <HAL_GPIO_Init+0x2d0>)
 8001260:	689a      	ldr	r2, [r3, #8]
 8001262:	69bb      	ldr	r3, [r7, #24]
 8001264:	43db      	mvns	r3, r3
 8001266:	4928      	ldr	r1, [pc, #160]	@ (8001308 <HAL_GPIO_Init+0x2d0>)
 8001268:	4013      	ands	r3, r2
 800126a:	608b      	str	r3, [r1, #8]
        }

        /* Enable or disable the falling trigger */
        if ((GPIO_Init->Mode & FALLING_EDGE) == FALLING_EDGE)
 800126c:	683b      	ldr	r3, [r7, #0]
 800126e:	685b      	ldr	r3, [r3, #4]
 8001270:	f403 1300 	and.w	r3, r3, #2097152	@ 0x200000
 8001274:	2b00      	cmp	r3, #0
 8001276:	d006      	beq.n	8001286 <HAL_GPIO_Init+0x24e>
        {
          SET_BIT(EXTI->FTSR, iocurrent);
 8001278:	4b23      	ldr	r3, [pc, #140]	@ (8001308 <HAL_GPIO_Init+0x2d0>)
 800127a:	68da      	ldr	r2, [r3, #12]
 800127c:	4922      	ldr	r1, [pc, #136]	@ (8001308 <HAL_GPIO_Init+0x2d0>)
 800127e:	69bb      	ldr	r3, [r7, #24]
 8001280:	4313      	orrs	r3, r2
 8001282:	60cb      	str	r3, [r1, #12]
 8001284:	e006      	b.n	8001294 <HAL_GPIO_Init+0x25c>
        }
        else
        {
          CLEAR_BIT(EXTI->FTSR, iocurrent);
 8001286:	4b20      	ldr	r3, [pc, #128]	@ (8001308 <HAL_GPIO_Init+0x2d0>)
 8001288:	68da      	ldr	r2, [r3, #12]
 800128a:	69bb      	ldr	r3, [r7, #24]
 800128c:	43db      	mvns	r3, r3
 800128e:	491e      	ldr	r1, [pc, #120]	@ (8001308 <HAL_GPIO_Init+0x2d0>)
 8001290:	4013      	ands	r3, r2
 8001292:	60cb      	str	r3, [r1, #12]
        }

        /* Configure the event mask */
        if ((GPIO_Init->Mode & GPIO_MODE_EVT) == GPIO_MODE_EVT)
 8001294:	683b      	ldr	r3, [r7, #0]
 8001296:	685b      	ldr	r3, [r3, #4]
 8001298:	f403 3300 	and.w	r3, r3, #131072	@ 0x20000
 800129c:	2b00      	cmp	r3, #0
 800129e:	d006      	beq.n	80012ae <HAL_GPIO_Init+0x276>
        {
          SET_BIT(EXTI->EMR, iocurrent);
 80012a0:	4b19      	ldr	r3, [pc, #100]	@ (8001308 <HAL_GPIO_Init+0x2d0>)
 80012a2:	685a      	ldr	r2, [r3, #4]
 80012a4:	4918      	ldr	r1, [pc, #96]	@ (8001308 <HAL_GPIO_Init+0x2d0>)
 80012a6:	69bb      	ldr	r3, [r7, #24]
 80012a8:	4313      	orrs	r3, r2
 80012aa:	604b      	str	r3, [r1, #4]
 80012ac:	e006      	b.n	80012bc <HAL_GPIO_Init+0x284>
        }
        else
        {
          CLEAR_BIT(EXTI->EMR, iocurrent);
 80012ae:	4b16      	ldr	r3, [pc, #88]	@ (8001308 <HAL_GPIO_Init+0x2d0>)
 80012b0:	685a      	ldr	r2, [r3, #4]
 80012b2:	69bb      	ldr	r3, [r7, #24]
 80012b4:	43db      	mvns	r3, r3
 80012b6:	4914      	ldr	r1, [pc, #80]	@ (8001308 <HAL_GPIO_Init+0x2d0>)
 80012b8:	4013      	ands	r3, r2
 80012ba:	604b      	str	r3, [r1, #4]
        }

        /* Configure the interrupt mask */
        if ((GPIO_Init->Mode & GPIO_MODE_IT) == GPIO_MODE_IT)
 80012bc:	683b      	ldr	r3, [r7, #0]
 80012be:	685b      	ldr	r3, [r3, #4]
 80012c0:	f403 3380 	and.w	r3, r3, #65536	@ 0x10000
 80012c4:	2b00      	cmp	r3, #0
 80012c6:	d021      	beq.n	800130c <HAL_GPIO_Init+0x2d4>
        {
          SET_BIT(EXTI->IMR, iocurrent);
 80012c8:	4b0f      	ldr	r3, [pc, #60]	@ (8001308 <HAL_GPIO_Init+0x2d0>)
 80012ca:	681a      	ldr	r2, [r3, #0]
 80012cc:	490e      	ldr	r1, [pc, #56]	@ (8001308 <HAL_GPIO_Init+0x2d0>)
 80012ce:	69bb      	ldr	r3, [r7, #24]
 80012d0:	4313      	orrs	r3, r2
 80012d2:	600b      	str	r3, [r1, #0]
 80012d4:	e021      	b.n	800131a <HAL_GPIO_Init+0x2e2>
 80012d6:	bf00      	nop
 80012d8:	10320000 	.word	0x10320000
 80012dc:	10310000 	.word	0x10310000
 80012e0:	10220000 	.word	0x10220000
 80012e4:	10210000 	.word	0x10210000
 80012e8:	10120000 	.word	0x10120000
 80012ec:	10110000 	.word	0x10110000
 80012f0:	40021000 	.word	0x40021000
 80012f4:	40010000 	.word	0x40010000
 80012f8:	40010800 	.word	0x40010800
 80012fc:	40010c00 	.word	0x40010c00
 8001300:	40011000 	.word	0x40011000
 8001304:	40011400 	.word	0x40011400
 8001308:	40010400 	.word	0x40010400
        }
        else
        {
          CLEAR_BIT(EXTI->IMR, iocurrent);
 800130c:	4b0b      	ldr	r3, [pc, #44]	@ (800133c <HAL_GPIO_Init+0x304>)
 800130e:	681a      	ldr	r2, [r3, #0]
 8001310:	69bb      	ldr	r3, [r7, #24]
 8001312:	43db      	mvns	r3, r3
 8001314:	4909      	ldr	r1, [pc, #36]	@ (800133c <HAL_GPIO_Init+0x304>)
 8001316:	4013      	ands	r3, r2
 8001318:	600b      	str	r3, [r1, #0]
        }
      }
    }

	position++;
 800131a:	6a7b      	ldr	r3, [r7, #36]	@ 0x24
 800131c:	3301      	adds	r3, #1
 800131e:	627b      	str	r3, [r7, #36]	@ 0x24
  while (((GPIO_Init->Pin) >> position) != 0x00u)
 8001320:	683b      	ldr	r3, [r7, #0]
 8001322:	681a      	ldr	r2, [r3, #0]
 8001324:	6a7b      	ldr	r3, [r7, #36]	@ 0x24
 8001326:	fa22 f303 	lsr.w	r3, r2, r3
 800132a:	2b00      	cmp	r3, #0
 800132c:	f47f ae8e 	bne.w	800104c <HAL_GPIO_Init+0x14>
  }
}
 8001330:	bf00      	nop
 8001332:	bf00      	nop
 8001334:	372c      	adds	r7, #44	@ 0x2c
 8001336:	46bd      	mov	sp, r7
 8001338:	bc80      	pop	{r7}
 800133a:	4770      	bx	lr
 800133c:	40010400 	.word	0x40010400

08001340 <HAL_GPIO_WritePin>:
  *            @arg GPIO_PIN_RESET: to clear the port pin
  *            @arg GPIO_PIN_SET: to set the port pin
  * @retval None
  */
void HAL_GPIO_WritePin(GPIO_TypeDef *GPIOx, uint16_t GPIO_Pin, GPIO_PinState PinState)
{
 8001340:	b480      	push	{r7}
 8001342:	b083      	sub	sp, #12
 8001344:	af00      	add	r7, sp, #0
 8001346:	6078      	str	r0, [r7, #4]
 8001348:	460b      	mov	r3, r1
 800134a:	807b      	strh	r3, [r7, #2]
 800134c:	4613      	mov	r3, r2
 800134e:	707b      	strb	r3, [r7, #1]
  /* Check the parameters */
  assert_param(IS_GPIO_PIN(GPIO_Pin));
  assert_param(IS_GPIO_PIN_ACTION(PinState));

  if (PinState != GPIO_PIN_RESET)
 8001350:	787b      	ldrb	r3, [r7, #1]
 8001352:	2b00      	cmp	r3, #0
 8001354:	d003      	beq.n	800135e <HAL_GPIO_WritePin+0x1e>
  {
    GPIOx->BSRR = GPIO_Pin;
 8001356:	887a      	ldrh	r2, [r7, #2]
 8001358:	687b      	ldr	r3, [r7, #4]
 800135a:	611a      	str	r2, [r3, #16]
  }
  else
  {
    GPIOx->BSRR = (uint32_t)GPIO_Pin << 16u;
  }
}
 800135c:	e003      	b.n	8001366 <HAL_GPIO_WritePin+0x26>
    GPIOx->BSRR = (uint32_t)GPIO_Pin << 16u;
 800135e:	887b      	ldrh	r3, [r7, #2]
 8001360:	041a      	lsls	r2, r3, #16
 8001362:	687b      	ldr	r3, [r7, #4]
 8001364:	611a      	str	r2, [r3, #16]
}
 8001366:	bf00      	nop
 8001368:	370c      	adds	r7, #12
 800136a:	46bd      	mov	sp, r7
 800136c:	bc80      	pop	{r7}
 800136e:	4770      	bx	lr

08001370 <HAL_GPIO_TogglePin>:
  * @param  GPIOx: where x can be (A..G depending on device used) to select the GPIO peripheral
  * @param  GPIO_Pin: Specifies the pins to be toggled.
  * @retval None
  */
void HAL_GPIO_TogglePin(GPIO_TypeDef *GPIOx, uint16_t GPIO_Pin)
{
 8001370:	b480      	push	{r7}
 8001372:	b085      	sub	sp, #20
 8001374:	af00      	add	r7, sp, #0
 8001376:	6078      	str	r0, [r7, #4]
 8001378:	460b      	mov	r3, r1
 800137a:	807b      	strh	r3, [r7, #2]

  /* Check the parameters */
  assert_param(IS_GPIO_PIN(GPIO_Pin));

  /* get current Output Data Register value */
  odr = GPIOx->ODR;
 800137c:	687b      	ldr	r3, [r7, #4]
 800137e:	68db      	ldr	r3, [r3, #12]
 8001380:	60fb      	str	r3, [r7, #12]

  /* Set selected pins that were at low level, and reset ones that were high */
  GPIOx->BSRR = ((odr & GPIO_Pin) << GPIO_NUMBER) | (~odr & GPIO_Pin);
 8001382:	887a      	ldrh	r2, [r7, #2]
 8001384:	68fb      	ldr	r3, [r7, #12]
 8001386:	4013      	ands	r3, r2
 8001388:	041a      	lsls	r2, r3, #16
 800138a:	68fb      	ldr	r3, [r7, #12]
 800138c:	43d9      	mvns	r1, r3
 800138e:	887b      	ldrh	r3, [r7, #2]
 8001390:	400b      	ands	r3, r1
 8001392:	431a      	orrs	r2, r3
 8001394:	687b      	ldr	r3, [r7, #4]
 8001396:	611a      	str	r2, [r3, #16]
}
 8001398:	bf00      	nop
 800139a:	3714      	adds	r7, #20
 800139c:	46bd      	mov	sp, r7
 800139e:	bc80      	pop	{r7}
 80013a0:	4770      	bx	lr
	...

080013a4 <HAL_RCC_OscConfig>:
  *         supported by this macro. User should request a transition to HSE Off
  *         first and then HSE On or HSE Bypass.
  * @retval HAL status
  */
HAL_StatusTypeDef HAL_RCC_OscConfig(RCC_OscInitTypeDef  *RCC_OscInitStruct)
{
 80013a4:	b580      	push	{r7, lr}
 80013a6:	b086      	sub	sp, #24
 80013a8:	af00      	add	r7, sp, #0
 80013aa:	6078      	str	r0, [r7, #4]
  uint32_t tickstart;
  uint32_t pll_config;

  /* Check Null pointer */
  if (RCC_OscInitStruct == NULL)
 80013ac:	687b      	ldr	r3, [r7, #4]
 80013ae:	2b00      	cmp	r3, #0
 80013b0:	d101      	bne.n	80013b6 <HAL_RCC_OscConfig+0x12>
  {
    return HAL_ERROR;
 80013b2:	2301      	movs	r3, #1
 80013b4:	e272      	b.n	800189c <HAL_RCC_OscConfig+0x4f8>

  /* Check the parameters */
  assert_param(IS_RCC_OSCILLATORTYPE(RCC_OscInitStruct->OscillatorType));

  /*------------------------------- HSE Configuration ------------------------*/
  if (((RCC_OscInitStruct->OscillatorType) & RCC_OSCILLATORTYPE_HSE) == RCC_OSCILLATORTYPE_HSE)
 80013b6:	687b      	ldr	r3, [r7, #4]
 80013b8:	681b      	ldr	r3, [r3, #0]
 80013ba:	f003 0301 	and.w	r3, r3, #1
 80013be:	2b00      	cmp	r3, #0
 80013c0:	f000 8087 	beq.w	80014d2 <HAL_RCC_OscConfig+0x12e>
  {
    /* Check the parameters */
    assert_param(IS_RCC_HSE(RCC_OscInitStruct->HSEState));

    /* When the HSE is used as system clock or clock source for PLL in these cases it is not allowed to be disabled */
    if ((__HAL_RCC_GET_SYSCLK_SOURCE() == RCC_SYSCLKSOURCE_STATUS_HSE)
 80013c4:	4b92      	ldr	r3, [pc, #584]	@ (8001610 <HAL_RCC_OscConfig+0x26c>)
 80013c6:	685b      	ldr	r3, [r3, #4]
 80013c8:	f003 030c 	and.w	r3, r3, #12
 80013cc:	2b04      	cmp	r3, #4
 80013ce:	d00c      	beq.n	80013ea <HAL_RCC_OscConfig+0x46>
        || ((__HAL_RCC_GET_SYSCLK_SOURCE() == RCC_SYSCLKSOURCE_STATUS_PLLCLK) && (__HAL_RCC_GET_PLL_OSCSOURCE() == RCC_PLLSOURCE_HSE)))
 80013d0:	4b8f      	ldr	r3, [pc, #572]	@ (8001610 <HAL_RCC_OscConfig+0x26c>)
 80013d2:	685b      	ldr	r3, [r3, #4]
 80013d4:	f003 030c 	and.w	r3, r3, #12
 80013d8:	2b08      	cmp	r3, #8
 80013da:	d112      	bne.n	8001402 <HAL_RCC_OscConfig+0x5e>
 80013dc:	4b8c      	ldr	r3, [pc, #560]	@ (8001610 <HAL_RCC_OscConfig+0x26c>)
 80013de:	685b      	ldr	r3, [r3, #4]
 80013e0:	f403 3380 	and.w	r3, r3, #65536	@ 0x10000
 80013e4:	f5b3 3f80 	cmp.w	r3, #65536	@ 0x10000
 80013e8:	d10b      	bne.n	8001402 <HAL_RCC_OscConfig+0x5e>
    {
      if ((__HAL_RCC_GET_FLAG(RCC_FLAG_HSERDY) != RESET) && (RCC_OscInitStruct->HSEState == RCC_HSE_OFF))
 80013ea:	4b89      	ldr	r3, [pc, #548]	@ (8001610 <HAL_RCC_OscConfig+0x26c>)
 80013ec:	681b      	ldr	r3, [r3, #0]
 80013ee:	f403 3300 	and.w	r3, r3, #131072	@ 0x20000
 80013f2:	2b00      	cmp	r3, #0
 80013f4:	d06c      	beq.n	80014d0 <HAL_RCC_OscConfig+0x12c>
 80013f6:	687b      	ldr	r3, [r7, #4]
 80013f8:	685b      	ldr	r3, [r3, #4]
 80013fa:	2b00      	cmp	r3, #0
 80013fc:	d168      	bne.n	80014d0 <HAL_RCC_OscConfig+0x12c>
      {
        return HAL_ERROR;
 80013fe:	2301      	movs	r3, #1
 8001400:	e24c      	b.n	800189c <HAL_RCC_OscConfig+0x4f8>
      }
    }
    else
    {
      /* Set the new HSE configuration ---------------------------------------*/
      __HAL_RCC_HSE_CONFIG(RCC_OscInitStruct->HSEState);
 8001402:	687b      	ldr	r3, [r7, #4]
 8001404:	685b      	ldr	r3, [r3, #4]
 8001406:	f5b3 3f80 	cmp.w	r3, #65536	@ 0x10000
 800140a:	d106      	bne.n	800141a <HAL_RCC_OscConfig+0x76>
 800140c:	4b80      	ldr	r3, [pc, #512]	@ (8001610 <HAL_RCC_OscConfig+0x26c>)
 800140e:	681b      	ldr	r3, [r3, #0]
 8001410:	4a7f      	ldr	r2, [pc, #508]	@ (8001610 <HAL_RCC_OscConfig+0x26c>)
 8001412:	f443 3380 	orr.w	r3, r3, #65536	@ 0x10000
 8001416:	6013      	str	r3, [r2, #0]
 8001418:	e02e      	b.n	8001478 <HAL_RCC_OscConfig+0xd4>
 800141a:	687b      	ldr	r3, [r7, #4]
 800141c:	685b      	ldr	r3, [r3, #4]
 800141e:	2b00      	cmp	r3, #0
 8001420:	d10c      	bne.n	800143c <HAL_RCC_OscConfig+0x98>
 8001422:	4b7b      	ldr	r3, [pc, #492]	@ (8001610 <HAL_RCC_OscConfig+0x26c>)
 8001424:	681b      	ldr	r3, [r3, #0]
 8001426:	4a7a      	ldr	r2, [pc, #488]	@ (8001610 <HAL_RCC_OscConfig+0x26c>)
 8001428:	f423 3380 	bic.w	r3, r3, #65536	@ 0x10000
 800142c:	6013      	str	r3, [r2, #0]
 800142e:	4b78      	ldr	r3, [pc, #480]	@ (8001610 <HAL_RCC_OscConfig+0x26c>)
 8001430:	681b      	ldr	r3, [r3, #0]
 8001432:	4a77      	ldr	r2, [pc, #476]	@ (8001610 <HAL_RCC_OscConfig+0x26c>)
 8001434:	f423 2380 	bic.w	r3, r3, #262144	@ 0x40000
 8001438:	6013      	str	r3, [r2, #0]
 800143a:	e01d      	b.n	8001478 <HAL_RCC_OscConfig+0xd4>
 800143c:	687b      	ldr	r3, [r7, #4]
 800143e:	685b      	ldr	r3, [r3, #4]
 8001440:	f5b3 2fa0 	cmp.w	r3, #327680	@ 0x50000
 8001444:	d10c      	bne.n	8001460 <HAL_RCC_OscConfig+0xbc>
 8001446:	4b72      	ldr	r3, [pc, #456]	@ (8001610 <HAL_RCC_OscConfig+0x26c>)
 8001448:	681b      	ldr	r3, [r3, #0]
 800144a:	4a71      	ldr	r2, [pc, #452]	@ (8001610 <HAL_RCC_OscConfig+0x26c>)
 800144c:	f443 2380 	orr.w	r3, r3, #262144	@ 0x40000
 8001450:	6013      	str	r3, [r2, #0]
 8001452:	4b6f      	ldr	r3, [pc, #444]	@ (8001610 <HAL_RCC_OscConfig+0x26c>)
 8001454:	681b      	ldr	r3, [r3, #0]
 8001456:	4a6e      	ldr	r2, [pc, #440]	@ (8001610 <HAL_RCC_OscConfig+0x26c>)
 8001458:	f443 3380 	orr.w	r3, r3, #65536	@ 0x10000
 800145c:	6013      	str	r3, [r2, #0]
 800145e:	e00b      	b.n	8001478 <HAL_RCC_OscConfig+0xd4>
 8001460:	4b6b      	ldr	r3, [pc, #428]	@ (8001610 <HAL_RCC_OscConfig+0x26c>)
 8001462:	681b      	ldr	r3, [r3, #0]
 8001464:	4a6a      	ldr	r2, [pc, #424]	@ (8001610 <HAL_RCC_OscConfig+0x26c>)
 8001466:	f423 3380 	bic.w	r3, r3, #65536	@ 0x10000
 800146a:	6013      	str	r3, [r2, #0]
 800146c:	4b68      	ldr	r3, [pc, #416]	@ (8001610 <HAL_RCC_OscConfig+0x26c>)
 800146e:	681b      	ldr	r3, [r3, #0]
 8001470:	4a67      	ldr	r2, [pc, #412]	@ (8001610 <HAL_RCC_OscConfig+0x26c>)
 8001472:	f423 2380 	bic.w	r3, r3, #262144	@ 0x40000
 8001476:	6013      	str	r3, [r2, #0]


      /* Check the HSE State */
      if (RCC_OscInitStruct->HSEState != RCC_HSE_OFF)
 8001478:	687b      	ldr	r3, [r7, #4]
 800147a:	685b      	ldr	r3, [r3, #4]
 800147c:	2b00      	cmp	r3, #0
 800147e:	d013      	beq.n	80014a8 <HAL_RCC_OscConfig+0x104>
      {
        /* Get Start Tick */
        tickstart = HAL_GetTick();
 8001480:	f7ff fbec 	bl	8000c5c <HAL_GetTick>
 8001484:	6138      	str	r0, [r7, #16]

        /* Wait till HSE is ready */
        while (__HAL_RCC_GET_FLAG(RCC_FLAG_HSERDY) == RESET)
 8001486:	e008      	b.n	800149a <HAL_RCC_OscConfig+0xf6>
        {
          if ((HAL_GetTick() - tickstart) > HSE_TIMEOUT_VALUE)
 8001488:	f7ff fbe8 	bl	8000c5c <HAL_GetTick>
 800148c:	4602      	mov	r2, r0
 800148e:	693b      	ldr	r3, [r7, #16]
 8001490:	1ad3      	subs	r3, r2, r3
 8001492:	2b64      	cmp	r3, #100	@ 0x64
 8001494:	d901      	bls.n	800149a <HAL_RCC_OscConfig+0xf6>
          {
            return HAL_TIMEOUT;
 8001496:	2303      	movs	r3, #3
 8001498:	e200      	b.n	800189c <HAL_RCC_OscConfig+0x4f8>
        while (__HAL_RCC_GET_FLAG(RCC_FLAG_HSERDY) == RESET)
 800149a:	4b5d      	ldr	r3, [pc, #372]	@ (8001610 <HAL_RCC_OscConfig+0x26c>)
 800149c:	681b      	ldr	r3, [r3, #0]
 800149e:	f403 3300 	and.w	r3, r3, #131072	@ 0x20000
 80014a2:	2b00      	cmp	r3, #0
 80014a4:	d0f0      	beq.n	8001488 <HAL_RCC_OscConfig+0xe4>
 80014a6:	e014      	b.n	80014d2 <HAL_RCC_OscConfig+0x12e>
        }
      }
      else
      {
        /* Get Start Tick */
        tickstart = HAL_GetTick();
 80014a8:	f7ff fbd8 	bl	8000c5c <HAL_GetTick>
 80014ac:	6138      	str	r0, [r7, #16]

        /* Wait till HSE is disabled */
        while (__HAL_RCC_GET_FLAG(RCC_FLAG_HSERDY) != RESET)
 80014ae:	e008      	b.n	80014c2 <HAL_RCC_OscConfig+0x11e>
        {
          if ((HAL_GetTick() - tickstart) > HSE_TIMEOUT_VALUE)
 80014b0:	f7ff fbd4 	bl	8000c5c <HAL_GetTick>
 80014b4:	4602      	mov	r2, r0
 80014b6:	693b      	ldr	r3, [r7, #16]
 80014b8:	1ad3      	subs	r3, r2, r3
 80014ba:	2b64      	cmp	r3, #100	@ 0x64
 80014bc:	d901      	bls.n	80014c2 <HAL_RCC_OscConfig+0x11e>
          {
            return HAL_TIMEOUT;
 80014be:	2303      	movs	r3, #3
 80014c0:	e1ec      	b.n	800189c <HAL_RCC_OscConfig+0x4f8>
        while (__HAL_RCC_GET_FLAG(RCC_FLAG_HSERDY) != RESET)
 80014c2:	4b53      	ldr	r3, [pc, #332]	@ (8001610 <HAL_RCC_OscConfig+0x26c>)
 80014c4:	681b      	ldr	r3, [r3, #0]
 80014c6:	f403 3300 	and.w	r3, r3, #131072	@ 0x20000
 80014ca:	2b00      	cmp	r3, #0
 80014cc:	d1f0      	bne.n	80014b0 <HAL_RCC_OscConfig+0x10c>
 80014ce:	e000      	b.n	80014d2 <HAL_RCC_OscConfig+0x12e>
      if ((__HAL_RCC_GET_FLAG(RCC_FLAG_HSERDY) != RESET) && (RCC_OscInitStruct->HSEState == RCC_HSE_OFF))
 80014d0:	bf00      	nop
        }
      }
    }
  }
  /*----------------------------- HSI Configuration --------------------------*/
  if (((RCC_OscInitStruct->OscillatorType) & RCC_OSCILLATORTYPE_HSI) == RCC_OSCILLATORTYPE_HSI)
 80014d2:	687b      	ldr	r3, [r7, #4]
 80014d4:	681b      	ldr	r3, [r3, #0]
 80014d6:	f003 0302 	and.w	r3, r3, #2
 80014da:	2b00      	cmp	r3, #0
 80014dc:	d063      	beq.n	80015a6 <HAL_RCC_OscConfig+0x202>
    /* Check the parameters */
    assert_param(IS_RCC_HSI(RCC_OscInitStruct->HSIState));
    assert_param(IS_RCC_CALIBRATION_VALUE(RCC_OscInitStruct->HSICalibrationValue));

    /* Check if HSI is used as system clock or as PLL source when PLL is selected as system clock */
    if ((__HAL_RCC_GET_SYSCLK_SOURCE() == RCC_SYSCLKSOURCE_STATUS_HSI)
 80014de:	4b4c      	ldr	r3, [pc, #304]	@ (8001610 <HAL_RCC_OscConfig+0x26c>)
 80014e0:	685b      	ldr	r3, [r3, #4]
 80014e2:	f003 030c 	and.w	r3, r3, #12
 80014e6:	2b00      	cmp	r3, #0
 80014e8:	d00b      	beq.n	8001502 <HAL_RCC_OscConfig+0x15e>
        || ((__HAL_RCC_GET_SYSCLK_SOURCE() == RCC_SYSCLKSOURCE_STATUS_PLLCLK) && (__HAL_RCC_GET_PLL_OSCSOURCE() == RCC_PLLSOURCE_HSI_DIV2)))
 80014ea:	4b49      	ldr	r3, [pc, #292]	@ (8001610 <HAL_RCC_OscConfig+0x26c>)
 80014ec:	685b      	ldr	r3, [r3, #4]
 80014ee:	f003 030c 	and.w	r3, r3, #12
 80014f2:	2b08      	cmp	r3, #8
 80014f4:	d11c      	bne.n	8001530 <HAL_RCC_OscConfig+0x18c>
 80014f6:	4b46      	ldr	r3, [pc, #280]	@ (8001610 <HAL_RCC_OscConfig+0x26c>)
 80014f8:	685b      	ldr	r3, [r3, #4]
 80014fa:	f403 3380 	and.w	r3, r3, #65536	@ 0x10000
 80014fe:	2b00      	cmp	r3, #0
 8001500:	d116      	bne.n	8001530 <HAL_RCC_OscConfig+0x18c>
    {
      /* When HSI is used as system clock it will not disabled */
      if ((__HAL_RCC_GET_FLAG(RCC_FLAG_HSIRDY) != RESET) && (RCC_OscInitStruct->HSIState != RCC_HSI_ON))
 8001502:	4b43      	ldr	r3, [pc, #268]	@ (8001610 <HAL_RCC_OscConfig+0x26c>)
 8001504:	681b      	ldr	r3, [r3, #0]
 8001506:	f003 0302 	and.w	r3, r3, #2
 800150a:	2b00      	cmp	r3, #0
 800150c:	d005      	beq.n	800151a <HAL_RCC_OscConfig+0x176>
 800150e:	687b      	ldr	r3, [r7, #4]
 8001510:	691b      	ldr	r3, [r3, #16]
 8001512:	2b01      	cmp	r3, #1
 8001514:	d001      	beq.n	800151a <HAL_RCC_OscConfig+0x176>
      {
        return HAL_ERROR;
 8001516:	2301      	movs	r3, #1
 8001518:	e1c0      	b.n	800189c <HAL_RCC_OscConfig+0x4f8>
      }
      /* Otherwise, just the calibration is allowed */
      else
      {
        /* Adjusts the Internal High Speed oscillator (HSI) calibration value.*/
        __HAL_RCC_HSI_CALIBRATIONVALUE_ADJUST(RCC_OscInitStruct->HSICalibrationValue);
 800151a:	4b3d      	ldr	r3, [pc, #244]	@ (8001610 <HAL_RCC_OscConfig+0x26c>)
 800151c:	681b      	ldr	r3, [r3, #0]
 800151e:	f023 02f8 	bic.w	r2, r3, #248	@ 0xf8
 8001522:	687b      	ldr	r3, [r7, #4]
 8001524:	695b      	ldr	r3, [r3, #20]
 8001526:	00db      	lsls	r3, r3, #3
 8001528:	4939      	ldr	r1, [pc, #228]	@ (8001610 <HAL_RCC_OscConfig+0x26c>)
 800152a:	4313      	orrs	r3, r2
 800152c:	600b      	str	r3, [r1, #0]
      if ((__HAL_RCC_GET_FLAG(RCC_FLAG_HSIRDY) != RESET) && (RCC_OscInitStruct->HSIState != RCC_HSI_ON))
 800152e:	e03a      	b.n	80015a6 <HAL_RCC_OscConfig+0x202>
      }
    }
    else
    {
      /* Check the HSI State */
      if (RCC_OscInitStruct->HSIState != RCC_HSI_OFF)
 8001530:	687b      	ldr	r3, [r7, #4]
 8001532:	691b      	ldr	r3, [r3, #16]
 8001534:	2b00      	cmp	r3, #0
 8001536:	d020      	beq.n	800157a <HAL_RCC_OscConfig+0x1d6>
      {
        /* Enable the Internal High Speed oscillator (HSI). */
        __HAL_RCC_HSI_ENABLE();
 8001538:	4b36      	ldr	r3, [pc, #216]	@ (8001614 <HAL_RCC_OscConfig+0x270>)
 800153a:	2201      	movs	r2, #1
 800153c:	601a      	str	r2, [r3, #0]

        /* Get Start Tick */
        tickstart = HAL_GetTick();
 800153e:	f7ff fb8d 	bl	8000c5c <HAL_GetTick>
 8001542:	6138      	str	r0, [r7, #16]

        /* Wait till HSI is ready */
        while (__HAL_RCC_GET_FLAG(RCC_FLAG_HSIRDY) == RESET)
 8001544:	e008      	b.n	8001558 <HAL_RCC_OscConfig+0x1b4>
        {
          if ((HAL_GetTick() - tickstart) > HSI_TIMEOUT_VALUE)
 8001546:	f7ff fb89 	bl	8000c5c <HAL_GetTick>
 800154a:	4602      	mov	r2, r0
 800154c:	693b      	ldr	r3, [r7, #16]
 800154e:	1ad3      	subs	r3, r2, r3
 8001550:	2b02      	cmp	r3, #2
 8001552:	d901      	bls.n	8001558 <HAL_RCC_OscConfig+0x1b4>
          {
            return HAL_TIMEOUT;
 8001554:	2303      	movs	r3, #3
 8001556:	e1a1      	b.n	800189c <HAL_RCC_OscConfig+0x4f8>
        while (__HAL_RCC_GET_FLAG(RCC_FLAG_HSIRDY) == RESET)
 8001558:	4b2d      	ldr	r3, [pc, #180]	@ (8001610 <HAL_RCC_OscConfig+0x26c>)
 800155a:	681b      	ldr	r3, [r3, #0]
 800155c:	f003 0302 	and.w	r3, r3, #2
 8001560:	2b00      	cmp	r3, #0
 8001562:	d0f0      	beq.n	8001546 <HAL_RCC_OscConfig+0x1a2>
          }
        }

        /* Adjusts the Internal High Speed oscillator (HSI) calibration value.*/
        __HAL_RCC_HSI_CALIBRATIONVALUE_ADJUST(RCC_OscInitStruct->HSICalibrationValue);
 8001564:	4b2a      	ldr	r3, [pc, #168]	@ (8001610 <HAL_RCC_OscConfig+0x26c>)
 8001566:	681b      	ldr	r3, [r3, #0]
 8001568:	f023 02f8 	bic.w	r2, r3, #248	@ 0xf8
 800156c:	687b      	ldr	r3, [r7, #4]
 800156e:	695b      	ldr	r3, [r3, #20]
 8001570:	00db      	lsls	r3, r3, #3
 8001572:	4927      	ldr	r1, [pc, #156]	@ (8001610 <HAL_RCC_OscConfig+0x26c>)
 8001574:	4313      	orrs	r3, r2
 8001576:	600b      	str	r3, [r1, #0]
 8001578:	e015      	b.n	80015a6 <HAL_RCC_OscConfig+0x202>
      }
      else
      {
        /* Disable the Internal High Speed oscillator (HSI). */
        __HAL_RCC_HSI_DISABLE();
 800157a:	4b26      	ldr	r3, [pc, #152]	@ (8001614 <HAL_RCC_OscConfig+0x270>)
 800157c:	2200      	movs	r2, #0
 800157e:	601a      	str	r2, [r3, #0]

        /* Get Start Tick */
        tickstart = HAL_GetTick();
 8001580:	f7ff fb6c 	bl	8000c5c <HAL_GetTick>
 8001584:	6138      	str	r0, [r7, #16]

        /* Wait till HSI is disabled */
        while (__HAL_RCC_GET_FLAG(RCC_FLAG_HSIRDY) != RESET)
 8001586:	e008      	b.n	800159a <HAL_RCC_OscConfig+0x1f6>
        {
          if ((HAL_GetTick() - tickstart) > HSI_TIMEOUT_VALUE)
 8001588:	f7ff fb68 	bl	8000c5c <HAL_GetTick>
 800158c:	4602      	mov	r2, r0
 800158e:	693b      	ldr	r3, [r7, #16]
 8001590:	1ad3      	subs	r3, r2, r3
 8001592:	2b02      	cmp	r3, #2
 8001594:	d901      	bls.n	800159a <HAL_RCC_OscConfig+0x1f6>
          {
            return HAL_TIMEOUT;
 8001596:	2303      	movs	r3, #3
 8001598:	e180      	b.n	800189c <HAL_RCC_OscConfig+0x4f8>
        while (__HAL_RCC_GET_FLAG(RCC_FLAG_HSIRDY) != RESET)
 800159a:	4b1d      	ldr	r3, [pc, #116]	@ (8001610 <HAL_RCC_OscConfig+0x26c>)
 800159c:	681b      	ldr	r3, [r3, #0]
 800159e:	f003 0302 	and.w	r3, r3, #2
 80015a2:	2b00      	cmp	r3, #0
 80015a4:	d1f0      	bne.n	8001588 <HAL_RCC_OscConfig+0x1e4>
        }
      }
    }
  }
  /*------------------------------ LSI Configuration -------------------------*/
  if (((RCC_OscInitStruct->OscillatorType) & RCC_OSCILLATORTYPE_LSI) == RCC_OSCILLATORTYPE_LSI)
 80015a6:	687b      	ldr	r3, [r7, #4]
 80015a8:	681b      	ldr	r3, [r3, #0]
 80015aa:	f003 0308 	and.w	r3, r3, #8
 80015ae:	2b00      	cmp	r3, #0
 80015b0:	d03a      	beq.n	8001628 <HAL_RCC_OscConfig+0x284>
  {
    /* Check the parameters */
    assert_param(IS_RCC_LSI(RCC_OscInitStruct->LSIState));

    /* Check the LSI State */
    if (RCC_OscInitStruct->LSIState != RCC_LSI_OFF)
 80015b2:	687b      	ldr	r3, [r7, #4]
 80015b4:	699b      	ldr	r3, [r3, #24]
 80015b6:	2b00      	cmp	r3, #0
 80015b8:	d019      	beq.n	80015ee <HAL_RCC_OscConfig+0x24a>
    {
      /* Enable the Internal Low Speed oscillator (LSI). */
      __HAL_RCC_LSI_ENABLE();
 80015ba:	4b17      	ldr	r3, [pc, #92]	@ (8001618 <HAL_RCC_OscConfig+0x274>)
 80015bc:	2201      	movs	r2, #1
 80015be:	601a      	str	r2, [r3, #0]

      /* Get Start Tick */
      tickstart = HAL_GetTick();
 80015c0:	f7ff fb4c 	bl	8000c5c <HAL_GetTick>
 80015c4:	6138      	str	r0, [r7, #16]

      /* Wait till LSI is ready */
      while (__HAL_RCC_GET_FLAG(RCC_FLAG_LSIRDY) == RESET)
 80015c6:	e008      	b.n	80015da <HAL_RCC_OscConfig+0x236>
      {
        if ((HAL_GetTick() - tickstart) > LSI_TIMEOUT_VALUE)
 80015c8:	f7ff fb48 	bl	8000c5c <HAL_GetTick>
 80015cc:	4602      	mov	r2, r0
 80015ce:	693b      	ldr	r3, [r7, #16]
 80015d0:	1ad3      	subs	r3, r2, r3
 80015d2:	2b02      	cmp	r3, #2
 80015d4:	d901      	bls.n	80015da <HAL_RCC_OscConfig+0x236>
        {
          return HAL_TIMEOUT;
 80015d6:	2303      	movs	r3, #3
 80015d8:	e160      	b.n	800189c <HAL_RCC_OscConfig+0x4f8>
      while (__HAL_RCC_GET_FLAG(RCC_FLAG_LSIRDY) == RESET)
 80015da:	4b0d      	ldr	r3, [pc, #52]	@ (8001610 <HAL_RCC_OscConfig+0x26c>)
 80015dc:	6a5b      	ldr	r3, [r3, #36]	@ 0x24
 80015de:	f003 0302 	and.w	r3, r3, #2
 80015e2:	2b00      	cmp	r3, #0
 80015e4:	d0f0      	beq.n	80015c8 <HAL_RCC_OscConfig+0x224>
        }
      }
      /*  To have a fully stabilized clock in the specified range, a software delay of 1ms
          should be added.*/
      RCC_Delay(1);
 80015e6:	2001      	movs	r0, #1
 80015e8:	f000 face 	bl	8001b88 <RCC_Delay>
 80015ec:	e01c      	b.n	8001628 <HAL_RCC_OscConfig+0x284>
    }
    else
    {
      /* Disable the Internal Low Speed oscillator (LSI). */
      __HAL_RCC_LSI_DISABLE();
 80015ee:	4b0a      	ldr	r3, [pc, #40]	@ (8001618 <HAL_RCC_OscConfig+0x274>)
 80015f0:	2200      	movs	r2, #0
 80015f2:	601a      	str	r2, [r3, #0]

      /* Get Start Tick */
      tickstart = HAL_GetTick();
 80015f4:	f7ff fb32 	bl	8000c5c <HAL_GetTick>
 80015f8:	6138      	str	r0, [r7, #16]

      /* Wait till LSI is disabled */
      while (__HAL_RCC_GET_FLAG(RCC_FLAG_LSIRDY) != RESET)
 80015fa:	e00f      	b.n	800161c <HAL_RCC_OscConfig+0x278>
      {
        if ((HAL_GetTick() - tickstart) > LSI_TIMEOUT_VALUE)
 80015fc:	f7ff fb2e 	bl	8000c5c <HAL_GetTick>
 8001600:	4602      	mov	r2, r0
 8001602:	693b      	ldr	r3, [r7, #16]
 8001604:	1ad3      	subs	r3, r2, r3
 8001606:	2b02      	cmp	r3, #2
 8001608:	d908      	bls.n	800161c <HAL_RCC_OscConfig+0x278>
        {
          return HAL_TIMEOUT;
 800160a:	2303      	movs	r3, #3
 800160c:	e146      	b.n	800189c <HAL_RCC_OscConfig+0x4f8>
 800160e:	bf00      	nop
 8001610:	40021000 	.word	0x40021000
 8001614:	42420000 	.word	0x42420000
 8001618:	42420480 	.word	0x42420480
      while (__HAL_RCC_GET_FLAG(RCC_FLAG_LSIRDY) != RESET)
 800161c:	4b92      	ldr	r3, [pc, #584]	@ (8001868 <HAL_RCC_OscConfig+0x4c4>)
 800161e:	6a5b      	ldr	r3, [r3, #36]	@ 0x24
 8001620:	f003 0302 	and.w	r3, r3, #2
 8001624:	2b00      	cmp	r3, #0
 8001626:	d1e9      	bne.n	80015fc <HAL_RCC_OscConfig+0x258>
        }
      }
    }
  }
  /*------------------------------ LSE Configuration -------------------------*/
  if (((RCC_OscInitStruct->OscillatorType) & RCC_OSCILLATORTYPE_LSE) == RCC_OSCILLATORTYPE_LSE)
 8001628:	687b      	ldr	r3, [r7, #4]
 800162a:	681b      	ldr	r3, [r3, #0]
 800162c:	f003 0304 	and.w	r3, r3, #4
 8001630:	2b00      	cmp	r3, #0
 8001632:	f000 80a6 	beq.w	8001782 <HAL_RCC_OscConfig+0x3de>
  {
    FlagStatus       pwrclkchanged = RESET;
 8001636:	2300      	movs	r3, #0
 8001638:	75fb      	strb	r3, [r7, #23]
    /* Check the parameters */
    assert_param(IS_RCC_LSE(RCC_OscInitStruct->LSEState));

    /* Update LSE configuration in Backup Domain control register    */
    /* Requires to enable write access to Backup Domain of necessary */
    if (__HAL_RCC_PWR_IS_CLK_DISABLED())
 800163a:	4b8b      	ldr	r3, [pc, #556]	@ (8001868 <HAL_RCC_OscConfig+0x4c4>)
 800163c:	69db      	ldr	r3, [r3, #28]
 800163e:	f003 5380 	and.w	r3, r3, #268435456	@ 0x10000000
 8001642:	2b00      	cmp	r3, #0
 8001644:	d10d      	bne.n	8001662 <HAL_RCC_OscConfig+0x2be>
    {
      __HAL_RCC_PWR_CLK_ENABLE();
 8001646:	4b88      	ldr	r3, [pc, #544]	@ (8001868 <HAL_RCC_OscConfig+0x4c4>)
 8001648:	69db      	ldr	r3, [r3, #28]
 800164a:	4a87      	ldr	r2, [pc, #540]	@ (8001868 <HAL_RCC_OscConfig+0x4c4>)
 800164c:	f043 5380 	orr.w	r3, r3, #268435456	@ 0x10000000
 8001650:	61d3      	str	r3, [r2, #28]
 8001652:	4b85      	ldr	r3, [pc, #532]	@ (8001868 <HAL_RCC_OscConfig+0x4c4>)
 8001654:	69db      	ldr	r3, [r3, #28]
 8001656:	f003 5380 	and.w	r3, r3, #268435456	@ 0x10000000
 800165a:	60bb      	str	r3, [r7, #8]
 800165c:	68bb      	ldr	r3, [r7, #8]
      pwrclkchanged = SET;
 800165e:	2301      	movs	r3, #1
 8001660:	75fb      	strb	r3, [r7, #23]
    }

    if (HAL_IS_BIT_CLR(PWR->CR, PWR_CR_DBP))
 8001662:	4b82      	ldr	r3, [pc, #520]	@ (800186c <HAL_RCC_OscConfig+0x4c8>)
 8001664:	681b      	ldr	r3, [r3, #0]
 8001666:	f403 7380 	and.w	r3, r3, #256	@ 0x100
 800166a:	2b00      	cmp	r3, #0
 800166c:	d118      	bne.n	80016a0 <HAL_RCC_OscConfig+0x2fc>
    {
      /* Enable write access to Backup domain */
      SET_BIT(PWR->CR, PWR_CR_DBP);
 800166e:	4b7f      	ldr	r3, [pc, #508]	@ (800186c <HAL_RCC_OscConfig+0x4c8>)
 8001670:	681b      	ldr	r3, [r3, #0]
 8001672:	4a7e      	ldr	r2, [pc, #504]	@ (800186c <HAL_RCC_OscConfig+0x4c8>)
 8001674:	f443 7380 	orr.w	r3, r3, #256	@ 0x100
 8001678:	6013      	str	r3, [r2, #0]

      /* Wait for Backup domain Write protection disable */
      tickstart = HAL_GetTick();
 800167a:	f7ff faef 	bl	8000c5c <HAL_GetTick>
 800167e:	6138      	str	r0, [r7, #16]

      while (HAL_IS_BIT_CLR(PWR->CR, PWR_CR_DBP))
 8001680:	e008      	b.n	8001694 <HAL_RCC_OscConfig+0x2f0>
      {
        if ((HAL_GetTick() - tickstart) > RCC_DBP_TIMEOUT_VALUE)
 8001682:	f7ff faeb 	bl	8000c5c <HAL_GetTick>
 8001686:	4602      	mov	r2, r0
 8001688:	693b      	ldr	r3, [r7, #16]
 800168a:	1ad3      	subs	r3, r2, r3
 800168c:	2b64      	cmp	r3, #100	@ 0x64
 800168e:	d901      	bls.n	8001694 <HAL_RCC_OscConfig+0x2f0>
        {
          return HAL_TIMEOUT;
 8001690:	2303      	movs	r3, #3
 8001692:	e103      	b.n	800189c <HAL_RCC_OscConfig+0x4f8>
      while (HAL_IS_BIT_CLR(PWR->CR, PWR_CR_DBP))
 8001694:	4b75      	ldr	r3, [pc, #468]	@ (800186c <HAL_RCC_OscConfig+0x4c8>)
 8001696:	681b      	ldr	r3, [r3, #0]
 8001698:	f403 7380 	and.w	r3, r3, #256	@ 0x100
 800169c:	2b00      	cmp	r3, #0
 800169e:	d0f0      	beq.n	8001682 <HAL_RCC_OscConfig+0x2de>
        }
      }
    }

    /* Set the new LSE configuration -----------------------------------------*/
    __HAL_RCC_LSE_CONFIG(RCC_OscInitStruct->LSEState);
 80016a0:	687b      	ldr	r3, [r7, #4]
 80016a2:	68db      	ldr	r3, [r3, #12]
 80016a4:	2b01      	cmp	r3, #1
 80016a6:	d106      	bne.n	80016b6 <HAL_RCC_OscConfig+0x312>
 80016a8:	4b6f      	ldr	r3, [pc, #444]	@ (8001868 <HAL_RCC_OscConfig+0x4c4>)
 80016aa:	6a1b      	ldr	r3, [r3, #32]
 80016ac:	4a6e      	ldr	r2, [pc, #440]	@ (8001868 <HAL_RCC_OscConfig+0x4c4>)
 80016ae:	f043 0301 	orr.w	r3, r3, #1
 80016b2:	6213      	str	r3, [r2, #32]
 80016b4:	e02d      	b.n	8001712 <HAL_RCC_OscConfig+0x36e>
 80016b6:	687b      	ldr	r3, [r7, #4]
 80016b8:	68db      	ldr	r3, [r3, #12]
 80016ba:	2b00      	cmp	r3, #0
 80016bc:	d10c      	bne.n	80016d8 <HAL_RCC_OscConfig+0x334>
 80016be:	4b6a      	ldr	r3, [pc, #424]	@ (8001868 <HAL_RCC_OscConfig+0x4c4>)
 80016c0:	6a1b      	ldr	r3, [r3, #32]
 80016c2:	4a69      	ldr	r2, [pc, #420]	@ (8001868 <HAL_RCC_OscConfig+0x4c4>)
 80016c4:	f023 0301 	bic.w	r3, r3, #1
 80016c8:	6213      	str	r3, [r2, #32]
 80016ca:	4b67      	ldr	r3, [pc, #412]	@ (8001868 <HAL_RCC_OscConfig+0x4c4>)
 80016cc:	6a1b      	ldr	r3, [r3, #32]
 80016ce:	4a66      	ldr	r2, [pc, #408]	@ (8001868 <HAL_RCC_OscConfig+0x4c4>)
 80016d0:	f023 0304 	bic.w	r3, r3, #4
 80016d4:	6213      	str	r3, [r2, #32]
 80016d6:	e01c      	b.n	8001712 <HAL_RCC_OscConfig+0x36e>
 80016d8:	687b      	ldr	r3, [r7, #4]
 80016da:	68db      	ldr	r3, [r3, #12]
 80016dc:	2b05      	cmp	r3, #5
 80016de:	d10c      	bne.n	80016fa <HAL_RCC_OscConfig+0x356>
 80016e0:	4b61      	ldr	r3, [pc, #388]	@ (8001868 <HAL_RCC_OscConfig+0x4c4>)
 80016e2:	6a1b      	ldr	r3, [r3, #32]
 80016e4:	4a60      	ldr	r2, [pc, #384]	@ (8001868 <HAL_RCC_OscConfig+0x4c4>)
 80016e6:	f043 0304 	orr.w	r3, r3, #4
 80016ea:	6213      	str	r3, [r2, #32]
 80016ec:	4b5e      	ldr	r3, [pc, #376]	@ (8001868 <HAL_RCC_OscConfig+0x4c4>)
 80016ee:	6a1b      	ldr	r3, [r3, #32]
 80016f0:	4a5d      	ldr	r2, [pc, #372]	@ (8001868 <HAL_RCC_OscConfig+0x4c4>)
 80016f2:	f043 0301 	orr.w	r3, r3, #1
 80016f6:	6213      	str	r3, [r2, #32]
 80016f8:	e00b      	b.n	8001712 <HAL_RCC_OscConfig+0x36e>
 80016fa:	4b5b      	ldr	r3, [pc, #364]	@ (8001868 <HAL_RCC_OscConfig+0x4c4>)
 80016fc:	6a1b      	ldr	r3, [r3, #32]
 80016fe:	4a5a      	ldr	r2, [pc, #360]	@ (8001868 <HAL_RCC_OscConfig+0x4c4>)
 8001700:	f023 0301 	bic.w	r3, r3, #1
 8001704:	6213      	str	r3, [r2, #32]
 8001706:	4b58      	ldr	r3, [pc, #352]	@ (8001868 <HAL_RCC_OscConfig+0x4c4>)
 8001708:	6a1b      	ldr	r3, [r3, #32]
 800170a:	4a57      	ldr	r2, [pc, #348]	@ (8001868 <HAL_RCC_OscConfig+0x4c4>)
 800170c:	f023 0304 	bic.w	r3, r3, #4
 8001710:	6213      	str	r3, [r2, #32]
    /* Check the LSE State */
    if (RCC_OscInitStruct->LSEState != RCC_LSE_OFF)
 8001712:	687b      	ldr	r3, [r7, #4]
 8001714:	68db      	ldr	r3, [r3, #12]
 8001716:	2b00      	cmp	r3, #0
 8001718:	d015      	beq.n	8001746 <HAL_RCC_OscConfig+0x3a2>
    {
      /* Get Start Tick */
      tickstart = HAL_GetTick();
 800171a:	f7ff fa9f 	bl	8000c5c <HAL_GetTick>
 800171e:	6138      	str	r0, [r7, #16]

      /* Wait till LSE is ready */
      while (__HAL_RCC_GET_FLAG(RCC_FLAG_LSERDY) == RESET)
 8001720:	e00a      	b.n	8001738 <HAL_RCC_OscConfig+0x394>
      {
        if ((HAL_GetTick() - tickstart) > RCC_LSE_TIMEOUT_VALUE)
 8001722:	f7ff fa9b 	bl	8000c5c <HAL_GetTick>
 8001726:	4602      	mov	r2, r0
 8001728:	693b      	ldr	r3, [r7, #16]
 800172a:	1ad3      	subs	r3, r2, r3
 800172c:	f241 3288 	movw	r2, #5000	@ 0x1388
 8001730:	4293      	cmp	r3, r2
 8001732:	d901      	bls.n	8001738 <HAL_RCC_OscConfig+0x394>
        {
          return HAL_TIMEOUT;
 8001734:	2303      	movs	r3, #3
 8001736:	e0b1      	b.n	800189c <HAL_RCC_OscConfig+0x4f8>
      while (__HAL_RCC_GET_FLAG(RCC_FLAG_LSERDY) == RESET)
 8001738:	4b4b      	ldr	r3, [pc, #300]	@ (8001868 <HAL_RCC_OscConfig+0x4c4>)
 800173a:	6a1b      	ldr	r3, [r3, #32]
 800173c:	f003 0302 	and.w	r3, r3, #2
 8001740:	2b00      	cmp	r3, #0
 8001742:	d0ee      	beq.n	8001722 <HAL_RCC_OscConfig+0x37e>
 8001744:	e014      	b.n	8001770 <HAL_RCC_OscConfig+0x3cc>
      }
    }
    else
    {
      /* Get Start Tick */
      tickstart = HAL_GetTick();
 8001746:	f7ff fa89 	bl	8000c5c <HAL_GetTick>
 800174a:	6138      	str	r0, [r7, #16]

      /* Wait till LSE is disabled */
      while (__HAL_RCC_GET_FLAG(RCC_FLAG_LSERDY) != RESET)
 800174c:	e00a      	b.n	8001764 <HAL_RCC_OscConfig+0x3c0>
      {
        if ((HAL_GetTick() - tickstart) > RCC_LSE_TIMEOUT_VALUE)
 800174e:	f7ff fa85 	bl	8000c5c <HAL_GetTick>
 8001752:	4602      	mov	r2, r0
 8001754:	693b      	ldr	r3, [r7, #16]
 8001756:	1ad3      	subs	r3, r2, r3
 8001758:	f241 3288 	movw	r2, #5000	@ 0x1388
 800175c:	4293      	cmp	r3, r2
 800175e:	d901      	bls.n	8001764 <HAL_RCC_OscConfig+0x3c0>
        {
          return HAL_TIMEOUT;
 8001760:	2303      	movs	r3, #3
 8001762:	e09b      	b.n	800189c <HAL_RCC_OscConfig+0x4f8>
      while (__HAL_RCC_GET_FLAG(RCC_FLAG_LSERDY) != RESET)
 8001764:	4b40      	ldr	r3, [pc, #256]	@ (8001868 <HAL_RCC_OscConfig+0x4c4>)
 8001766:	6a1b      	ldr	r3, [r3, #32]
 8001768:	f003 0302 	and.w	r3, r3, #2
 800176c:	2b00      	cmp	r3, #0
 800176e:	d1ee      	bne.n	800174e <HAL_RCC_OscConfig+0x3aa>
        }
      }
    }

    /* Require to disable power clock if necessary */
    if (pwrclkchanged == SET)
 8001770:	7dfb      	ldrb	r3, [r7, #23]
 8001772:	2b01      	cmp	r3, #1
 8001774:	d105      	bne.n	8001782 <HAL_RCC_OscConfig+0x3de>
    {
      __HAL_RCC_PWR_CLK_DISABLE();
 8001776:	4b3c      	ldr	r3, [pc, #240]	@ (8001868 <HAL_RCC_OscConfig+0x4c4>)
 8001778:	69db      	ldr	r3, [r3, #28]
 800177a:	4a3b      	ldr	r2, [pc, #236]	@ (8001868 <HAL_RCC_OscConfig+0x4c4>)
 800177c:	f023 5380 	bic.w	r3, r3, #268435456	@ 0x10000000
 8001780:	61d3      	str	r3, [r2, #28]

#endif /* RCC_CR_PLL2ON */
  /*-------------------------------- PLL Configuration -----------------------*/
  /* Check the parameters */
  assert_param(IS_RCC_PLL(RCC_OscInitStruct->PLL.PLLState));
  if ((RCC_OscInitStruct->PLL.PLLState) != RCC_PLL_NONE)
 8001782:	687b      	ldr	r3, [r7, #4]
 8001784:	69db      	ldr	r3, [r3, #28]
 8001786:	2b00      	cmp	r3, #0
 8001788:	f000 8087 	beq.w	800189a <HAL_RCC_OscConfig+0x4f6>
  {
    /* Check if the PLL is used as system clock or not */
    if (__HAL_RCC_GET_SYSCLK_SOURCE() != RCC_SYSCLKSOURCE_STATUS_PLLCLK)
 800178c:	4b36      	ldr	r3, [pc, #216]	@ (8001868 <HAL_RCC_OscConfig+0x4c4>)
 800178e:	685b      	ldr	r3, [r3, #4]
 8001790:	f003 030c 	and.w	r3, r3, #12
 8001794:	2b08      	cmp	r3, #8
 8001796:	d061      	beq.n	800185c <HAL_RCC_OscConfig+0x4b8>
    {
      if ((RCC_OscInitStruct->PLL.PLLState) == RCC_PLL_ON)
 8001798:	687b      	ldr	r3, [r7, #4]
 800179a:	69db      	ldr	r3, [r3, #28]
 800179c:	2b02      	cmp	r3, #2
 800179e:	d146      	bne.n	800182e <HAL_RCC_OscConfig+0x48a>
        /* Check the parameters */
        assert_param(IS_RCC_PLLSOURCE(RCC_OscInitStruct->PLL.PLLSource));
        assert_param(IS_RCC_PLL_MUL(RCC_OscInitStruct->PLL.PLLMUL));

        /* Disable the main PLL. */
        __HAL_RCC_PLL_DISABLE();
 80017a0:	4b33      	ldr	r3, [pc, #204]	@ (8001870 <HAL_RCC_OscConfig+0x4cc>)
 80017a2:	2200      	movs	r2, #0
 80017a4:	601a      	str	r2, [r3, #0]

        /* Get Start Tick */
        tickstart = HAL_GetTick();
 80017a6:	f7ff fa59 	bl	8000c5c <HAL_GetTick>
 80017aa:	6138      	str	r0, [r7, #16]

        /* Wait till PLL is disabled */
        while (__HAL_RCC_GET_FLAG(RCC_FLAG_PLLRDY)  != RESET)
 80017ac:	e008      	b.n	80017c0 <HAL_RCC_OscConfig+0x41c>
        {
          if ((HAL_GetTick() - tickstart) > PLL_TIMEOUT_VALUE)
 80017ae:	f7ff fa55 	bl	8000c5c <HAL_GetTick>
 80017b2:	4602      	mov	r2, r0
 80017b4:	693b      	ldr	r3, [r7, #16]
 80017b6:	1ad3      	subs	r3, r2, r3
 80017b8:	2b02      	cmp	r3, #2
 80017ba:	d901      	bls.n	80017c0 <HAL_RCC_OscConfig+0x41c>
          {
            return HAL_TIMEOUT;
 80017bc:	2303      	movs	r3, #3
 80017be:	e06d      	b.n	800189c <HAL_RCC_OscConfig+0x4f8>
        while (__HAL_RCC_GET_FLAG(RCC_FLAG_PLLRDY)  != RESET)
 80017c0:	4b29      	ldr	r3, [pc, #164]	@ (8001868 <HAL_RCC_OscConfig+0x4c4>)
 80017c2:	681b      	ldr	r3, [r3, #0]
 80017c4:	f003 7300 	and.w	r3, r3, #33554432	@ 0x2000000
 80017c8:	2b00      	cmp	r3, #0
 80017ca:	d1f0      	bne.n	80017ae <HAL_RCC_OscConfig+0x40a>
          }
        }

        /* Configure the HSE prediv factor --------------------------------*/
        /* It can be written only when the PLL is disabled. Not used in PLL source is different than HSE */
        if (RCC_OscInitStruct->PLL.PLLSource == RCC_PLLSOURCE_HSE)
 80017cc:	687b      	ldr	r3, [r7, #4]
 80017ce:	6a1b      	ldr	r3, [r3, #32]
 80017d0:	f5b3 3f80 	cmp.w	r3, #65536	@ 0x10000
 80017d4:	d108      	bne.n	80017e8 <HAL_RCC_OscConfig+0x444>
          /* Set PREDIV1 source */
          SET_BIT(RCC->CFGR2, RCC_OscInitStruct->Prediv1Source);
#endif /* RCC_CFGR2_PREDIV1SRC */

          /* Set PREDIV1 Value */
          __HAL_RCC_HSE_PREDIV_CONFIG(RCC_OscInitStruct->HSEPredivValue);
 80017d6:	4b24      	ldr	r3, [pc, #144]	@ (8001868 <HAL_RCC_OscConfig+0x4c4>)
 80017d8:	685b      	ldr	r3, [r3, #4]
 80017da:	f423 3200 	bic.w	r2, r3, #131072	@ 0x20000
 80017de:	687b      	ldr	r3, [r7, #4]
 80017e0:	689b      	ldr	r3, [r3, #8]
 80017e2:	4921      	ldr	r1, [pc, #132]	@ (8001868 <HAL_RCC_OscConfig+0x4c4>)
 80017e4:	4313      	orrs	r3, r2
 80017e6:	604b      	str	r3, [r1, #4]
        }

        /* Configure the main PLL clock source and multiplication factors. */
        __HAL_RCC_PLL_CONFIG(RCC_OscInitStruct->PLL.PLLSource,
 80017e8:	4b1f      	ldr	r3, [pc, #124]	@ (8001868 <HAL_RCC_OscConfig+0x4c4>)
 80017ea:	685b      	ldr	r3, [r3, #4]
 80017ec:	f423 1274 	bic.w	r2, r3, #3997696	@ 0x3d0000
 80017f0:	687b      	ldr	r3, [r7, #4]
 80017f2:	6a19      	ldr	r1, [r3, #32]
 80017f4:	687b      	ldr	r3, [r7, #4]
 80017f6:	6a5b      	ldr	r3, [r3, #36]	@ 0x24
 80017f8:	430b      	orrs	r3, r1
 80017fa:	491b      	ldr	r1, [pc, #108]	@ (8001868 <HAL_RCC_OscConfig+0x4c4>)
 80017fc:	4313      	orrs	r3, r2
 80017fe:	604b      	str	r3, [r1, #4]
                             RCC_OscInitStruct->PLL.PLLMUL);
        /* Enable the main PLL. */
        __HAL_RCC_PLL_ENABLE();
 8001800:	4b1b      	ldr	r3, [pc, #108]	@ (8001870 <HAL_RCC_OscConfig+0x4cc>)
 8001802:	2201      	movs	r2, #1
 8001804:	601a      	str	r2, [r3, #0]

        /* Get Start Tick */
        tickstart = HAL_GetTick();
 8001806:	f7ff fa29 	bl	8000c5c <HAL_GetTick>
 800180a:	6138      	str	r0, [r7, #16]

        /* Wait till PLL is ready */
        while (__HAL_RCC_GET_FLAG(RCC_FLAG_PLLRDY)  == RESET)
 800180c:	e008      	b.n	8001820 <HAL_RCC_OscConfig+0x47c>
        {
          if ((HAL_GetTick() - tickstart) > PLL_TIMEOUT_VALUE)
 800180e:	f7ff fa25 	bl	8000c5c <HAL_GetTick>
 8001812:	4602      	mov	r2, r0
 8001814:	693b      	ldr	r3, [r7, #16]
 8001816:	1ad3      	subs	r3, r2, r3
 8001818:	2b02      	cmp	r3, #2
 800181a:	d901      	bls.n	8001820 <HAL_RCC_OscConfig+0x47c>
          {
            return HAL_TIMEOUT;
 800181c:	2303      	movs	r3, #3
 800181e:	e03d      	b.n	800189c <HAL_RCC_OscConfig+0x4f8>
        while (__HAL_RCC_GET_FLAG(RCC_FLAG_PLLRDY)  == RESET)
 8001820:	4b11      	ldr	r3, [pc, #68]	@ (8001868 <HAL_RCC_OscConfig+0x4c4>)
 8001822:	681b      	ldr	r3, [r3, #0]
 8001824:	f003 7300 	and.w	r3, r3, #33554432	@ 0x2000000
 8001828:	2b00      	cmp	r3, #0
 800182a:	d0f0      	beq.n	800180e <HAL_RCC_OscConfig+0x46a>
 800182c:	e035      	b.n	800189a <HAL_RCC_OscConfig+0x4f6>
        }
      }
      else
      {
        /* Disable the main PLL. */
        __HAL_RCC_PLL_DISABLE();
 800182e:	4b10      	ldr	r3, [pc, #64]	@ (8001870 <HAL_RCC_OscConfig+0x4cc>)
 8001830:	2200      	movs	r2, #0
 8001832:	601a      	str	r2, [r3, #0]

        /* Get Start Tick */
        tickstart = HAL_GetTick();
 8001834:	f7ff fa12 	bl	8000c5c <HAL_GetTick>
 8001838:	6138      	str	r0, [r7, #16]

        /* Wait till PLL is disabled */
        while (__HAL_RCC_GET_FLAG(RCC_FLAG_PLLRDY)  != RESET)
 800183a:	e008      	b.n	800184e <HAL_RCC_OscConfig+0x4aa>
        {
          if ((HAL_GetTick() - tickstart) > PLL_TIMEOUT_VALUE)
 800183c:	f7ff fa0e 	bl	8000c5c <HAL_GetTick>
 8001840:	4602      	mov	r2, r0
 8001842:	693b      	ldr	r3, [r7, #16]
 8001844:	1ad3      	subs	r3, r2, r3
 8001846:	2b02      	cmp	r3, #2
 8001848:	d901      	bls.n	800184e <HAL_RCC_OscConfig+0x4aa>
          {
            return HAL_TIMEOUT;
 800184a:	2303      	movs	r3, #3
 800184c:	e026      	b.n	800189c <HAL_RCC_OscConfig+0x4f8>
        while (__HAL_RCC_GET_FLAG(RCC_FLAG_PLLRDY)  != RESET)
 800184e:	4b06      	ldr	r3, [pc, #24]	@ (8001868 <HAL_RCC_OscConfig+0x4c4>)
 8001850:	681b      	ldr	r3, [r3, #0]
 8001852:	f003 7300 	and.w	r3, r3, #33554432	@ 0x2000000
 8001856:	2b00      	cmp	r3, #0
 8001858:	d1f0      	bne.n	800183c <HAL_RCC_OscConfig+0x498>
 800185a:	e01e      	b.n	800189a <HAL_RCC_OscConfig+0x4f6>
      }
    }
    else
    {
      /* Check if there is a request to disable the PLL used as System clock source */
      if ((RCC_OscInitStruct->PLL.PLLState) == RCC_PLL_OFF)
 800185c:	687b      	ldr	r3, [r7, #4]
 800185e:	69db      	ldr	r3, [r3, #28]
 8001860:	2b01      	cmp	r3, #1
 8001862:	d107      	bne.n	8001874 <HAL_RCC_OscConfig+0x4d0>
      {
        return HAL_ERROR;
 8001864:	2301      	movs	r3, #1
 8001866:	e019      	b.n	800189c <HAL_RCC_OscConfig+0x4f8>
 8001868:	40021000 	.word	0x40021000
 800186c:	40007000 	.word	0x40007000
 8001870:	42420060 	.word	0x42420060
      }
      else
      {
        /* Do not return HAL_ERROR if request repeats the current configuration */
        pll_config = RCC->CFGR;
 8001874:	4b0b      	ldr	r3, [pc, #44]	@ (80018a4 <HAL_RCC_OscConfig+0x500>)
 8001876:	685b      	ldr	r3, [r3, #4]
 8001878:	60fb      	str	r3, [r7, #12]
        if ((READ_BIT(pll_config, RCC_CFGR_PLLSRC) != RCC_OscInitStruct->PLL.PLLSource) ||
 800187a:	68fb      	ldr	r3, [r7, #12]
 800187c:	f403 3280 	and.w	r2, r3, #65536	@ 0x10000
 8001880:	687b      	ldr	r3, [r7, #4]
 8001882:	6a1b      	ldr	r3, [r3, #32]
 8001884:	429a      	cmp	r2, r3
 8001886:	d106      	bne.n	8001896 <HAL_RCC_OscConfig+0x4f2>
            (READ_BIT(pll_config, RCC_CFGR_PLLMULL) != RCC_OscInitStruct->PLL.PLLMUL))
 8001888:	68fb      	ldr	r3, [r7, #12]
 800188a:	f403 1270 	and.w	r2, r3, #3932160	@ 0x3c0000
 800188e:	687b      	ldr	r3, [r7, #4]
 8001890:	6a5b      	ldr	r3, [r3, #36]	@ 0x24
        if ((READ_BIT(pll_config, RCC_CFGR_PLLSRC) != RCC_OscInitStruct->PLL.PLLSource) ||
 8001892:	429a      	cmp	r2, r3
 8001894:	d001      	beq.n	800189a <HAL_RCC_OscConfig+0x4f6>
        {
          return HAL_ERROR;
 8001896:	2301      	movs	r3, #1
 8001898:	e000      	b.n	800189c <HAL_RCC_OscConfig+0x4f8>
        }
      }
    }
  }

  return HAL_OK;
 800189a:	2300      	movs	r3, #0
}
 800189c:	4618      	mov	r0, r3
 800189e:	3718      	adds	r7, #24
 80018a0:	46bd      	mov	sp, r7
 80018a2:	bd80      	pop	{r7, pc}
 80018a4:	40021000 	.word	0x40021000

080018a8 <HAL_RCC_ClockConfig>:
  *         You can use @ref HAL_RCC_GetClockConfig() function to know which clock is
  *         currently used as system clock source.
  * @retval HAL status
  */
HAL_StatusTypeDef HAL_RCC_ClockConfig(RCC_ClkInitTypeDef  *RCC_ClkInitStruct, uint32_t FLatency)
{
 80018a8:	b580      	push	{r7, lr}
 80018aa:	b084      	sub	sp, #16
 80018ac:	af00      	add	r7, sp, #0
 80018ae:	6078      	str	r0, [r7, #4]
 80018b0:	6039      	str	r1, [r7, #0]
  uint32_t tickstart;

  /* Check Null pointer */
  if (RCC_ClkInitStruct == NULL)
 80018b2:	687b      	ldr	r3, [r7, #4]
 80018b4:	2b00      	cmp	r3, #0
 80018b6:	d101      	bne.n	80018bc <HAL_RCC_ClockConfig+0x14>
  {
    return HAL_ERROR;
 80018b8:	2301      	movs	r3, #1
 80018ba:	e0d0      	b.n	8001a5e <HAL_RCC_ClockConfig+0x1b6>
  must be correctly programmed according to the frequency of the CPU clock
    (HCLK) of the device. */

#if defined(FLASH_ACR_LATENCY)
  /* Increasing the number of wait states because of higher CPU frequency */
  if (FLatency > __HAL_FLASH_GET_LATENCY())
 80018bc:	4b6a      	ldr	r3, [pc, #424]	@ (8001a68 <HAL_RCC_ClockConfig+0x1c0>)
 80018be:	681b      	ldr	r3, [r3, #0]
 80018c0:	f003 0307 	and.w	r3, r3, #7
 80018c4:	683a      	ldr	r2, [r7, #0]
 80018c6:	429a      	cmp	r2, r3
 80018c8:	d910      	bls.n	80018ec <HAL_RCC_ClockConfig+0x44>
  {
    /* Program the new number of wait states to the LATENCY bits in the FLASH_ACR register */
    __HAL_FLASH_SET_LATENCY(FLatency);
 80018ca:	4b67      	ldr	r3, [pc, #412]	@ (8001a68 <HAL_RCC_ClockConfig+0x1c0>)
 80018cc:	681b      	ldr	r3, [r3, #0]
 80018ce:	f023 0207 	bic.w	r2, r3, #7
 80018d2:	4965      	ldr	r1, [pc, #404]	@ (8001a68 <HAL_RCC_ClockConfig+0x1c0>)
 80018d4:	683b      	ldr	r3, [r7, #0]
 80018d6:	4313      	orrs	r3, r2
 80018d8:	600b      	str	r3, [r1, #0]

    /* Check that the new number of wait states is taken into account to access the Flash
    memory by reading the FLASH_ACR register */
    if (__HAL_FLASH_GET_LATENCY() != FLatency)
 80018da:	4b63      	ldr	r3, [pc, #396]	@ (8001a68 <HAL_RCC_ClockConfig+0x1c0>)
 80018dc:	681b      	ldr	r3, [r3, #0]
 80018de:	f003 0307 	and.w	r3, r3, #7
 80018e2:	683a      	ldr	r2, [r7, #0]
 80018e4:	429a      	cmp	r2, r3
 80018e6:	d001      	beq.n	80018ec <HAL_RCC_ClockConfig+0x44>
  {
    return HAL_ERROR;
 80018e8:	2301      	movs	r3, #1
 80018ea:	e0b8      	b.n	8001a5e <HAL_RCC_ClockConfig+0x1b6>
  }
}

#endif /* FLASH_ACR_LATENCY */
/*-------------------------- HCLK Configuration --------------------------*/
if (((RCC_ClkInitStruct->ClockType) & RCC_CLOCKTYPE_HCLK) == RCC_CLOCKTYPE_HCLK)
 80018ec:	687b      	ldr	r3, [r7, #4]
 80018ee:	681b      	ldr	r3, [r3, #0]
 80018f0:	f003 0302 	and.w	r3, r3, #2
 80018f4:	2b00      	cmp	r3, #0
 80018f6:	d020      	beq.n	800193a <HAL_RCC_ClockConfig+0x92>
  {
    /* Set the highest APBx dividers in order to ensure that we do not go through
    a non-spec phase whatever we decrease or increase HCLK. */
    if (((RCC_ClkInitStruct->ClockType) & RCC_CLOCKTYPE_PCLK1) == RCC_CLOCKTYPE_PCLK1)
 80018f8:	687b      	ldr	r3, [r7, #4]
 80018fa:	681b      	ldr	r3, [r3, #0]
 80018fc:	f003 0304 	and.w	r3, r3, #4
 8001900:	2b00      	cmp	r3, #0
 8001902:	d005      	beq.n	8001910 <HAL_RCC_ClockConfig+0x68>
    {
      MODIFY_REG(RCC->CFGR, RCC_CFGR_PPRE1, RCC_HCLK_DIV16);
 8001904:	4b59      	ldr	r3, [pc, #356]	@ (8001a6c <HAL_RCC_ClockConfig+0x1c4>)
 8001906:	685b      	ldr	r3, [r3, #4]
 8001908:	4a58      	ldr	r2, [pc, #352]	@ (8001a6c <HAL_RCC_ClockConfig+0x1c4>)
 800190a:	f443 63e0 	orr.w	r3, r3, #1792	@ 0x700
 800190e:	6053      	str	r3, [r2, #4]
    }

    if (((RCC_ClkInitStruct->ClockType) & RCC_CLOCKTYPE_PCLK2) == RCC_CLOCKTYPE_PCLK2)
 8001910:	687b      	ldr	r3, [r7, #4]
 8001912:	681b      	ldr	r3, [r3, #0]
 8001914:	f003 0308 	and.w	r3, r3, #8
 8001918:	2b00      	cmp	r3, #0
 800191a:	d005      	beq.n	8001928 <HAL_RCC_ClockConfig+0x80>
    {
      MODIFY_REG(RCC->CFGR, RCC_CFGR_PPRE2, (RCC_HCLK_DIV16 << 3));
 800191c:	4b53      	ldr	r3, [pc, #332]	@ (8001a6c <HAL_RCC_ClockConfig+0x1c4>)
 800191e:	685b      	ldr	r3, [r3, #4]
 8001920:	4a52      	ldr	r2, [pc, #328]	@ (8001a6c <HAL_RCC_ClockConfig+0x1c4>)
 8001922:	f443 5360 	orr.w	r3, r3, #14336	@ 0x3800
 8001926:	6053      	str	r3, [r2, #4]
    }

    /* Set the new HCLK clock divider */
    assert_param(IS_RCC_HCLK(RCC_ClkInitStruct->AHBCLKDivider));
    MODIFY_REG(RCC->CFGR, RCC_CFGR_HPRE, RCC_ClkInitStruct->AHBCLKDivider);
 8001928:	4b50      	ldr	r3, [pc, #320]	@ (8001a6c <HAL_RCC_ClockConfig+0x1c4>)
 800192a:	685b      	ldr	r3, [r3, #4]
 800192c:	f023 02f0 	bic.w	r2, r3, #240	@ 0xf0
 8001930:	687b      	ldr	r3, [r7, #4]
 8001932:	689b      	ldr	r3, [r3, #8]
 8001934:	494d      	ldr	r1, [pc, #308]	@ (8001a6c <HAL_RCC_ClockConfig+0x1c4>)
 8001936:	4313      	orrs	r3, r2
 8001938:	604b      	str	r3, [r1, #4]
  }

  /*------------------------- SYSCLK Configuration ---------------------------*/
  if (((RCC_ClkInitStruct->ClockType) & RCC_CLOCKTYPE_SYSCLK) == RCC_CLOCKTYPE_SYSCLK)
 800193a:	687b      	ldr	r3, [r7, #4]
 800193c:	681b      	ldr	r3, [r3, #0]
 800193e:	f003 0301 	and.w	r3, r3, #1
 8001942:	2b00      	cmp	r3, #0
 8001944:	d040      	beq.n	80019c8 <HAL_RCC_ClockConfig+0x120>
  {
    assert_param(IS_RCC_SYSCLKSOURCE(RCC_ClkInitStruct->SYSCLKSource));

    /* HSE is selected as System Clock Source */
    if (RCC_ClkInitStruct->SYSCLKSource == RCC_SYSCLKSOURCE_HSE)
 8001946:	687b      	ldr	r3, [r7, #4]
 8001948:	685b      	ldr	r3, [r3, #4]
 800194a:	2b01      	cmp	r3, #1
 800194c:	d107      	bne.n	800195e <HAL_RCC_ClockConfig+0xb6>
    {
      /* Check the HSE ready flag */
      if (__HAL_RCC_GET_FLAG(RCC_FLAG_HSERDY) == RESET)
 800194e:	4b47      	ldr	r3, [pc, #284]	@ (8001a6c <HAL_RCC_ClockConfig+0x1c4>)
 8001950:	681b      	ldr	r3, [r3, #0]
 8001952:	f403 3300 	and.w	r3, r3, #131072	@ 0x20000
 8001956:	2b00      	cmp	r3, #0
 8001958:	d115      	bne.n	8001986 <HAL_RCC_ClockConfig+0xde>
      {
        return HAL_ERROR;
 800195a:	2301      	movs	r3, #1
 800195c:	e07f      	b.n	8001a5e <HAL_RCC_ClockConfig+0x1b6>
      }
    }
    /* PLL is selected as System Clock Source */
    else if (RCC_ClkInitStruct->SYSCLKSource == RCC_SYSCLKSOURCE_PLLCLK)
 800195e:	687b      	ldr	r3, [r7, #4]
 8001960:	685b      	ldr	r3, [r3, #4]
 8001962:	2b02      	cmp	r3, #2
 8001964:	d107      	bne.n	8001976 <HAL_RCC_ClockConfig+0xce>
    {
      /* Check the PLL ready flag */
      if (__HAL_RCC_GET_FLAG(RCC_FLAG_PLLRDY) == RESET)
 8001966:	4b41      	ldr	r3, [pc, #260]	@ (8001a6c <HAL_RCC_ClockConfig+0x1c4>)
 8001968:	681b      	ldr	r3, [r3, #0]
 800196a:	f003 7300 	and.w	r3, r3, #33554432	@ 0x2000000
 800196e:	2b00      	cmp	r3, #0
 8001970:	d109      	bne.n	8001986 <HAL_RCC_ClockConfig+0xde>
      {
        return HAL_ERROR;
 8001972:	2301      	movs	r3, #1
 8001974:	e073      	b.n	8001a5e <HAL_RCC_ClockConfig+0x1b6>
    }
    /* HSI is selected as System Clock Source */
    else
    {
      /* Check the HSI ready flag */
      if (__HAL_RCC_GET_FLAG(RCC_FLAG_HSIRDY) == RESET)
 8001976:	4b3d      	ldr	r3, [pc, #244]	@ (8001a6c <HAL_RCC_ClockConfig+0x1c4>)
 8001978:	681b      	ldr	r3, [r3, #0]
 800197a:	f003 0302 	and.w	r3, r3, #2
 800197e:	2b00      	cmp	r3, #0
 8001980:	d101      	bne.n	8001986 <HAL_RCC_ClockConfig+0xde>
      {
        return HAL_ERROR;
 8001982:	2301      	movs	r3, #1
 8001984:	e06b      	b.n	8001a5e <HAL_RCC_ClockConfig+0x1b6>
      }
    }
    __HAL_RCC_SYSCLK_CONFIG(RCC_ClkInitStruct->SYSCLKSource);
 8001986:	4b39      	ldr	r3, [pc, #228]	@ (8001a6c <HAL_RCC_ClockConfig+0x1c4>)
 8001988:	685b      	ldr	r3, [r3, #4]
 800198a:	f023 0203 	bic.w	r2, r3, #3
 800198e:	687b      	ldr	r3, [r7, #4]
 8001990:	685b      	ldr	r3, [r3, #4]
 8001992:	4936      	ldr	r1, [pc, #216]	@ (8001a6c <HAL_RCC_ClockConfig+0x1c4>)
 8001994:	4313      	orrs	r3, r2
 8001996:	604b      	str	r3, [r1, #4]

    /* Get Start Tick */
    tickstart = HAL_GetTick();
 8001998:	f7ff f960 	bl	8000c5c <HAL_GetTick>
 800199c:	60f8      	str	r0, [r7, #12]

    while (__HAL_RCC_GET_SYSCLK_SOURCE() != (RCC_ClkInitStruct->SYSCLKSource << RCC_CFGR_SWS_Pos))
 800199e:	e00a      	b.n	80019b6 <HAL_RCC_ClockConfig+0x10e>
    {
      if ((HAL_GetTick() - tickstart) > CLOCKSWITCH_TIMEOUT_VALUE)
 80019a0:	f7ff f95c 	bl	8000c5c <HAL_GetTick>
 80019a4:	4602      	mov	r2, r0
 80019a6:	68fb      	ldr	r3, [r7, #12]
 80019a8:	1ad3      	subs	r3, r2, r3
 80019aa:	f241 3288 	movw	r2, #5000	@ 0x1388
 80019ae:	4293      	cmp	r3, r2
 80019b0:	d901      	bls.n	80019b6 <HAL_RCC_ClockConfig+0x10e>
      {
        return HAL_TIMEOUT;
 80019b2:	2303      	movs	r3, #3
 80019b4:	e053      	b.n	8001a5e <HAL_RCC_ClockConfig+0x1b6>
    while (__HAL_RCC_GET_SYSCLK_SOURCE() != (RCC_ClkInitStruct->SYSCLKSource << RCC_CFGR_SWS_Pos))
 80019b6:	4b2d      	ldr	r3, [pc, #180]	@ (8001a6c <HAL_RCC_ClockConfig+0x1c4>)
 80019b8:	685b      	ldr	r3, [r3, #4]
 80019ba:	f003 020c 	and.w	r2, r3, #12
 80019be:	687b      	ldr	r3, [r7, #4]
 80019c0:	685b      	ldr	r3, [r3, #4]
 80019c2:	009b      	lsls	r3, r3, #2
 80019c4:	429a      	cmp	r2, r3
 80019c6:	d1eb      	bne.n	80019a0 <HAL_RCC_ClockConfig+0xf8>
    }
  }

#if defined(FLASH_ACR_LATENCY)
  /* Decreasing the number of wait states because of lower CPU frequency */
  if (FLatency < __HAL_FLASH_GET_LATENCY())
 80019c8:	4b27      	ldr	r3, [pc, #156]	@ (8001a68 <HAL_RCC_ClockConfig+0x1c0>)
 80019ca:	681b      	ldr	r3, [r3, #0]
 80019cc:	f003 0307 	and.w	r3, r3, #7
 80019d0:	683a      	ldr	r2, [r7, #0]
 80019d2:	429a      	cmp	r2, r3
 80019d4:	d210      	bcs.n	80019f8 <HAL_RCC_ClockConfig+0x150>
  {
    /* Program the new number of wait states to the LATENCY bits in the FLASH_ACR register */
    __HAL_FLASH_SET_LATENCY(FLatency);
 80019d6:	4b24      	ldr	r3, [pc, #144]	@ (8001a68 <HAL_RCC_ClockConfig+0x1c0>)
 80019d8:	681b      	ldr	r3, [r3, #0]
 80019da:	f023 0207 	bic.w	r2, r3, #7
 80019de:	4922      	ldr	r1, [pc, #136]	@ (8001a68 <HAL_RCC_ClockConfig+0x1c0>)
 80019e0:	683b      	ldr	r3, [r7, #0]
 80019e2:	4313      	orrs	r3, r2
 80019e4:	600b      	str	r3, [r1, #0]

    /* Check that the new number of wait states is taken into account to access the Flash
    memory by reading the FLASH_ACR register */
    if (__HAL_FLASH_GET_LATENCY() != FLatency)
 80019e6:	4b20      	ldr	r3, [pc, #128]	@ (8001a68 <HAL_RCC_ClockConfig+0x1c0>)
 80019e8:	681b      	ldr	r3, [r3, #0]
 80019ea:	f003 0307 	and.w	r3, r3, #7
 80019ee:	683a      	ldr	r2, [r7, #0]
 80019f0:	429a      	cmp	r2, r3
 80019f2:	d001      	beq.n	80019f8 <HAL_RCC_ClockConfig+0x150>
  {
    return HAL_ERROR;
 80019f4:	2301      	movs	r3, #1
 80019f6:	e032      	b.n	8001a5e <HAL_RCC_ClockConfig+0x1b6>
  }
}
#endif /* FLASH_ACR_LATENCY */

/*-------------------------- PCLK1 Configuration ---------------------------*/
if (((RCC_ClkInitStruct->ClockType) & RCC_CLOCKTYPE_PCLK1) == RCC_CLOCKTYPE_PCLK1)
 80019f8:	687b      	ldr	r3, [r7, #4]
 80019fa:	681b      	ldr	r3, [r3, #0]
 80019fc:	f003 0304 	and.w	r3, r3, #4
 8001a00:	2b00      	cmp	r3, #0
 8001a02:	d008      	beq.n	8001a16 <HAL_RCC_ClockConfig+0x16e>
  {
    assert_param(IS_RCC_PCLK(RCC_ClkInitStruct->APB1CLKDivider));
    MODIFY_REG(RCC->CFGR, RCC_CFGR_PPRE1, RCC_ClkInitStruct->APB1CLKDivider);
 8001a04:	4b19      	ldr	r3, [pc, #100]	@ (8001a6c <HAL_RCC_ClockConfig+0x1c4>)
 8001a06:	685b      	ldr	r3, [r3, #4]
 8001a08:	f423 62e0 	bic.w	r2, r3, #1792	@ 0x700
 8001a0c:	687b      	ldr	r3, [r7, #4]
 8001a0e:	68db      	ldr	r3, [r3, #12]
 8001a10:	4916      	ldr	r1, [pc, #88]	@ (8001a6c <HAL_RCC_ClockConfig+0x1c4>)
 8001a12:	4313      	orrs	r3, r2
 8001a14:	604b      	str	r3, [r1, #4]
  }

  /*-------------------------- PCLK2 Configuration ---------------------------*/
  if (((RCC_ClkInitStruct->ClockType) & RCC_CLOCKTYPE_PCLK2) == RCC_CLOCKTYPE_PCLK2)
 8001a16:	687b      	ldr	r3, [r7, #4]
 8001a18:	681b      	ldr	r3, [r3, #0]
 8001a1a:	f003 0308 	and.w	r3, r3, #8
 8001a1e:	2b00      	cmp	r3, #0
 8001a20:	d009      	beq.n	8001a36 <HAL_RCC_ClockConfig+0x18e>
  {
    assert_param(IS_RCC_PCLK(RCC_ClkInitStruct->APB2CLKDivider));
    MODIFY_REG(RCC->CFGR, RCC_CFGR_PPRE2, ((RCC_ClkInitStruct->APB2CLKDivider) << 3));
 8001a22:	4b12      	ldr	r3, [pc, #72]	@ (8001a6c <HAL_RCC_ClockConfig+0x1c4>)
 8001a24:	685b      	ldr	r3, [r3, #4]
 8001a26:	f423 5260 	bic.w	r2, r3, #14336	@ 0x3800
 8001a2a:	687b      	ldr	r3, [r7, #4]
 8001a2c:	691b      	ldr	r3, [r3, #16]
 8001a2e:	00db      	lsls	r3, r3, #3
 8001a30:	490e      	ldr	r1, [pc, #56]	@ (8001a6c <HAL_RCC_ClockConfig+0x1c4>)
 8001a32:	4313      	orrs	r3, r2
 8001a34:	604b      	str	r3, [r1, #4]
  }

  /* Update the SystemCoreClock global variable */
  SystemCoreClock = HAL_RCC_GetSysClockFreq() >> AHBPrescTable[(RCC->CFGR & RCC_CFGR_HPRE) >> RCC_CFGR_HPRE_Pos];
 8001a36:	f000 f821 	bl	8001a7c <HAL_RCC_GetSysClockFreq>
 8001a3a:	4602      	mov	r2, r0
 8001a3c:	4b0b      	ldr	r3, [pc, #44]	@ (8001a6c <HAL_RCC_ClockConfig+0x1c4>)
 8001a3e:	685b      	ldr	r3, [r3, #4]
 8001a40:	091b      	lsrs	r3, r3, #4
 8001a42:	f003 030f 	and.w	r3, r3, #15
 8001a46:	490a      	ldr	r1, [pc, #40]	@ (8001a70 <HAL_RCC_ClockConfig+0x1c8>)
 8001a48:	5ccb      	ldrb	r3, [r1, r3]
 8001a4a:	fa22 f303 	lsr.w	r3, r2, r3
 8001a4e:	4a09      	ldr	r2, [pc, #36]	@ (8001a74 <HAL_RCC_ClockConfig+0x1cc>)
 8001a50:	6013      	str	r3, [r2, #0]

  /* Configure the source of time base considering new system clocks settings*/
  HAL_InitTick(uwTickPrio);
 8001a52:	4b09      	ldr	r3, [pc, #36]	@ (8001a78 <HAL_RCC_ClockConfig+0x1d0>)
 8001a54:	681b      	ldr	r3, [r3, #0]
 8001a56:	4618      	mov	r0, r3
 8001a58:	f7ff f8be 	bl	8000bd8 <HAL_InitTick>

  return HAL_OK;
 8001a5c:	2300      	movs	r3, #0
}
 8001a5e:	4618      	mov	r0, r3
 8001a60:	3710      	adds	r7, #16
 8001a62:	46bd      	mov	sp, r7
 8001a64:	bd80      	pop	{r7, pc}
 8001a66:	bf00      	nop
 8001a68:	40022000 	.word	0x40022000
 8001a6c:	40021000 	.word	0x40021000
 8001a70:	08002754 	.word	0x08002754
 8001a74:	2000010c 	.word	0x2000010c
 8001a78:	20000110 	.word	0x20000110

08001a7c <HAL_RCC_GetSysClockFreq>:
  *         right SYSCLK value. Otherwise, any configuration based on this function will be incorrect.
  *
  * @retval SYSCLK frequency
  */
uint32_t HAL_RCC_GetSysClockFreq(void)
{
 8001a7c:	b480      	push	{r7}
 8001a7e:	b087      	sub	sp, #28
 8001a80:	af00      	add	r7, sp, #0
#else
  static const uint8_t aPredivFactorTable[2U] = {1, 2};
#endif /*RCC_CFGR2_PREDIV1*/

#endif
  uint32_t tmpreg = 0U, prediv = 0U, pllclk = 0U, pllmul = 0U;
 8001a82:	2300      	movs	r3, #0
 8001a84:	60fb      	str	r3, [r7, #12]
 8001a86:	2300      	movs	r3, #0
 8001a88:	60bb      	str	r3, [r7, #8]
 8001a8a:	2300      	movs	r3, #0
 8001a8c:	617b      	str	r3, [r7, #20]
 8001a8e:	2300      	movs	r3, #0
 8001a90:	607b      	str	r3, [r7, #4]
  uint32_t sysclockfreq = 0U;
 8001a92:	2300      	movs	r3, #0
 8001a94:	613b      	str	r3, [r7, #16]
#if defined(RCC_CFGR2_PREDIV1SRC)
  uint32_t prediv2 = 0U, pll2mul = 0U;
#endif /*RCC_CFGR2_PREDIV1SRC*/

  tmpreg = RCC->CFGR;
 8001a96:	4b1e      	ldr	r3, [pc, #120]	@ (8001b10 <HAL_RCC_GetSysClockFreq+0x94>)
 8001a98:	685b      	ldr	r3, [r3, #4]
 8001a9a:	60fb      	str	r3, [r7, #12]

  /* Get SYSCLK source -------------------------------------------------------*/
  switch (tmpreg & RCC_CFGR_SWS)
 8001a9c:	68fb      	ldr	r3, [r7, #12]
 8001a9e:	f003 030c 	and.w	r3, r3, #12
 8001aa2:	2b04      	cmp	r3, #4
 8001aa4:	d002      	beq.n	8001aac <HAL_RCC_GetSysClockFreq+0x30>
 8001aa6:	2b08      	cmp	r3, #8
 8001aa8:	d003      	beq.n	8001ab2 <HAL_RCC_GetSysClockFreq+0x36>
 8001aaa:	e027      	b.n	8001afc <HAL_RCC_GetSysClockFreq+0x80>
  {
    case RCC_SYSCLKSOURCE_STATUS_HSE:  /* HSE used as system clock */
    {
      sysclockfreq = HSE_VALUE;
 8001aac:	4b19      	ldr	r3, [pc, #100]	@ (8001b14 <HAL_RCC_GetSysClockFreq+0x98>)
 8001aae:	613b      	str	r3, [r7, #16]
      break;
 8001ab0:	e027      	b.n	8001b02 <HAL_RCC_GetSysClockFreq+0x86>
    }
    case RCC_SYSCLKSOURCE_STATUS_PLLCLK:  /* PLL used as system clock */
    {
      pllmul = aPLLMULFactorTable[(uint32_t)(tmpreg & RCC_CFGR_PLLMULL) >> RCC_CFGR_PLLMULL_Pos];
 8001ab2:	68fb      	ldr	r3, [r7, #12]
 8001ab4:	0c9b      	lsrs	r3, r3, #18
 8001ab6:	f003 030f 	and.w	r3, r3, #15
 8001aba:	4a17      	ldr	r2, [pc, #92]	@ (8001b18 <HAL_RCC_GetSysClockFreq+0x9c>)
 8001abc:	5cd3      	ldrb	r3, [r2, r3]
 8001abe:	607b      	str	r3, [r7, #4]
      if ((tmpreg & RCC_CFGR_PLLSRC) != RCC_PLLSOURCE_HSI_DIV2)
 8001ac0:	68fb      	ldr	r3, [r7, #12]
 8001ac2:	f403 3380 	and.w	r3, r3, #65536	@ 0x10000
 8001ac6:	2b00      	cmp	r3, #0
 8001ac8:	d010      	beq.n	8001aec <HAL_RCC_GetSysClockFreq+0x70>
      {
#if defined(RCC_CFGR2_PREDIV1)
        prediv = aPredivFactorTable[(uint32_t)(RCC->CFGR2 & RCC_CFGR2_PREDIV1) >> RCC_CFGR2_PREDIV1_Pos];
#else
        prediv = aPredivFactorTable[(uint32_t)(RCC->CFGR & RCC_CFGR_PLLXTPRE) >> RCC_CFGR_PLLXTPRE_Pos];
 8001aca:	4b11      	ldr	r3, [pc, #68]	@ (8001b10 <HAL_RCC_GetSysClockFreq+0x94>)
 8001acc:	685b      	ldr	r3, [r3, #4]
 8001ace:	0c5b      	lsrs	r3, r3, #17
 8001ad0:	f003 0301 	and.w	r3, r3, #1
 8001ad4:	4a11      	ldr	r2, [pc, #68]	@ (8001b1c <HAL_RCC_GetSysClockFreq+0xa0>)
 8001ad6:	5cd3      	ldrb	r3, [r2, r3]
 8001ad8:	60bb      	str	r3, [r7, #8]
        {
          pllclk = pllclk / 2;
        }
#else
        /* HSE used as PLL clock source : PLLCLK = HSE/PREDIV1 * PLLMUL */
        pllclk = (uint32_t)((HSE_VALUE  * pllmul) / prediv);
 8001ada:	687b      	ldr	r3, [r7, #4]
 8001adc:	4a0d      	ldr	r2, [pc, #52]	@ (8001b14 <HAL_RCC_GetSysClockFreq+0x98>)
 8001ade:	fb03 f202 	mul.w	r2, r3, r2
 8001ae2:	68bb      	ldr	r3, [r7, #8]
 8001ae4:	fbb2 f3f3 	udiv	r3, r2, r3
 8001ae8:	617b      	str	r3, [r7, #20]
 8001aea:	e004      	b.n	8001af6 <HAL_RCC_GetSysClockFreq+0x7a>
#endif /*RCC_CFGR2_PREDIV1SRC*/
      }
      else
      {
        /* HSI used as PLL clock source : PLLCLK = HSI/2 * PLLMUL */
        pllclk = (uint32_t)((HSI_VALUE >> 1) * pllmul);
 8001aec:	687b      	ldr	r3, [r7, #4]
 8001aee:	4a0c      	ldr	r2, [pc, #48]	@ (8001b20 <HAL_RCC_GetSysClockFreq+0xa4>)
 8001af0:	fb02 f303 	mul.w	r3, r2, r3
 8001af4:	617b      	str	r3, [r7, #20]
      }
      sysclockfreq = pllclk;
 8001af6:	697b      	ldr	r3, [r7, #20]
 8001af8:	613b      	str	r3, [r7, #16]
      break;
 8001afa:	e002      	b.n	8001b02 <HAL_RCC_GetSysClockFreq+0x86>
    }
    case RCC_SYSCLKSOURCE_STATUS_HSI:  /* HSI used as system clock source */
    default: /* HSI used as system clock */
    {
      sysclockfreq = HSI_VALUE;
 8001afc:	4b05      	ldr	r3, [pc, #20]	@ (8001b14 <HAL_RCC_GetSysClockFreq+0x98>)
 8001afe:	613b      	str	r3, [r7, #16]
      break;
 8001b00:	bf00      	nop
    }
  }
  return sysclockfreq;
 8001b02:	693b      	ldr	r3, [r7, #16]
}
 8001b04:	4618      	mov	r0, r3
 8001b06:	371c      	adds	r7, #28
 8001b08:	46bd      	mov	sp, r7
 8001b0a:	bc80      	pop	{r7}
 8001b0c:	4770      	bx	lr
 8001b0e:	bf00      	nop
 8001b10:	40021000 	.word	0x40021000
 8001b14:	007a1200 	.word	0x007a1200
 8001b18:	0800276c 	.word	0x0800276c
 8001b1c:	0800277c 	.word	0x0800277c
 8001b20:	003d0900 	.word	0x003d0900

08001b24 <HAL_RCC_GetHCLKFreq>:
  * @note   The SystemCoreClock CMSIS variable is used to store System Clock Frequency
  *         and updated within this function
  * @retval HCLK frequency
  */
uint32_t HAL_RCC_GetHCLKFreq(void)
{
 8001b24:	b480      	push	{r7}
 8001b26:	af00      	add	r7, sp, #0
  return SystemCoreClock;
 8001b28:	4b02      	ldr	r3, [pc, #8]	@ (8001b34 <HAL_RCC_GetHCLKFreq+0x10>)
 8001b2a:	681b      	ldr	r3, [r3, #0]
}
 8001b2c:	4618      	mov	r0, r3
 8001b2e:	46bd      	mov	sp, r7
 8001b30:	bc80      	pop	{r7}
 8001b32:	4770      	bx	lr
 8001b34:	2000010c 	.word	0x2000010c

08001b38 <HAL_RCC_GetPCLK1Freq>:
  * @note   Each time PCLK1 changes, this function must be called to update the
  *         right PCLK1 value. Otherwise, any configuration based on this function will be incorrect.
  * @retval PCLK1 frequency
  */
uint32_t HAL_RCC_GetPCLK1Freq(void)
{
 8001b38:	b580      	push	{r7, lr}
 8001b3a:	af00      	add	r7, sp, #0
  /* Get HCLK source and Compute PCLK1 frequency ---------------------------*/
  return (HAL_RCC_GetHCLKFreq() >> APBPrescTable[(RCC->CFGR & RCC_CFGR_PPRE1) >> RCC_CFGR_PPRE1_Pos]);
 8001b3c:	f7ff fff2 	bl	8001b24 <HAL_RCC_GetHCLKFreq>
 8001b40:	4602      	mov	r2, r0
 8001b42:	4b05      	ldr	r3, [pc, #20]	@ (8001b58 <HAL_RCC_GetPCLK1Freq+0x20>)
 8001b44:	685b      	ldr	r3, [r3, #4]
 8001b46:	0a1b      	lsrs	r3, r3, #8
 8001b48:	f003 0307 	and.w	r3, r3, #7
 8001b4c:	4903      	ldr	r1, [pc, #12]	@ (8001b5c <HAL_RCC_GetPCLK1Freq+0x24>)
 8001b4e:	5ccb      	ldrb	r3, [r1, r3]
 8001b50:	fa22 f303 	lsr.w	r3, r2, r3
}
 8001b54:	4618      	mov	r0, r3
 8001b56:	bd80      	pop	{r7, pc}
 8001b58:	40021000 	.word	0x40021000
 8001b5c:	08002764 	.word	0x08002764

08001b60 <HAL_RCC_GetPCLK2Freq>:
  * @note   Each time PCLK2 changes, this function must be called to update the
  *         right PCLK2 value. Otherwise, any configuration based on this function will be incorrect.
  * @retval PCLK2 frequency
  */
uint32_t HAL_RCC_GetPCLK2Freq(void)
{
 8001b60:	b580      	push	{r7, lr}
 8001b62:	af00      	add	r7, sp, #0
  /* Get HCLK source and Compute PCLK2 frequency ---------------------------*/
  return (HAL_RCC_GetHCLKFreq() >> APBPrescTable[(RCC->CFGR & RCC_CFGR_PPRE2) >> RCC_CFGR_PPRE2_Pos]);
 8001b64:	f7ff ffde 	bl	8001b24 <HAL_RCC_GetHCLKFreq>
 8001b68:	4602      	mov	r2, r0
 8001b6a:	4b05      	ldr	r3, [pc, #20]	@ (8001b80 <HAL_RCC_GetPCLK2Freq+0x20>)
 8001b6c:	685b      	ldr	r3, [r3, #4]
 8001b6e:	0adb      	lsrs	r3, r3, #11
 8001b70:	f003 0307 	and.w	r3, r3, #7
 8001b74:	4903      	ldr	r1, [pc, #12]	@ (8001b84 <HAL_RCC_GetPCLK2Freq+0x24>)
 8001b76:	5ccb      	ldrb	r3, [r1, r3]
 8001b78:	fa22 f303 	lsr.w	r3, r2, r3
}
 8001b7c:	4618      	mov	r0, r3
 8001b7e:	bd80      	pop	{r7, pc}
 8001b80:	40021000 	.word	0x40021000
 8001b84:	08002764 	.word	0x08002764

08001b88 <RCC_Delay>:
  * @brief  This function provides delay (in milliseconds) based on CPU cycles method.
  * @param  mdelay: specifies the delay time length, in milliseconds.
  * @retval None
  */
static void RCC_Delay(uint32_t mdelay)
{
 8001b88:	b480      	push	{r7}
 8001b8a:	b085      	sub	sp, #20
 8001b8c:	af00      	add	r7, sp, #0
 8001b8e:	6078      	str	r0, [r7, #4]
  __IO uint32_t Delay = mdelay * (SystemCoreClock / 8U / 1000U);
 8001b90:	4b0a      	ldr	r3, [pc, #40]	@ (8001bbc <RCC_Delay+0x34>)
 8001b92:	681b      	ldr	r3, [r3, #0]
 8001b94:	4a0a      	ldr	r2, [pc, #40]	@ (8001bc0 <RCC_Delay+0x38>)
 8001b96:	fba2 2303 	umull	r2, r3, r2, r3
 8001b9a:	0a5b      	lsrs	r3, r3, #9
 8001b9c:	687a      	ldr	r2, [r7, #4]
 8001b9e:	fb02 f303 	mul.w	r3, r2, r3
 8001ba2:	60fb      	str	r3, [r7, #12]
  do
  {
    __NOP();
 8001ba4:	bf00      	nop
  }
  while (Delay --);
 8001ba6:	68fb      	ldr	r3, [r7, #12]
 8001ba8:	1e5a      	subs	r2, r3, #1
 8001baa:	60fa      	str	r2, [r7, #12]
 8001bac:	2b00      	cmp	r3, #0
 8001bae:	d1f9      	bne.n	8001ba4 <RCC_Delay+0x1c>
}
 8001bb0:	bf00      	nop
 8001bb2:	bf00      	nop
 8001bb4:	3714      	adds	r7, #20
 8001bb6:	46bd      	mov	sp, r7
 8001bb8:	bc80      	pop	{r7}
 8001bba:	4770      	bx	lr
 8001bbc:	2000010c 	.word	0x2000010c
 8001bc0:	10624dd3 	.word	0x10624dd3

08001bc4 <HAL_UART_Init>:
  * @param  huart  Pointer to a UART_HandleTypeDef structure that contains
  *                the configuration information for the specified UART module.
  * @retval HAL status
  */
HAL_StatusTypeDef HAL_UART_Init(UART_HandleTypeDef *huart)
{
 8001bc4:	b580      	push	{r7, lr}
 8001bc6:	b082      	sub	sp, #8
 8001bc8:	af00      	add	r7, sp, #0
 8001bca:	6078      	str	r0, [r7, #4]
  /* Check the UART handle allocation */
  if (huart == NULL)
 8001bcc:	687b      	ldr	r3, [r7, #4]
 8001bce:	2b00      	cmp	r3, #0
 8001bd0:	d101      	bne.n	8001bd6 <HAL_UART_Init+0x12>
  {
    return HAL_ERROR;
 8001bd2:	2301      	movs	r3, #1
 8001bd4:	e042      	b.n	8001c5c <HAL_UART_Init+0x98>
  assert_param(IS_UART_WORD_LENGTH(huart->Init.WordLength));
#if defined(USART_CR1_OVER8)
  assert_param(IS_UART_OVERSAMPLING(huart->Init.OverSampling));
#endif /* USART_CR1_OVER8 */

  if (huart->gState == HAL_UART_STATE_RESET)
 8001bd6:	687b      	ldr	r3, [r7, #4]
 8001bd8:	f893 3041 	ldrb.w	r3, [r3, #65]	@ 0x41
 8001bdc:	b2db      	uxtb	r3, r3
 8001bde:	2b00      	cmp	r3, #0
 8001be0:	d106      	bne.n	8001bf0 <HAL_UART_Init+0x2c>
  {
    /* Allocate lock resource and initialize it */
    huart->Lock = HAL_UNLOCKED;
 8001be2:	687b      	ldr	r3, [r7, #4]
 8001be4:	2200      	movs	r2, #0
 8001be6:	f883 2040 	strb.w	r2, [r3, #64]	@ 0x40

    /* Init the low level hardware */
    huart->MspInitCallback(huart);
#else
    /* Init the low level hardware : GPIO, CLOCK */
    HAL_UART_MspInit(huart);
 8001bea:	6878      	ldr	r0, [r7, #4]
 8001bec:	f7fe ff64 	bl	8000ab8 <HAL_UART_MspInit>
#endif /* (USE_HAL_UART_REGISTER_CALLBACKS) */
  }

  huart->gState = HAL_UART_STATE_BUSY;
 8001bf0:	687b      	ldr	r3, [r7, #4]
 8001bf2:	2224      	movs	r2, #36	@ 0x24
 8001bf4:	f883 2041 	strb.w	r2, [r3, #65]	@ 0x41

  /* Disable the peripheral */
  __HAL_UART_DISABLE(huart);
 8001bf8:	687b      	ldr	r3, [r7, #4]
 8001bfa:	681b      	ldr	r3, [r3, #0]
 8001bfc:	68da      	ldr	r2, [r3, #12]
 8001bfe:	687b      	ldr	r3, [r7, #4]
 8001c00:	681b      	ldr	r3, [r3, #0]
 8001c02:	f422 5200 	bic.w	r2, r2, #8192	@ 0x2000
 8001c06:	60da      	str	r2, [r3, #12]

  /* Set the UART Communication parameters */
  UART_SetConfig(huart);
 8001c08:	6878      	ldr	r0, [r7, #4]
 8001c0a:	f000 fcd5 	bl	80025b8 <UART_SetConfig>

  /* In asynchronous mode, the following bits must be kept cleared:
     - LINEN and CLKEN bits in the USART_CR2 register,
     - SCEN, HDSEL and IREN  bits in the USART_CR3 register.*/
  CLEAR_BIT(huart->Instance->CR2, (USART_CR2_LINEN | USART_CR2_CLKEN));
 8001c0e:	687b      	ldr	r3, [r7, #4]
 8001c10:	681b      	ldr	r3, [r3, #0]
 8001c12:	691a      	ldr	r2, [r3, #16]
 8001c14:	687b      	ldr	r3, [r7, #4]
 8001c16:	681b      	ldr	r3, [r3, #0]
 8001c18:	f422 4290 	bic.w	r2, r2, #18432	@ 0x4800
 8001c1c:	611a      	str	r2, [r3, #16]
  CLEAR_BIT(huart->Instance->CR3, (USART_CR3_SCEN | USART_CR3_HDSEL | USART_CR3_IREN));
 8001c1e:	687b      	ldr	r3, [r7, #4]
 8001c20:	681b      	ldr	r3, [r3, #0]
 8001c22:	695a      	ldr	r2, [r3, #20]
 8001c24:	687b      	ldr	r3, [r7, #4]
 8001c26:	681b      	ldr	r3, [r3, #0]
 8001c28:	f022 022a 	bic.w	r2, r2, #42	@ 0x2a
 8001c2c:	615a      	str	r2, [r3, #20]

  /* Enable the peripheral */
  __HAL_UART_ENABLE(huart);
 8001c2e:	687b      	ldr	r3, [r7, #4]
 8001c30:	681b      	ldr	r3, [r3, #0]
 8001c32:	68da      	ldr	r2, [r3, #12]
 8001c34:	687b      	ldr	r3, [r7, #4]
 8001c36:	681b      	ldr	r3, [r3, #0]
 8001c38:	f442 5200 	orr.w	r2, r2, #8192	@ 0x2000
 8001c3c:	60da      	str	r2, [r3, #12]

  /* Initialize the UART state */
  huart->ErrorCode = HAL_UART_ERROR_NONE;
 8001c3e:	687b      	ldr	r3, [r7, #4]
 8001c40:	2200      	movs	r2, #0
 8001c42:	645a      	str	r2, [r3, #68]	@ 0x44
  huart->gState = HAL_UART_STATE_READY;
 8001c44:	687b      	ldr	r3, [r7, #4]
 8001c46:	2220      	movs	r2, #32
 8001c48:	f883 2041 	strb.w	r2, [r3, #65]	@ 0x41
  huart->RxState = HAL_UART_STATE_READY;
 8001c4c:	687b      	ldr	r3, [r7, #4]
 8001c4e:	2220      	movs	r2, #32
 8001c50:	f883 2042 	strb.w	r2, [r3, #66]	@ 0x42
  huart->RxEventType = HAL_UART_RXEVENT_TC;
 8001c54:	687b      	ldr	r3, [r7, #4]
 8001c56:	2200      	movs	r2, #0
 8001c58:	635a      	str	r2, [r3, #52]	@ 0x34

  return HAL_OK;
 8001c5a:	2300      	movs	r3, #0
}
 8001c5c:	4618      	mov	r0, r3
 8001c5e:	3708      	adds	r7, #8
 8001c60:	46bd      	mov	sp, r7
 8001c62:	bd80      	pop	{r7, pc}

08001c64 <HAL_UART_Receive_IT>:
  * @param  pData Pointer to data buffer (u8 or u16 data elements).
  * @param  Size  Amount of data elements (u8 or u16) to be received.
  * @retval HAL status
  */
HAL_StatusTypeDef HAL_UART_Receive_IT(UART_HandleTypeDef *huart, uint8_t *pData, uint16_t Size)
{
 8001c64:	b580      	push	{r7, lr}
 8001c66:	b084      	sub	sp, #16
 8001c68:	af00      	add	r7, sp, #0
 8001c6a:	60f8      	str	r0, [r7, #12]
 8001c6c:	60b9      	str	r1, [r7, #8]
 8001c6e:	4613      	mov	r3, r2
 8001c70:	80fb      	strh	r3, [r7, #6]
  /* Check that a Rx process is not already ongoing */
  if (huart->RxState == HAL_UART_STATE_READY)
 8001c72:	68fb      	ldr	r3, [r7, #12]
 8001c74:	f893 3042 	ldrb.w	r3, [r3, #66]	@ 0x42
 8001c78:	b2db      	uxtb	r3, r3
 8001c7a:	2b20      	cmp	r3, #32
 8001c7c:	d112      	bne.n	8001ca4 <HAL_UART_Receive_IT+0x40>
  {
    if ((pData == NULL) || (Size == 0U))
 8001c7e:	68bb      	ldr	r3, [r7, #8]
 8001c80:	2b00      	cmp	r3, #0
 8001c82:	d002      	beq.n	8001c8a <HAL_UART_Receive_IT+0x26>
 8001c84:	88fb      	ldrh	r3, [r7, #6]
 8001c86:	2b00      	cmp	r3, #0
 8001c88:	d101      	bne.n	8001c8e <HAL_UART_Receive_IT+0x2a>
    {
      return HAL_ERROR;
 8001c8a:	2301      	movs	r3, #1
 8001c8c:	e00b      	b.n	8001ca6 <HAL_UART_Receive_IT+0x42>
    }

    /* Set Reception type to Standard reception */
    huart->ReceptionType = HAL_UART_RECEPTION_STANDARD;
 8001c8e:	68fb      	ldr	r3, [r7, #12]
 8001c90:	2200      	movs	r2, #0
 8001c92:	631a      	str	r2, [r3, #48]	@ 0x30

    return (UART_Start_Receive_IT(huart, pData, Size));
 8001c94:	88fb      	ldrh	r3, [r7, #6]
 8001c96:	461a      	mov	r2, r3
 8001c98:	68b9      	ldr	r1, [r7, #8]
 8001c9a:	68f8      	ldr	r0, [r7, #12]
 8001c9c:	f000 fab7 	bl	800220e <UART_Start_Receive_IT>
 8001ca0:	4603      	mov	r3, r0
 8001ca2:	e000      	b.n	8001ca6 <HAL_UART_Receive_IT+0x42>
  }
  else
  {
    return HAL_BUSY;
 8001ca4:	2302      	movs	r3, #2
  }
}
 8001ca6:	4618      	mov	r0, r3
 8001ca8:	3710      	adds	r7, #16
 8001caa:	46bd      	mov	sp, r7
 8001cac:	bd80      	pop	{r7, pc}
	...

08001cb0 <HAL_UART_IRQHandler>:
  * @param  huart  Pointer to a UART_HandleTypeDef structure that contains
  *                the configuration information for the specified UART module.
  * @retval None
  */
void HAL_UART_IRQHandler(UART_HandleTypeDef *huart)
{
 8001cb0:	b580      	push	{r7, lr}
 8001cb2:	b0ba      	sub	sp, #232	@ 0xe8
 8001cb4:	af00      	add	r7, sp, #0
 8001cb6:	6078      	str	r0, [r7, #4]
  uint32_t isrflags   = READ_REG(huart->Instance->SR);
 8001cb8:	687b      	ldr	r3, [r7, #4]
 8001cba:	681b      	ldr	r3, [r3, #0]
 8001cbc:	681b      	ldr	r3, [r3, #0]
 8001cbe:	f8c7 30e4 	str.w	r3, [r7, #228]	@ 0xe4
  uint32_t cr1its     = READ_REG(huart->Instance->CR1);
 8001cc2:	687b      	ldr	r3, [r7, #4]
 8001cc4:	681b      	ldr	r3, [r3, #0]
 8001cc6:	68db      	ldr	r3, [r3, #12]
 8001cc8:	f8c7 30e0 	str.w	r3, [r7, #224]	@ 0xe0
  uint32_t cr3its     = READ_REG(huart->Instance->CR3);
 8001ccc:	687b      	ldr	r3, [r7, #4]
 8001cce:	681b      	ldr	r3, [r3, #0]
 8001cd0:	695b      	ldr	r3, [r3, #20]
 8001cd2:	f8c7 30dc 	str.w	r3, [r7, #220]	@ 0xdc
  uint32_t errorflags = 0x00U;
 8001cd6:	2300      	movs	r3, #0
 8001cd8:	f8c7 30d8 	str.w	r3, [r7, #216]	@ 0xd8
  uint32_t dmarequest = 0x00U;
 8001cdc:	2300      	movs	r3, #0
 8001cde:	f8c7 30d4 	str.w	r3, [r7, #212]	@ 0xd4

  /* If no error occurs */
  errorflags = (isrflags & (uint32_t)(USART_SR_PE | USART_SR_FE | USART_SR_ORE | USART_SR_NE));
 8001ce2:	f8d7 30e4 	ldr.w	r3, [r7, #228]	@ 0xe4
 8001ce6:	f003 030f 	and.w	r3, r3, #15
 8001cea:	f8c7 30d8 	str.w	r3, [r7, #216]	@ 0xd8
  if (errorflags == RESET)
 8001cee:	f8d7 30d8 	ldr.w	r3, [r7, #216]	@ 0xd8
 8001cf2:	2b00      	cmp	r3, #0
 8001cf4:	d10f      	bne.n	8001d16 <HAL_UART_IRQHandler+0x66>
  {
    /* UART in mode Receiver -------------------------------------------------*/
    if (((isrflags & USART_SR_RXNE) != RESET) && ((cr1its & USART_CR1_RXNEIE) != RESET))
 8001cf6:	f8d7 30e4 	ldr.w	r3, [r7, #228]	@ 0xe4
 8001cfa:	f003 0320 	and.w	r3, r3, #32
 8001cfe:	2b00      	cmp	r3, #0
 8001d00:	d009      	beq.n	8001d16 <HAL_UART_IRQHandler+0x66>
 8001d02:	f8d7 30e0 	ldr.w	r3, [r7, #224]	@ 0xe0
 8001d06:	f003 0320 	and.w	r3, r3, #32
 8001d0a:	2b00      	cmp	r3, #0
 8001d0c:	d003      	beq.n	8001d16 <HAL_UART_IRQHandler+0x66>
    {
      UART_Receive_IT(huart);
 8001d0e:	6878      	ldr	r0, [r7, #4]
 8001d10:	f000 fb93 	bl	800243a <UART_Receive_IT>
      return;
 8001d14:	e25b      	b.n	80021ce <HAL_UART_IRQHandler+0x51e>
    }
  }

  /* If some errors occur */
  if ((errorflags != RESET) && (((cr3its & USART_CR3_EIE) != RESET)
 8001d16:	f8d7 30d8 	ldr.w	r3, [r7, #216]	@ 0xd8
 8001d1a:	2b00      	cmp	r3, #0
 8001d1c:	f000 80de 	beq.w	8001edc <HAL_UART_IRQHandler+0x22c>
 8001d20:	f8d7 30dc 	ldr.w	r3, [r7, #220]	@ 0xdc
 8001d24:	f003 0301 	and.w	r3, r3, #1
 8001d28:	2b00      	cmp	r3, #0
 8001d2a:	d106      	bne.n	8001d3a <HAL_UART_IRQHandler+0x8a>
                                || ((cr1its & (USART_CR1_RXNEIE | USART_CR1_PEIE)) != RESET)))
 8001d2c:	f8d7 30e0 	ldr.w	r3, [r7, #224]	@ 0xe0
 8001d30:	f403 7390 	and.w	r3, r3, #288	@ 0x120
 8001d34:	2b00      	cmp	r3, #0
 8001d36:	f000 80d1 	beq.w	8001edc <HAL_UART_IRQHandler+0x22c>
  {
    /* UART parity error interrupt occurred ----------------------------------*/
    if (((isrflags & USART_SR_PE) != RESET) && ((cr1its & USART_CR1_PEIE) != RESET))
 8001d3a:	f8d7 30e4 	ldr.w	r3, [r7, #228]	@ 0xe4
 8001d3e:	f003 0301 	and.w	r3, r3, #1
 8001d42:	2b00      	cmp	r3, #0
 8001d44:	d00b      	beq.n	8001d5e <HAL_UART_IRQHandler+0xae>
 8001d46:	f8d7 30e0 	ldr.w	r3, [r7, #224]	@ 0xe0
 8001d4a:	f403 7380 	and.w	r3, r3, #256	@ 0x100
 8001d4e:	2b00      	cmp	r3, #0
 8001d50:	d005      	beq.n	8001d5e <HAL_UART_IRQHandler+0xae>
    {
      huart->ErrorCode |= HAL_UART_ERROR_PE;
 8001d52:	687b      	ldr	r3, [r7, #4]
 8001d54:	6c5b      	ldr	r3, [r3, #68]	@ 0x44
 8001d56:	f043 0201 	orr.w	r2, r3, #1
 8001d5a:	687b      	ldr	r3, [r7, #4]
 8001d5c:	645a      	str	r2, [r3, #68]	@ 0x44
    }

    /* UART noise error interrupt occurred -----------------------------------*/
    if (((isrflags & USART_SR_NE) != RESET) && ((cr3its & USART_CR3_EIE) != RESET))
 8001d5e:	f8d7 30e4 	ldr.w	r3, [r7, #228]	@ 0xe4
 8001d62:	f003 0304 	and.w	r3, r3, #4
 8001d66:	2b00      	cmp	r3, #0
 8001d68:	d00b      	beq.n	8001d82 <HAL_UART_IRQHandler+0xd2>
 8001d6a:	f8d7 30dc 	ldr.w	r3, [r7, #220]	@ 0xdc
 8001d6e:	f003 0301 	and.w	r3, r3, #1
 8001d72:	2b00      	cmp	r3, #0
 8001d74:	d005      	beq.n	8001d82 <HAL_UART_IRQHandler+0xd2>
    {
      huart->ErrorCode |= HAL_UART_ERROR_NE;
 8001d76:	687b      	ldr	r3, [r7, #4]
 8001d78:	6c5b      	ldr	r3, [r3, #68]	@ 0x44
 8001d7a:	f043 0202 	orr.w	r2, r3, #2
 8001d7e:	687b      	ldr	r3, [r7, #4]
 8001d80:	645a      	str	r2, [r3, #68]	@ 0x44
    }

    /* UART frame error interrupt occurred -----------------------------------*/
    if (((isrflags & USART_SR_FE) != RESET) && ((cr3its & USART_CR3_EIE) != RESET))
 8001d82:	f8d7 30e4 	ldr.w	r3, [r7, #228]	@ 0xe4
 8001d86:	f003 0302 	and.w	r3, r3, #2
 8001d8a:	2b00      	cmp	r3, #0
 8001d8c:	d00b      	beq.n	8001da6 <HAL_UART_IRQHandler+0xf6>
 8001d8e:	f8d7 30dc 	ldr.w	r3, [r7, #220]	@ 0xdc
 8001d92:	f003 0301 	and.w	r3, r3, #1
 8001d96:	2b00      	cmp	r3, #0
 8001d98:	d005      	beq.n	8001da6 <HAL_UART_IRQHandler+0xf6>
    {
      huart->ErrorCode |= HAL_UART_ERROR_FE;
 8001d9a:	687b      	ldr	r3, [r7, #4]
 8001d9c:	6c5b      	ldr	r3, [r3, #68]	@ 0x44
 8001d9e:	f043 0204 	orr.w	r2, r3, #4
 8001da2:	687b      	ldr	r3, [r7, #4]
 8001da4:	645a      	str	r2, [r3, #68]	@ 0x44
    }

    /* UART Over-Run interrupt occurred --------------------------------------*/
    if (((isrflags & USART_SR_ORE) != RESET) && (((cr1its & USART_CR1_RXNEIE) != RESET)
 8001da6:	f8d7 30e4 	ldr.w	r3, [r7, #228]	@ 0xe4
 8001daa:	f003 0308 	and.w	r3, r3, #8
 8001dae:	2b00      	cmp	r3, #0
 8001db0:	d011      	beq.n	8001dd6 <HAL_UART_IRQHandler+0x126>
 8001db2:	f8d7 30e0 	ldr.w	r3, [r7, #224]	@ 0xe0
 8001db6:	f003 0320 	and.w	r3, r3, #32
 8001dba:	2b00      	cmp	r3, #0
 8001dbc:	d105      	bne.n	8001dca <HAL_UART_IRQHandler+0x11a>
                                                 || ((cr3its & USART_CR3_EIE) != RESET)))
 8001dbe:	f8d7 30dc 	ldr.w	r3, [r7, #220]	@ 0xdc
 8001dc2:	f003 0301 	and.w	r3, r3, #1
 8001dc6:	2b00      	cmp	r3, #0
 8001dc8:	d005      	beq.n	8001dd6 <HAL_UART_IRQHandler+0x126>
    {
      huart->ErrorCode |= HAL_UART_ERROR_ORE;
 8001dca:	687b      	ldr	r3, [r7, #4]
 8001dcc:	6c5b      	ldr	r3, [r3, #68]	@ 0x44
 8001dce:	f043 0208 	orr.w	r2, r3, #8
 8001dd2:	687b      	ldr	r3, [r7, #4]
 8001dd4:	645a      	str	r2, [r3, #68]	@ 0x44
    }

    /* Call UART Error Call back function if need be --------------------------*/
    if (huart->ErrorCode != HAL_UART_ERROR_NONE)
 8001dd6:	687b      	ldr	r3, [r7, #4]
 8001dd8:	6c5b      	ldr	r3, [r3, #68]	@ 0x44
 8001dda:	2b00      	cmp	r3, #0
 8001ddc:	f000 81f2 	beq.w	80021c4 <HAL_UART_IRQHandler+0x514>
    {
      /* UART in mode Receiver -----------------------------------------------*/
      if (((isrflags & USART_SR_RXNE) != RESET) && ((cr1its & USART_CR1_RXNEIE) != RESET))
 8001de0:	f8d7 30e4 	ldr.w	r3, [r7, #228]	@ 0xe4
 8001de4:	f003 0320 	and.w	r3, r3, #32
 8001de8:	2b00      	cmp	r3, #0
 8001dea:	d008      	beq.n	8001dfe <HAL_UART_IRQHandler+0x14e>
 8001dec:	f8d7 30e0 	ldr.w	r3, [r7, #224]	@ 0xe0
 8001df0:	f003 0320 	and.w	r3, r3, #32
 8001df4:	2b00      	cmp	r3, #0
 8001df6:	d002      	beq.n	8001dfe <HAL_UART_IRQHandler+0x14e>
      {
        UART_Receive_IT(huart);
 8001df8:	6878      	ldr	r0, [r7, #4]
 8001dfa:	f000 fb1e 	bl	800243a <UART_Receive_IT>
      }

      /* If Overrun error occurs, or if any error occurs in DMA mode reception,
         consider error as blocking */
      dmarequest = HAL_IS_BIT_SET(huart->Instance->CR3, USART_CR3_DMAR);
 8001dfe:	687b      	ldr	r3, [r7, #4]
 8001e00:	681b      	ldr	r3, [r3, #0]
 8001e02:	695b      	ldr	r3, [r3, #20]
 8001e04:	f003 0340 	and.w	r3, r3, #64	@ 0x40
 8001e08:	2b00      	cmp	r3, #0
 8001e0a:	bf14      	ite	ne
 8001e0c:	2301      	movne	r3, #1
 8001e0e:	2300      	moveq	r3, #0
 8001e10:	b2db      	uxtb	r3, r3
 8001e12:	f8c7 30d4 	str.w	r3, [r7, #212]	@ 0xd4
      if (((huart->ErrorCode & HAL_UART_ERROR_ORE) != RESET) || dmarequest)
 8001e16:	687b      	ldr	r3, [r7, #4]
 8001e18:	6c5b      	ldr	r3, [r3, #68]	@ 0x44
 8001e1a:	f003 0308 	and.w	r3, r3, #8
 8001e1e:	2b00      	cmp	r3, #0
 8001e20:	d103      	bne.n	8001e2a <HAL_UART_IRQHandler+0x17a>
 8001e22:	f8d7 30d4 	ldr.w	r3, [r7, #212]	@ 0xd4
 8001e26:	2b00      	cmp	r3, #0
 8001e28:	d04f      	beq.n	8001eca <HAL_UART_IRQHandler+0x21a>
      {
        /* Blocking error : transfer is aborted
           Set the UART state ready to be able to start again the process,
           Disable Rx Interrupts, and disable Rx DMA request, if ongoing */
        UART_EndRxTransfer(huart);
 8001e2a:	6878      	ldr	r0, [r7, #4]
 8001e2c:	f000 fa28 	bl	8002280 <UART_EndRxTransfer>

        /* Disable the UART DMA Rx request if enabled */
        if (HAL_IS_BIT_SET(huart->Instance->CR3, USART_CR3_DMAR))
 8001e30:	687b      	ldr	r3, [r7, #4]
 8001e32:	681b      	ldr	r3, [r3, #0]
 8001e34:	695b      	ldr	r3, [r3, #20]
 8001e36:	f003 0340 	and.w	r3, r3, #64	@ 0x40
 8001e3a:	2b00      	cmp	r3, #0
 8001e3c:	d041      	beq.n	8001ec2 <HAL_UART_IRQHandler+0x212>
        {
          ATOMIC_CLEAR_BIT(huart->Instance->CR3, USART_CR3_DMAR);
 8001e3e:	687b      	ldr	r3, [r7, #4]
 8001e40:	681b      	ldr	r3, [r3, #0]
 8001e42:	3314      	adds	r3, #20
 8001e44:	f8c7 309c 	str.w	r3, [r7, #156]	@ 0x9c
 */
__STATIC_FORCEINLINE uint32_t __LDREXW(volatile uint32_t *addr)
{
    uint32_t result;

   __ASM volatile ("ldrex %0, %1" : "=r" (result) : "Q" (*addr) );
 8001e48:	f8d7 309c 	ldr.w	r3, [r7, #156]	@ 0x9c
 8001e4c:	e853 3f00 	ldrex	r3, [r3]
 8001e50:	f8c7 3098 	str.w	r3, [r7, #152]	@ 0x98
   return(result);
 8001e54:	f8d7 3098 	ldr.w	r3, [r7, #152]	@ 0x98
 8001e58:	f023 0340 	bic.w	r3, r3, #64	@ 0x40
 8001e5c:	f8c7 30d0 	str.w	r3, [r7, #208]	@ 0xd0
 8001e60:	687b      	ldr	r3, [r7, #4]
 8001e62:	681b      	ldr	r3, [r3, #0]
 8001e64:	3314      	adds	r3, #20
 8001e66:	f8d7 20d0 	ldr.w	r2, [r7, #208]	@ 0xd0
 8001e6a:	f8c7 20a8 	str.w	r2, [r7, #168]	@ 0xa8
 8001e6e:	f8c7 30a4 	str.w	r3, [r7, #164]	@ 0xa4
 */
__STATIC_FORCEINLINE uint32_t __STREXW(uint32_t value, volatile uint32_t *addr)
{
   uint32_t result;

   __ASM volatile ("strex %0, %2, %1" : "=&r" (result), "=Q" (*addr) : "r" (value) );
 8001e72:	f8d7 10a4 	ldr.w	r1, [r7, #164]	@ 0xa4
 8001e76:	f8d7 20a8 	ldr.w	r2, [r7, #168]	@ 0xa8
 8001e7a:	e841 2300 	strex	r3, r2, [r1]
 8001e7e:	f8c7 30a0 	str.w	r3, [r7, #160]	@ 0xa0
   return(result);
 8001e82:	f8d7 30a0 	ldr.w	r3, [r7, #160]	@ 0xa0
 8001e86:	2b00      	cmp	r3, #0
 8001e88:	d1d9      	bne.n	8001e3e <HAL_UART_IRQHandler+0x18e>

          /* Abort the UART DMA Rx channel */
          if (huart->hdmarx != NULL)
 8001e8a:	687b      	ldr	r3, [r7, #4]
 8001e8c:	6bdb      	ldr	r3, [r3, #60]	@ 0x3c
 8001e8e:	2b00      	cmp	r3, #0
 8001e90:	d013      	beq.n	8001eba <HAL_UART_IRQHandler+0x20a>
          {
            /* Set the UART DMA Abort callback :
               will lead to call HAL_UART_ErrorCallback() at end of DMA abort procedure */
            huart->hdmarx->XferAbortCallback = UART_DMAAbortOnError;
 8001e92:	687b      	ldr	r3, [r7, #4]
 8001e94:	6bdb      	ldr	r3, [r3, #60]	@ 0x3c
 8001e96:	4a7e      	ldr	r2, [pc, #504]	@ (8002090 <HAL_UART_IRQHandler+0x3e0>)
 8001e98:	635a      	str	r2, [r3, #52]	@ 0x34
            if (HAL_DMA_Abort_IT(huart->hdmarx) != HAL_OK)
 8001e9a:	687b      	ldr	r3, [r7, #4]
 8001e9c:	6bdb      	ldr	r3, [r3, #60]	@ 0x3c
 8001e9e:	4618      	mov	r0, r3
 8001ea0:	f7ff f852 	bl	8000f48 <HAL_DMA_Abort_IT>
 8001ea4:	4603      	mov	r3, r0
 8001ea6:	2b00      	cmp	r3, #0
 8001ea8:	d016      	beq.n	8001ed8 <HAL_UART_IRQHandler+0x228>
            {
              /* Call Directly XferAbortCallback function in case of error */
              huart->hdmarx->XferAbortCallback(huart->hdmarx);
 8001eaa:	687b      	ldr	r3, [r7, #4]
 8001eac:	6bdb      	ldr	r3, [r3, #60]	@ 0x3c
 8001eae:	6b5b      	ldr	r3, [r3, #52]	@ 0x34
 8001eb0:	687a      	ldr	r2, [r7, #4]
 8001eb2:	6bd2      	ldr	r2, [r2, #60]	@ 0x3c
 8001eb4:	4610      	mov	r0, r2
 8001eb6:	4798      	blx	r3
        if (HAL_IS_BIT_SET(huart->Instance->CR3, USART_CR3_DMAR))
 8001eb8:	e00e      	b.n	8001ed8 <HAL_UART_IRQHandler+0x228>
#if (USE_HAL_UART_REGISTER_CALLBACKS == 1)
            /*Call registered error callback*/
            huart->ErrorCallback(huart);
#else
            /*Call legacy weak error callback*/
            HAL_UART_ErrorCallback(huart);
 8001eba:	6878      	ldr	r0, [r7, #4]
 8001ebc:	f000 f993 	bl	80021e6 <HAL_UART_ErrorCallback>
        if (HAL_IS_BIT_SET(huart->Instance->CR3, USART_CR3_DMAR))
 8001ec0:	e00a      	b.n	8001ed8 <HAL_UART_IRQHandler+0x228>
#if (USE_HAL_UART_REGISTER_CALLBACKS == 1)
          /*Call registered error callback*/
          huart->ErrorCallback(huart);
#else
          /*Call legacy weak error callback*/
          HAL_UART_ErrorCallback(huart);
 8001ec2:	6878      	ldr	r0, [r7, #4]
 8001ec4:	f000 f98f 	bl	80021e6 <HAL_UART_ErrorCallback>
        if (HAL_IS_BIT_SET(huart->Instance->CR3, USART_CR3_DMAR))
 8001ec8:	e006      	b.n	8001ed8 <HAL_UART_IRQHandler+0x228>
#if (USE_HAL_UART_REGISTER_CALLBACKS == 1)
        /*Call registered error callback*/
        huart->ErrorCallback(huart);
#else
        /*Call legacy weak error callback*/
        HAL_UART_ErrorCallback(huart);
 8001eca:	6878      	ldr	r0, [r7, #4]
 8001ecc:	f000 f98b 	bl	80021e6 <HAL_UART_ErrorCallback>
#endif /* USE_HAL_UART_REGISTER_CALLBACKS */

        huart->ErrorCode = HAL_UART_ERROR_NONE;
 8001ed0:	687b      	ldr	r3, [r7, #4]
 8001ed2:	2200      	movs	r2, #0
 8001ed4:	645a      	str	r2, [r3, #68]	@ 0x44
      }
    }
    return;
 8001ed6:	e175      	b.n	80021c4 <HAL_UART_IRQHandler+0x514>
        if (HAL_IS_BIT_SET(huart->Instance->CR3, USART_CR3_DMAR))
 8001ed8:	bf00      	nop
    return;
 8001eda:	e173      	b.n	80021c4 <HAL_UART_IRQHandler+0x514>
  } /* End if some error occurs */

  /* Check current reception Mode :
     If Reception till IDLE event has been selected : */
  if ((huart->ReceptionType == HAL_UART_RECEPTION_TOIDLE)
 8001edc:	687b      	ldr	r3, [r7, #4]
 8001ede:	6b1b      	ldr	r3, [r3, #48]	@ 0x30
 8001ee0:	2b01      	cmp	r3, #1
 8001ee2:	f040 814f 	bne.w	8002184 <HAL_UART_IRQHandler+0x4d4>
      && ((isrflags & USART_SR_IDLE) != 0U)
 8001ee6:	f8d7 30e4 	ldr.w	r3, [r7, #228]	@ 0xe4
 8001eea:	f003 0310 	and.w	r3, r3, #16
 8001eee:	2b00      	cmp	r3, #0
 8001ef0:	f000 8148 	beq.w	8002184 <HAL_UART_IRQHandler+0x4d4>
      && ((cr1its & USART_SR_IDLE) != 0U))
 8001ef4:	f8d7 30e0 	ldr.w	r3, [r7, #224]	@ 0xe0
 8001ef8:	f003 0310 	and.w	r3, r3, #16
 8001efc:	2b00      	cmp	r3, #0
 8001efe:	f000 8141 	beq.w	8002184 <HAL_UART_IRQHandler+0x4d4>
  {
    __HAL_UART_CLEAR_IDLEFLAG(huart);
 8001f02:	2300      	movs	r3, #0
 8001f04:	60bb      	str	r3, [r7, #8]
 8001f06:	687b      	ldr	r3, [r7, #4]
 8001f08:	681b      	ldr	r3, [r3, #0]
 8001f0a:	681b      	ldr	r3, [r3, #0]
 8001f0c:	60bb      	str	r3, [r7, #8]
 8001f0e:	687b      	ldr	r3, [r7, #4]
 8001f10:	681b      	ldr	r3, [r3, #0]
 8001f12:	685b      	ldr	r3, [r3, #4]
 8001f14:	60bb      	str	r3, [r7, #8]
 8001f16:	68bb      	ldr	r3, [r7, #8]

    /* Check if DMA mode is enabled in UART */
    if (HAL_IS_BIT_SET(huart->Instance->CR3, USART_CR3_DMAR))
 8001f18:	687b      	ldr	r3, [r7, #4]
 8001f1a:	681b      	ldr	r3, [r3, #0]
 8001f1c:	695b      	ldr	r3, [r3, #20]
 8001f1e:	f003 0340 	and.w	r3, r3, #64	@ 0x40
 8001f22:	2b00      	cmp	r3, #0
 8001f24:	f000 80b6 	beq.w	8002094 <HAL_UART_IRQHandler+0x3e4>
    {
      /* DMA mode enabled */
      /* Check received length : If all expected data are received, do nothing,
         (DMA cplt callback will be called).
         Otherwise, if at least one data has already been received, IDLE event is to be notified to user */
      uint16_t nb_remaining_rx_data = (uint16_t) __HAL_DMA_GET_COUNTER(huart->hdmarx);
 8001f28:	687b      	ldr	r3, [r7, #4]
 8001f2a:	6bdb      	ldr	r3, [r3, #60]	@ 0x3c
 8001f2c:	681b      	ldr	r3, [r3, #0]
 8001f2e:	685b      	ldr	r3, [r3, #4]
 8001f30:	f8a7 30be 	strh.w	r3, [r7, #190]	@ 0xbe
      if ((nb_remaining_rx_data > 0U)
 8001f34:	f8b7 30be 	ldrh.w	r3, [r7, #190]	@ 0xbe
 8001f38:	2b00      	cmp	r3, #0
 8001f3a:	f000 8145 	beq.w	80021c8 <HAL_UART_IRQHandler+0x518>
          && (nb_remaining_rx_data < huart->RxXferSize))
 8001f3e:	687b      	ldr	r3, [r7, #4]
 8001f40:	8d9b      	ldrh	r3, [r3, #44]	@ 0x2c
 8001f42:	f8b7 20be 	ldrh.w	r2, [r7, #190]	@ 0xbe
 8001f46:	429a      	cmp	r2, r3
 8001f48:	f080 813e 	bcs.w	80021c8 <HAL_UART_IRQHandler+0x518>
      {
        /* Reception is not complete */
        huart->RxXferCount = nb_remaining_rx_data;
 8001f4c:	687b      	ldr	r3, [r7, #4]
 8001f4e:	f8b7 20be 	ldrh.w	r2, [r7, #190]	@ 0xbe
 8001f52:	85da      	strh	r2, [r3, #46]	@ 0x2e

        /* In Normal mode, end DMA xfer and HAL UART Rx process*/
        if (huart->hdmarx->Init.Mode != DMA_CIRCULAR)
 8001f54:	687b      	ldr	r3, [r7, #4]
 8001f56:	6bdb      	ldr	r3, [r3, #60]	@ 0x3c
 8001f58:	699b      	ldr	r3, [r3, #24]
 8001f5a:	2b20      	cmp	r3, #32
 8001f5c:	f000 8088 	beq.w	8002070 <HAL_UART_IRQHandler+0x3c0>
        {
          /* Disable PE and ERR (Frame error, noise error, overrun error) interrupts */
          ATOMIC_CLEAR_BIT(huart->Instance->CR1, USART_CR1_PEIE);
 8001f60:	687b      	ldr	r3, [r7, #4]
 8001f62:	681b      	ldr	r3, [r3, #0]
 8001f64:	330c      	adds	r3, #12
 8001f66:	f8c7 3088 	str.w	r3, [r7, #136]	@ 0x88
   __ASM volatile ("ldrex %0, %1" : "=r" (result) : "Q" (*addr) );
 8001f6a:	f8d7 3088 	ldr.w	r3, [r7, #136]	@ 0x88
 8001f6e:	e853 3f00 	ldrex	r3, [r3]
 8001f72:	f8c7 3084 	str.w	r3, [r7, #132]	@ 0x84
   return(result);
 8001f76:	f8d7 3084 	ldr.w	r3, [r7, #132]	@ 0x84
 8001f7a:	f423 7380 	bic.w	r3, r3, #256	@ 0x100
 8001f7e:	f8c7 30b8 	str.w	r3, [r7, #184]	@ 0xb8
 8001f82:	687b      	ldr	r3, [r7, #4]
 8001f84:	681b      	ldr	r3, [r3, #0]
 8001f86:	330c      	adds	r3, #12
 8001f88:	f8d7 20b8 	ldr.w	r2, [r7, #184]	@ 0xb8
 8001f8c:	f8c7 2094 	str.w	r2, [r7, #148]	@ 0x94
 8001f90:	f8c7 3090 	str.w	r3, [r7, #144]	@ 0x90
   __ASM volatile ("strex %0, %2, %1" : "=&r" (result), "=Q" (*addr) : "r" (value) );
 8001f94:	f8d7 1090 	ldr.w	r1, [r7, #144]	@ 0x90
 8001f98:	f8d7 2094 	ldr.w	r2, [r7, #148]	@ 0x94
 8001f9c:	e841 2300 	strex	r3, r2, [r1]
 8001fa0:	f8c7 308c 	str.w	r3, [r7, #140]	@ 0x8c
   return(result);
 8001fa4:	f8d7 308c 	ldr.w	r3, [r7, #140]	@ 0x8c
 8001fa8:	2b00      	cmp	r3, #0
 8001faa:	d1d9      	bne.n	8001f60 <HAL_UART_IRQHandler+0x2b0>
          ATOMIC_CLEAR_BIT(huart->Instance->CR3, USART_CR3_EIE);
 8001fac:	687b      	ldr	r3, [r7, #4]
 8001fae:	681b      	ldr	r3, [r3, #0]
 8001fb0:	3314      	adds	r3, #20
 8001fb2:	677b      	str	r3, [r7, #116]	@ 0x74
   __ASM volatile ("ldrex %0, %1" : "=r" (result) : "Q" (*addr) );
 8001fb4:	6f7b      	ldr	r3, [r7, #116]	@ 0x74
 8001fb6:	e853 3f00 	ldrex	r3, [r3]
 8001fba:	673b      	str	r3, [r7, #112]	@ 0x70
   return(result);
 8001fbc:	6f3b      	ldr	r3, [r7, #112]	@ 0x70
 8001fbe:	f023 0301 	bic.w	r3, r3, #1
 8001fc2:	f8c7 30b4 	str.w	r3, [r7, #180]	@ 0xb4
 8001fc6:	687b      	ldr	r3, [r7, #4]
 8001fc8:	681b      	ldr	r3, [r3, #0]
 8001fca:	3314      	adds	r3, #20
 8001fcc:	f8d7 20b4 	ldr.w	r2, [r7, #180]	@ 0xb4
 8001fd0:	f8c7 2080 	str.w	r2, [r7, #128]	@ 0x80
 8001fd4:	67fb      	str	r3, [r7, #124]	@ 0x7c
   __ASM volatile ("strex %0, %2, %1" : "=&r" (result), "=Q" (*addr) : "r" (value) );
 8001fd6:	6ff9      	ldr	r1, [r7, #124]	@ 0x7c
 8001fd8:	f8d7 2080 	ldr.w	r2, [r7, #128]	@ 0x80
 8001fdc:	e841 2300 	strex	r3, r2, [r1]
 8001fe0:	67bb      	str	r3, [r7, #120]	@ 0x78
   return(result);
 8001fe2:	6fbb      	ldr	r3, [r7, #120]	@ 0x78
 8001fe4:	2b00      	cmp	r3, #0
 8001fe6:	d1e1      	bne.n	8001fac <HAL_UART_IRQHandler+0x2fc>

          /* Disable the DMA transfer for the receiver request by resetting the DMAR bit
             in the UART CR3 register */
          ATOMIC_CLEAR_BIT(huart->Instance->CR3, USART_CR3_DMAR);
 8001fe8:	687b      	ldr	r3, [r7, #4]
 8001fea:	681b      	ldr	r3, [r3, #0]
 8001fec:	3314      	adds	r3, #20
 8001fee:	663b      	str	r3, [r7, #96]	@ 0x60
   __ASM volatile ("ldrex %0, %1" : "=r" (result) : "Q" (*addr) );
 8001ff0:	6e3b      	ldr	r3, [r7, #96]	@ 0x60
 8001ff2:	e853 3f00 	ldrex	r3, [r3]
 8001ff6:	65fb      	str	r3, [r7, #92]	@ 0x5c
   return(result);
 8001ff8:	6dfb      	ldr	r3, [r7, #92]	@ 0x5c
 8001ffa:	f023 0340 	bic.w	r3, r3, #64	@ 0x40
 8001ffe:	f8c7 30b0 	str.w	r3, [r7, #176]	@ 0xb0
 8002002:	687b      	ldr	r3, [r7, #4]
 8002004:	681b      	ldr	r3, [r3, #0]
 8002006:	3314      	adds	r3, #20
 8002008:	f8d7 20b0 	ldr.w	r2, [r7, #176]	@ 0xb0
 800200c:	66fa      	str	r2, [r7, #108]	@ 0x6c
 800200e:	66bb      	str	r3, [r7, #104]	@ 0x68
   __ASM volatile ("strex %0, %2, %1" : "=&r" (result), "=Q" (*addr) : "r" (value) );
 8002010:	6eb9      	ldr	r1, [r7, #104]	@ 0x68
 8002012:	6efa      	ldr	r2, [r7, #108]	@ 0x6c
 8002014:	e841 2300 	strex	r3, r2, [r1]
 8002018:	667b      	str	r3, [r7, #100]	@ 0x64
   return(result);
 800201a:	6e7b      	ldr	r3, [r7, #100]	@ 0x64
 800201c:	2b00      	cmp	r3, #0
 800201e:	d1e3      	bne.n	8001fe8 <HAL_UART_IRQHandler+0x338>

          /* At end of Rx process, restore huart->RxState to Ready */
          huart->RxState = HAL_UART_STATE_READY;
 8002020:	687b      	ldr	r3, [r7, #4]
 8002022:	2220      	movs	r2, #32
 8002024:	f883 2042 	strb.w	r2, [r3, #66]	@ 0x42
          huart->ReceptionType = HAL_UART_RECEPTION_STANDARD;
 8002028:	687b      	ldr	r3, [r7, #4]
 800202a:	2200      	movs	r2, #0
 800202c:	631a      	str	r2, [r3, #48]	@ 0x30

          ATOMIC_CLEAR_BIT(huart->Instance->CR1, USART_CR1_IDLEIE);
 800202e:	687b      	ldr	r3, [r7, #4]
 8002030:	681b      	ldr	r3, [r3, #0]
 8002032:	330c      	adds	r3, #12
 8002034:	64fb      	str	r3, [r7, #76]	@ 0x4c
   __ASM volatile ("ldrex %0, %1" : "=r" (result) : "Q" (*addr) );
 8002036:	6cfb      	ldr	r3, [r7, #76]	@ 0x4c
 8002038:	e853 3f00 	ldrex	r3, [r3]
 800203c:	64bb      	str	r3, [r7, #72]	@ 0x48
   return(result);
 800203e:	6cbb      	ldr	r3, [r7, #72]	@ 0x48
 8002040:	f023 0310 	bic.w	r3, r3, #16
 8002044:	f8c7 30ac 	str.w	r3, [r7, #172]	@ 0xac
 8002048:	687b      	ldr	r3, [r7, #4]
 800204a:	681b      	ldr	r3, [r3, #0]
 800204c:	330c      	adds	r3, #12
 800204e:	f8d7 20ac 	ldr.w	r2, [r7, #172]	@ 0xac
 8002052:	65ba      	str	r2, [r7, #88]	@ 0x58
 8002054:	657b      	str	r3, [r7, #84]	@ 0x54
   __ASM volatile ("strex %0, %2, %1" : "=&r" (result), "=Q" (*addr) : "r" (value) );
 8002056:	6d79      	ldr	r1, [r7, #84]	@ 0x54
 8002058:	6dba      	ldr	r2, [r7, #88]	@ 0x58
 800205a:	e841 2300 	strex	r3, r2, [r1]
 800205e:	653b      	str	r3, [r7, #80]	@ 0x50
   return(result);
 8002060:	6d3b      	ldr	r3, [r7, #80]	@ 0x50
 8002062:	2b00      	cmp	r3, #0
 8002064:	d1e3      	bne.n	800202e <HAL_UART_IRQHandler+0x37e>

          /* Last bytes received, so no need as the abort is immediate */
          (void)HAL_DMA_Abort(huart->hdmarx);
 8002066:	687b      	ldr	r3, [r7, #4]
 8002068:	6bdb      	ldr	r3, [r3, #60]	@ 0x3c
 800206a:	4618      	mov	r0, r3
 800206c:	f7fe ff31 	bl	8000ed2 <HAL_DMA_Abort>
        }

        /* Initialize type of RxEvent that correspond to RxEvent callback execution;
        In this case, Rx Event type is Idle Event */
        huart->RxEventType = HAL_UART_RXEVENT_IDLE;
 8002070:	687b      	ldr	r3, [r7, #4]
 8002072:	2202      	movs	r2, #2
 8002074:	635a      	str	r2, [r3, #52]	@ 0x34
#if (USE_HAL_UART_REGISTER_CALLBACKS == 1)
        /*Call registered Rx Event callback*/
        huart->RxEventCallback(huart, (huart->RxXferSize - huart->RxXferCount));
#else
        /*Call legacy weak Rx Event callback*/
        HAL_UARTEx_RxEventCallback(huart, (huart->RxXferSize - huart->RxXferCount));
 8002076:	687b      	ldr	r3, [r7, #4]
 8002078:	8d9a      	ldrh	r2, [r3, #44]	@ 0x2c
 800207a:	687b      	ldr	r3, [r7, #4]
 800207c:	8ddb      	ldrh	r3, [r3, #46]	@ 0x2e
 800207e:	b29b      	uxth	r3, r3
 8002080:	1ad3      	subs	r3, r2, r3
 8002082:	b29b      	uxth	r3, r3
 8002084:	4619      	mov	r1, r3
 8002086:	6878      	ldr	r0, [r7, #4]
 8002088:	f000 f8b6 	bl	80021f8 <HAL_UARTEx_RxEventCallback>
#endif /* USE_HAL_UART_REGISTER_CALLBACKS */
      }
      return;
 800208c:	e09c      	b.n	80021c8 <HAL_UART_IRQHandler+0x518>
 800208e:	bf00      	nop
 8002090:	08002345 	.word	0x08002345
    else
    {
      /* DMA mode not enabled */
      /* Check received length : If all expected data are received, do nothing.
         Otherwise, if at least one data has already been received, IDLE event is to be notified to user */
      uint16_t nb_rx_data = huart->RxXferSize - huart->RxXferCount;
 8002094:	687b      	ldr	r3, [r7, #4]
 8002096:	8d9a      	ldrh	r2, [r3, #44]	@ 0x2c
 8002098:	687b      	ldr	r3, [r7, #4]
 800209a:	8ddb      	ldrh	r3, [r3, #46]	@ 0x2e
 800209c:	b29b      	uxth	r3, r3
 800209e:	1ad3      	subs	r3, r2, r3
 80020a0:	f8a7 30ce 	strh.w	r3, [r7, #206]	@ 0xce
      if ((huart->RxXferCount > 0U)
 80020a4:	687b      	ldr	r3, [r7, #4]
 80020a6:	8ddb      	ldrh	r3, [r3, #46]	@ 0x2e
 80020a8:	b29b      	uxth	r3, r3
 80020aa:	2b00      	cmp	r3, #0
 80020ac:	f000 808e 	beq.w	80021cc <HAL_UART_IRQHandler+0x51c>
          && (nb_rx_data > 0U))
 80020b0:	f8b7 30ce 	ldrh.w	r3, [r7, #206]	@ 0xce
 80020b4:	2b00      	cmp	r3, #0
 80020b6:	f000 8089 	beq.w	80021cc <HAL_UART_IRQHandler+0x51c>
      {
        /* Disable the UART Parity Error Interrupt and RXNE interrupts */
        ATOMIC_CLEAR_BIT(huart->Instance->CR1, (USART_CR1_RXNEIE | USART_CR1_PEIE));
 80020ba:	687b      	ldr	r3, [r7, #4]
 80020bc:	681b      	ldr	r3, [r3, #0]
 80020be:	330c      	adds	r3, #12
 80020c0:	63bb      	str	r3, [r7, #56]	@ 0x38
   __ASM volatile ("ldrex %0, %1" : "=r" (result) : "Q" (*addr) );
 80020c2:	6bbb      	ldr	r3, [r7, #56]	@ 0x38
 80020c4:	e853 3f00 	ldrex	r3, [r3]
 80020c8:	637b      	str	r3, [r7, #52]	@ 0x34
   return(result);
 80020ca:	6b7b      	ldr	r3, [r7, #52]	@ 0x34
 80020cc:	f423 7390 	bic.w	r3, r3, #288	@ 0x120
 80020d0:	f8c7 30c8 	str.w	r3, [r7, #200]	@ 0xc8
 80020d4:	687b      	ldr	r3, [r7, #4]
 80020d6:	681b      	ldr	r3, [r3, #0]
 80020d8:	330c      	adds	r3, #12
 80020da:	f8d7 20c8 	ldr.w	r2, [r7, #200]	@ 0xc8
 80020de:	647a      	str	r2, [r7, #68]	@ 0x44
 80020e0:	643b      	str	r3, [r7, #64]	@ 0x40
   __ASM volatile ("strex %0, %2, %1" : "=&r" (result), "=Q" (*addr) : "r" (value) );
 80020e2:	6c39      	ldr	r1, [r7, #64]	@ 0x40
 80020e4:	6c7a      	ldr	r2, [r7, #68]	@ 0x44
 80020e6:	e841 2300 	strex	r3, r2, [r1]
 80020ea:	63fb      	str	r3, [r7, #60]	@ 0x3c
   return(result);
 80020ec:	6bfb      	ldr	r3, [r7, #60]	@ 0x3c
 80020ee:	2b00      	cmp	r3, #0
 80020f0:	d1e3      	bne.n	80020ba <HAL_UART_IRQHandler+0x40a>

        /* Disable the UART Error Interrupt: (Frame error, noise error, overrun error) */
        ATOMIC_CLEAR_BIT(huart->Instance->CR3, USART_CR3_EIE);
 80020f2:	687b      	ldr	r3, [r7, #4]
 80020f4:	681b      	ldr	r3, [r3, #0]
 80020f6:	3314      	adds	r3, #20
 80020f8:	627b      	str	r3, [r7, #36]	@ 0x24
   __ASM volatile ("ldrex %0, %1" : "=r" (result) : "Q" (*addr) );
 80020fa:	6a7b      	ldr	r3, [r7, #36]	@ 0x24
 80020fc:	e853 3f00 	ldrex	r3, [r3]
 8002100:	623b      	str	r3, [r7, #32]
   return(result);
 8002102:	6a3b      	ldr	r3, [r7, #32]
 8002104:	f023 0301 	bic.w	r3, r3, #1
 8002108:	f8c7 30c4 	str.w	r3, [r7, #196]	@ 0xc4
 800210c:	687b      	ldr	r3, [r7, #4]
 800210e:	681b      	ldr	r3, [r3, #0]
 8002110:	3314      	adds	r3, #20
 8002112:	f8d7 20c4 	ldr.w	r2, [r7, #196]	@ 0xc4
 8002116:	633a      	str	r2, [r7, #48]	@ 0x30
 8002118:	62fb      	str	r3, [r7, #44]	@ 0x2c
   __ASM volatile ("strex %0, %2, %1" : "=&r" (result), "=Q" (*addr) : "r" (value) );
 800211a:	6af9      	ldr	r1, [r7, #44]	@ 0x2c
 800211c:	6b3a      	ldr	r2, [r7, #48]	@ 0x30
 800211e:	e841 2300 	strex	r3, r2, [r1]
 8002122:	62bb      	str	r3, [r7, #40]	@ 0x28
   return(result);
 8002124:	6abb      	ldr	r3, [r7, #40]	@ 0x28
 8002126:	2b00      	cmp	r3, #0
 8002128:	d1e3      	bne.n	80020f2 <HAL_UART_IRQHandler+0x442>

        /* Rx process is completed, restore huart->RxState to Ready */
        huart->RxState = HAL_UART_STATE_READY;
 800212a:	687b      	ldr	r3, [r7, #4]
 800212c:	2220      	movs	r2, #32
 800212e:	f883 2042 	strb.w	r2, [r3, #66]	@ 0x42
        huart->ReceptionType = HAL_UART_RECEPTION_STANDARD;
 8002132:	687b      	ldr	r3, [r7, #4]
 8002134:	2200      	movs	r2, #0
 8002136:	631a      	str	r2, [r3, #48]	@ 0x30

        ATOMIC_CLEAR_BIT(huart->Instance->CR1, USART_CR1_IDLEIE);
 8002138:	687b      	ldr	r3, [r7, #4]
 800213a:	681b      	ldr	r3, [r3, #0]
 800213c:	330c      	adds	r3, #12
 800213e:	613b      	str	r3, [r7, #16]
   __ASM volatile ("ldrex %0, %1" : "=r" (result) : "Q" (*addr) );
 8002140:	693b      	ldr	r3, [r7, #16]
 8002142:	e853 3f00 	ldrex	r3, [r3]
 8002146:	60fb      	str	r3, [r7, #12]
   return(result);
 8002148:	68fb      	ldr	r3, [r7, #12]
 800214a:	f023 0310 	bic.w	r3, r3, #16
 800214e:	f8c7 30c0 	str.w	r3, [r7, #192]	@ 0xc0
 8002152:	687b      	ldr	r3, [r7, #4]
 8002154:	681b      	ldr	r3, [r3, #0]
 8002156:	330c      	adds	r3, #12
 8002158:	f8d7 20c0 	ldr.w	r2, [r7, #192]	@ 0xc0
 800215c:	61fa      	str	r2, [r7, #28]
 800215e:	61bb      	str	r3, [r7, #24]
   __ASM volatile ("strex %0, %2, %1" : "=&r" (result), "=Q" (*addr) : "r" (value) );
 8002160:	69b9      	ldr	r1, [r7, #24]
 8002162:	69fa      	ldr	r2, [r7, #28]
 8002164:	e841 2300 	strex	r3, r2, [r1]
 8002168:	617b      	str	r3, [r7, #20]
   return(result);
 800216a:	697b      	ldr	r3, [r7, #20]
 800216c:	2b00      	cmp	r3, #0
 800216e:	d1e3      	bne.n	8002138 <HAL_UART_IRQHandler+0x488>

        /* Initialize type of RxEvent that correspond to RxEvent callback execution;
           In this case, Rx Event type is Idle Event */
        huart->RxEventType = HAL_UART_RXEVENT_IDLE;
 8002170:	687b      	ldr	r3, [r7, #4]
 8002172:	2202      	movs	r2, #2
 8002174:	635a      	str	r2, [r3, #52]	@ 0x34
#if (USE_HAL_UART_REGISTER_CALLBACKS == 1)
        /*Call registered Rx complete callback*/
        huart->RxEventCallback(huart, nb_rx_data);
#else
        /*Call legacy weak Rx Event callback*/
        HAL_UARTEx_RxEventCallback(huart, nb_rx_data);
 8002176:	f8b7 30ce 	ldrh.w	r3, [r7, #206]	@ 0xce
 800217a:	4619      	mov	r1, r3
 800217c:	6878      	ldr	r0, [r7, #4]
 800217e:	f000 f83b 	bl	80021f8 <HAL_UARTEx_RxEventCallback>
#endif /* USE_HAL_UART_REGISTER_CALLBACKS */
      }
      return;
 8002182:	e023      	b.n	80021cc <HAL_UART_IRQHandler+0x51c>
    }
  }

  /* UART in mode Transmitter ------------------------------------------------*/
  if (((isrflags & USART_SR_TXE) != RESET) && ((cr1its & USART_CR1_TXEIE) != RESET))
 8002184:	f8d7 30e4 	ldr.w	r3, [r7, #228]	@ 0xe4
 8002188:	f003 0380 	and.w	r3, r3, #128	@ 0x80
 800218c:	2b00      	cmp	r3, #0
 800218e:	d009      	beq.n	80021a4 <HAL_UART_IRQHandler+0x4f4>
 8002190:	f8d7 30e0 	ldr.w	r3, [r7, #224]	@ 0xe0
 8002194:	f003 0380 	and.w	r3, r3, #128	@ 0x80
 8002198:	2b00      	cmp	r3, #0
 800219a:	d003      	beq.n	80021a4 <HAL_UART_IRQHandler+0x4f4>
  {
    UART_Transmit_IT(huart);
 800219c:	6878      	ldr	r0, [r7, #4]
 800219e:	f000 f8e5 	bl	800236c <UART_Transmit_IT>
    return;
 80021a2:	e014      	b.n	80021ce <HAL_UART_IRQHandler+0x51e>
  }

  /* UART in mode Transmitter end --------------------------------------------*/
  if (((isrflags & USART_SR_TC) != RESET) && ((cr1its & USART_CR1_TCIE) != RESET))
 80021a4:	f8d7 30e4 	ldr.w	r3, [r7, #228]	@ 0xe4
 80021a8:	f003 0340 	and.w	r3, r3, #64	@ 0x40
 80021ac:	2b00      	cmp	r3, #0
 80021ae:	d00e      	beq.n	80021ce <HAL_UART_IRQHandler+0x51e>
 80021b0:	f8d7 30e0 	ldr.w	r3, [r7, #224]	@ 0xe0
 80021b4:	f003 0340 	and.w	r3, r3, #64	@ 0x40
 80021b8:	2b00      	cmp	r3, #0
 80021ba:	d008      	beq.n	80021ce <HAL_UART_IRQHandler+0x51e>
  {
    UART_EndTransmit_IT(huart);
 80021bc:	6878      	ldr	r0, [r7, #4]
 80021be:	f000 f924 	bl	800240a <UART_EndTransmit_IT>
    return;
 80021c2:	e004      	b.n	80021ce <HAL_UART_IRQHandler+0x51e>
    return;
 80021c4:	bf00      	nop
 80021c6:	e002      	b.n	80021ce <HAL_UART_IRQHandler+0x51e>
      return;
 80021c8:	bf00      	nop
 80021ca:	e000      	b.n	80021ce <HAL_UART_IRQHandler+0x51e>
      return;
 80021cc:	bf00      	nop
  }
}
 80021ce:	37e8      	adds	r7, #232	@ 0xe8
 80021d0:	46bd      	mov	sp, r7
 80021d2:	bd80      	pop	{r7, pc}

080021d4 <HAL_UART_TxCpltCallback>:
  * @param  huart  Pointer to a UART_HandleTypeDef structure that contains
  *                the configuration information for the specified UART module.
  * @retval None
  */
__weak void HAL_UART_TxCpltCallback(UART_HandleTypeDef *huart)
{
 80021d4:	b480      	push	{r7}
 80021d6:	b083      	sub	sp, #12
 80021d8:	af00      	add	r7, sp, #0
 80021da:	6078      	str	r0, [r7, #4]
  /* Prevent unused argument(s) compilation warning */
  UNUSED(huart);
  /* NOTE: This function should not be modified, when the callback is needed,
           the HAL_UART_TxCpltCallback could be implemented in the user file
   */
}
 80021dc:	bf00      	nop
 80021de:	370c      	adds	r7, #12
 80021e0:	46bd      	mov	sp, r7
 80021e2:	bc80      	pop	{r7}
 80021e4:	4770      	bx	lr

080021e6 <HAL_UART_ErrorCallback>:
  * @param  huart  Pointer to a UART_HandleTypeDef structure that contains
  *                the configuration information for the specified UART module.
  * @retval None
  */
__weak void HAL_UART_ErrorCallback(UART_HandleTypeDef *huart)
{
 80021e6:	b480      	push	{r7}
 80021e8:	b083      	sub	sp, #12
 80021ea:	af00      	add	r7, sp, #0
 80021ec:	6078      	str	r0, [r7, #4]
  /* Prevent unused argument(s) compilation warning */
  UNUSED(huart);
  /* NOTE: This function should not be modified, when the callback is needed,
           the HAL_UART_ErrorCallback could be implemented in the user file
   */
}
 80021ee:	bf00      	nop
 80021f0:	370c      	adds	r7, #12
 80021f2:	46bd      	mov	sp, r7
 80021f4:	bc80      	pop	{r7}
 80021f6:	4770      	bx	lr

080021f8 <HAL_UARTEx_RxEventCallback>:
  * @param  Size  Number of data available in application reception buffer (indicates a position in
  *               reception buffer until which, data are available)
  * @retval None
  */
__weak void HAL_UARTEx_RxEventCallback(UART_HandleTypeDef *huart, uint16_t Size)
{
 80021f8:	b480      	push	{r7}
 80021fa:	b083      	sub	sp, #12
 80021fc:	af00      	add	r7, sp, #0
 80021fe:	6078      	str	r0, [r7, #4]
 8002200:	460b      	mov	r3, r1
 8002202:	807b      	strh	r3, [r7, #2]
  UNUSED(Size);

  /* NOTE : This function should not be modified, when the callback is needed,
            the HAL_UARTEx_RxEventCallback can be implemented in the user file.
   */
}
 8002204:	bf00      	nop
 8002206:	370c      	adds	r7, #12
 8002208:	46bd      	mov	sp, r7
 800220a:	bc80      	pop	{r7}
 800220c:	4770      	bx	lr

0800220e <UART_Start_Receive_IT>:
  * @param  pData Pointer to data buffer (u8 or u16 data elements).
  * @param  Size  Amount of data elements (u8 or u16) to be received.
  * @retval HAL status
  */
HAL_StatusTypeDef UART_Start_Receive_IT(UART_HandleTypeDef *huart, uint8_t *pData, uint16_t Size)
{
 800220e:	b480      	push	{r7}
 8002210:	b085      	sub	sp, #20
 8002212:	af00      	add	r7, sp, #0
 8002214:	60f8      	str	r0, [r7, #12]
 8002216:	60b9      	str	r1, [r7, #8]
 8002218:	4613      	mov	r3, r2
 800221a:	80fb      	strh	r3, [r7, #6]
  huart->pRxBuffPtr = pData;
 800221c:	68fb      	ldr	r3, [r7, #12]
 800221e:	68ba      	ldr	r2, [r7, #8]
 8002220:	629a      	str	r2, [r3, #40]	@ 0x28
  huart->RxXferSize = Size;
 8002222:	68fb      	ldr	r3, [r7, #12]
 8002224:	88fa      	ldrh	r2, [r7, #6]
 8002226:	859a      	strh	r2, [r3, #44]	@ 0x2c
  huart->RxXferCount = Size;
 8002228:	68fb      	ldr	r3, [r7, #12]
 800222a:	88fa      	ldrh	r2, [r7, #6]
 800222c:	85da      	strh	r2, [r3, #46]	@ 0x2e

  huart->ErrorCode = HAL_UART_ERROR_NONE;
 800222e:	68fb      	ldr	r3, [r7, #12]
 8002230:	2200      	movs	r2, #0
 8002232:	645a      	str	r2, [r3, #68]	@ 0x44
  huart->RxState = HAL_UART_STATE_BUSY_RX;
 8002234:	68fb      	ldr	r3, [r7, #12]
 8002236:	2222      	movs	r2, #34	@ 0x22
 8002238:	f883 2042 	strb.w	r2, [r3, #66]	@ 0x42

  if (huart->Init.Parity != UART_PARITY_NONE)
 800223c:	68fb      	ldr	r3, [r7, #12]
 800223e:	691b      	ldr	r3, [r3, #16]
 8002240:	2b00      	cmp	r3, #0
 8002242:	d007      	beq.n	8002254 <UART_Start_Receive_IT+0x46>
  {
    /* Enable the UART Parity Error Interrupt */
    __HAL_UART_ENABLE_IT(huart, UART_IT_PE);
 8002244:	68fb      	ldr	r3, [r7, #12]
 8002246:	681b      	ldr	r3, [r3, #0]
 8002248:	68da      	ldr	r2, [r3, #12]
 800224a:	68fb      	ldr	r3, [r7, #12]
 800224c:	681b      	ldr	r3, [r3, #0]
 800224e:	f442 7280 	orr.w	r2, r2, #256	@ 0x100
 8002252:	60da      	str	r2, [r3, #12]
  }

  /* Enable the UART Error Interrupt: (Frame error, noise error, overrun error) */
  __HAL_UART_ENABLE_IT(huart, UART_IT_ERR);
 8002254:	68fb      	ldr	r3, [r7, #12]
 8002256:	681b      	ldr	r3, [r3, #0]
 8002258:	695a      	ldr	r2, [r3, #20]
 800225a:	68fb      	ldr	r3, [r7, #12]
 800225c:	681b      	ldr	r3, [r3, #0]
 800225e:	f042 0201 	orr.w	r2, r2, #1
 8002262:	615a      	str	r2, [r3, #20]

  /* Enable the UART Data Register not empty Interrupt */
  __HAL_UART_ENABLE_IT(huart, UART_IT_RXNE);
 8002264:	68fb      	ldr	r3, [r7, #12]
 8002266:	681b      	ldr	r3, [r3, #0]
 8002268:	68da      	ldr	r2, [r3, #12]
 800226a:	68fb      	ldr	r3, [r7, #12]
 800226c:	681b      	ldr	r3, [r3, #0]
 800226e:	f042 0220 	orr.w	r2, r2, #32
 8002272:	60da      	str	r2, [r3, #12]

  return HAL_OK;
 8002274:	2300      	movs	r3, #0
}
 8002276:	4618      	mov	r0, r3
 8002278:	3714      	adds	r7, #20
 800227a:	46bd      	mov	sp, r7
 800227c:	bc80      	pop	{r7}
 800227e:	4770      	bx	lr

08002280 <UART_EndRxTransfer>:
  * @brief  End ongoing Rx transfer on UART peripheral (following error detection or Reception completion).
  * @param  huart UART handle.
  * @retval None
  */
static void UART_EndRxTransfer(UART_HandleTypeDef *huart)
{
 8002280:	b480      	push	{r7}
 8002282:	b095      	sub	sp, #84	@ 0x54
 8002284:	af00      	add	r7, sp, #0
 8002286:	6078      	str	r0, [r7, #4]
  /* Disable RXNE, PE and ERR (Frame error, noise error, overrun error) interrupts */
  ATOMIC_CLEAR_BIT(huart->Instance->CR1, (USART_CR1_RXNEIE | USART_CR1_PEIE));
 8002288:	687b      	ldr	r3, [r7, #4]
 800228a:	681b      	ldr	r3, [r3, #0]
 800228c:	330c      	adds	r3, #12
 800228e:	637b      	str	r3, [r7, #52]	@ 0x34
   __ASM volatile ("ldrex %0, %1" : "=r" (result) : "Q" (*addr) );
 8002290:	6b7b      	ldr	r3, [r7, #52]	@ 0x34
 8002292:	e853 3f00 	ldrex	r3, [r3]
 8002296:	633b      	str	r3, [r7, #48]	@ 0x30
   return(result);
 8002298:	6b3b      	ldr	r3, [r7, #48]	@ 0x30
 800229a:	f423 7390 	bic.w	r3, r3, #288	@ 0x120
 800229e:	64fb      	str	r3, [r7, #76]	@ 0x4c
 80022a0:	687b      	ldr	r3, [r7, #4]
 80022a2:	681b      	ldr	r3, [r3, #0]
 80022a4:	330c      	adds	r3, #12
 80022a6:	6cfa      	ldr	r2, [r7, #76]	@ 0x4c
 80022a8:	643a      	str	r2, [r7, #64]	@ 0x40
 80022aa:	63fb      	str	r3, [r7, #60]	@ 0x3c
   __ASM volatile ("strex %0, %2, %1" : "=&r" (result), "=Q" (*addr) : "r" (value) );
 80022ac:	6bf9      	ldr	r1, [r7, #60]	@ 0x3c
 80022ae:	6c3a      	ldr	r2, [r7, #64]	@ 0x40
 80022b0:	e841 2300 	strex	r3, r2, [r1]
 80022b4:	63bb      	str	r3, [r7, #56]	@ 0x38
   return(result);
 80022b6:	6bbb      	ldr	r3, [r7, #56]	@ 0x38
 80022b8:	2b00      	cmp	r3, #0
 80022ba:	d1e5      	bne.n	8002288 <UART_EndRxTransfer+0x8>
  ATOMIC_CLEAR_BIT(huart->Instance->CR3, USART_CR3_EIE);
 80022bc:	687b      	ldr	r3, [r7, #4]
 80022be:	681b      	ldr	r3, [r3, #0]
 80022c0:	3314      	adds	r3, #20
 80022c2:	623b      	str	r3, [r7, #32]
   __ASM volatile ("ldrex %0, %1" : "=r" (result) : "Q" (*addr) );
 80022c4:	6a3b      	ldr	r3, [r7, #32]
 80022c6:	e853 3f00 	ldrex	r3, [r3]
 80022ca:	61fb      	str	r3, [r7, #28]
   return(result);
 80022cc:	69fb      	ldr	r3, [r7, #28]
 80022ce:	f023 0301 	bic.w	r3, r3, #1
 80022d2:	64bb      	str	r3, [r7, #72]	@ 0x48
 80022d4:	687b      	ldr	r3, [r7, #4]
 80022d6:	681b      	ldr	r3, [r3, #0]
 80022d8:	3314      	adds	r3, #20
 80022da:	6cba      	ldr	r2, [r7, #72]	@ 0x48
 80022dc:	62fa      	str	r2, [r7, #44]	@ 0x2c
 80022de:	62bb      	str	r3, [r7, #40]	@ 0x28
   __ASM volatile ("strex %0, %2, %1" : "=&r" (result), "=Q" (*addr) : "r" (value) );
 80022e0:	6ab9      	ldr	r1, [r7, #40]	@ 0x28
 80022e2:	6afa      	ldr	r2, [r7, #44]	@ 0x2c
 80022e4:	e841 2300 	strex	r3, r2, [r1]
 80022e8:	627b      	str	r3, [r7, #36]	@ 0x24
   return(result);
 80022ea:	6a7b      	ldr	r3, [r7, #36]	@ 0x24
 80022ec:	2b00      	cmp	r3, #0
 80022ee:	d1e5      	bne.n	80022bc <UART_EndRxTransfer+0x3c>

  /* In case of reception waiting for IDLE event, disable also the IDLE IE interrupt source */
  if (huart->ReceptionType == HAL_UART_RECEPTION_TOIDLE)
 80022f0:	687b      	ldr	r3, [r7, #4]
 80022f2:	6b1b      	ldr	r3, [r3, #48]	@ 0x30
 80022f4:	2b01      	cmp	r3, #1
 80022f6:	d119      	bne.n	800232c <UART_EndRxTransfer+0xac>
  {
    ATOMIC_CLEAR_BIT(huart->Instance->CR1, USART_CR1_IDLEIE);
 80022f8:	687b      	ldr	r3, [r7, #4]
 80022fa:	681b      	ldr	r3, [r3, #0]
 80022fc:	330c      	adds	r3, #12
 80022fe:	60fb      	str	r3, [r7, #12]
   __ASM volatile ("ldrex %0, %1" : "=r" (result) : "Q" (*addr) );
 8002300:	68fb      	ldr	r3, [r7, #12]
 8002302:	e853 3f00 	ldrex	r3, [r3]
 8002306:	60bb      	str	r3, [r7, #8]
   return(result);
 8002308:	68bb      	ldr	r3, [r7, #8]
 800230a:	f023 0310 	bic.w	r3, r3, #16
 800230e:	647b      	str	r3, [r7, #68]	@ 0x44
 8002310:	687b      	ldr	r3, [r7, #4]
 8002312:	681b      	ldr	r3, [r3, #0]
 8002314:	330c      	adds	r3, #12
 8002316:	6c7a      	ldr	r2, [r7, #68]	@ 0x44
 8002318:	61ba      	str	r2, [r7, #24]
 800231a:	617b      	str	r3, [r7, #20]
   __ASM volatile ("strex %0, %2, %1" : "=&r" (result), "=Q" (*addr) : "r" (value) );
 800231c:	6979      	ldr	r1, [r7, #20]
 800231e:	69ba      	ldr	r2, [r7, #24]
 8002320:	e841 2300 	strex	r3, r2, [r1]
 8002324:	613b      	str	r3, [r7, #16]
   return(result);
 8002326:	693b      	ldr	r3, [r7, #16]
 8002328:	2b00      	cmp	r3, #0
 800232a:	d1e5      	bne.n	80022f8 <UART_EndRxTransfer+0x78>
  }

  /* At end of Rx process, restore huart->RxState to Ready */
  huart->RxState = HAL_UART_STATE_READY;
 800232c:	687b      	ldr	r3, [r7, #4]
 800232e:	2220      	movs	r2, #32
 8002330:	f883 2042 	strb.w	r2, [r3, #66]	@ 0x42
  huart->ReceptionType = HAL_UART_RECEPTION_STANDARD;
 8002334:	687b      	ldr	r3, [r7, #4]
 8002336:	2200      	movs	r2, #0
 8002338:	631a      	str	r2, [r3, #48]	@ 0x30
}
 800233a:	bf00      	nop
 800233c:	3754      	adds	r7, #84	@ 0x54
 800233e:	46bd      	mov	sp, r7
 8002340:	bc80      	pop	{r7}
 8002342:	4770      	bx	lr

08002344 <UART_DMAAbortOnError>:
  * @param  hdma  Pointer to a DMA_HandleTypeDef structure that contains
  *               the configuration information for the specified DMA module.
  * @retval None
  */
static void UART_DMAAbortOnError(DMA_HandleTypeDef *hdma)
{
 8002344:	b580      	push	{r7, lr}
 8002346:	b084      	sub	sp, #16
 8002348:	af00      	add	r7, sp, #0
 800234a:	6078      	str	r0, [r7, #4]
  UART_HandleTypeDef *huart = (UART_HandleTypeDef *)((DMA_HandleTypeDef *)hdma)->Parent;
 800234c:	687b      	ldr	r3, [r7, #4]
 800234e:	6a5b      	ldr	r3, [r3, #36]	@ 0x24
 8002350:	60fb      	str	r3, [r7, #12]
  huart->RxXferCount = 0x00U;
 8002352:	68fb      	ldr	r3, [r7, #12]
 8002354:	2200      	movs	r2, #0
 8002356:	85da      	strh	r2, [r3, #46]	@ 0x2e
  huart->TxXferCount = 0x00U;
 8002358:	68fb      	ldr	r3, [r7, #12]
 800235a:	2200      	movs	r2, #0
 800235c:	84da      	strh	r2, [r3, #38]	@ 0x26
#if (USE_HAL_UART_REGISTER_CALLBACKS == 1)
  /*Call registered error callback*/
  huart->ErrorCallback(huart);
#else
  /*Call legacy weak error callback*/
  HAL_UART_ErrorCallback(huart);
 800235e:	68f8      	ldr	r0, [r7, #12]
 8002360:	f7ff ff41 	bl	80021e6 <HAL_UART_ErrorCallback>
#endif /* USE_HAL_UART_REGISTER_CALLBACKS */
}
 8002364:	bf00      	nop
 8002366:	3710      	adds	r7, #16
 8002368:	46bd      	mov	sp, r7
 800236a:	bd80      	pop	{r7, pc}

0800236c <UART_Transmit_IT>:
  * @param  huart  Pointer to a UART_HandleTypeDef structure that contains
  *                the configuration information for the specified UART module.
  * @retval HAL status
  */
static HAL_StatusTypeDef UART_Transmit_IT(UART_HandleTypeDef *huart)
{
 800236c:	b480      	push	{r7}
 800236e:	b085      	sub	sp, #20
 8002370:	af00      	add	r7, sp, #0
 8002372:	6078      	str	r0, [r7, #4]
  const uint16_t *tmp;

  /* Check that a Tx process is ongoing */
  if (huart->gState == HAL_UART_STATE_BUSY_TX)
 8002374:	687b      	ldr	r3, [r7, #4]
 8002376:	f893 3041 	ldrb.w	r3, [r3, #65]	@ 0x41
 800237a:	b2db      	uxtb	r3, r3
 800237c:	2b21      	cmp	r3, #33	@ 0x21
 800237e:	d13e      	bne.n	80023fe <UART_Transmit_IT+0x92>
  {
    if ((huart->Init.WordLength == UART_WORDLENGTH_9B) && (huart->Init.Parity == UART_PARITY_NONE))
 8002380:	687b      	ldr	r3, [r7, #4]
 8002382:	689b      	ldr	r3, [r3, #8]
 8002384:	f5b3 5f80 	cmp.w	r3, #4096	@ 0x1000
 8002388:	d114      	bne.n	80023b4 <UART_Transmit_IT+0x48>
 800238a:	687b      	ldr	r3, [r7, #4]
 800238c:	691b      	ldr	r3, [r3, #16]
 800238e:	2b00      	cmp	r3, #0
 8002390:	d110      	bne.n	80023b4 <UART_Transmit_IT+0x48>
    {
      tmp = (const uint16_t *) huart->pTxBuffPtr;
 8002392:	687b      	ldr	r3, [r7, #4]
 8002394:	6a1b      	ldr	r3, [r3, #32]
 8002396:	60fb      	str	r3, [r7, #12]
      huart->Instance->DR = (uint16_t)(*tmp & (uint16_t)0x01FF);
 8002398:	68fb      	ldr	r3, [r7, #12]
 800239a:	881b      	ldrh	r3, [r3, #0]
 800239c:	461a      	mov	r2, r3
 800239e:	687b      	ldr	r3, [r7, #4]
 80023a0:	681b      	ldr	r3, [r3, #0]
 80023a2:	f3c2 0208 	ubfx	r2, r2, #0, #9
 80023a6:	605a      	str	r2, [r3, #4]
      huart->pTxBuffPtr += 2U;
 80023a8:	687b      	ldr	r3, [r7, #4]
 80023aa:	6a1b      	ldr	r3, [r3, #32]
 80023ac:	1c9a      	adds	r2, r3, #2
 80023ae:	687b      	ldr	r3, [r7, #4]
 80023b0:	621a      	str	r2, [r3, #32]
 80023b2:	e008      	b.n	80023c6 <UART_Transmit_IT+0x5a>
    }
    else
    {
      huart->Instance->DR = (uint8_t)(*huart->pTxBuffPtr++ & (uint8_t)0x00FF);
 80023b4:	687b      	ldr	r3, [r7, #4]
 80023b6:	6a1b      	ldr	r3, [r3, #32]
 80023b8:	1c59      	adds	r1, r3, #1
 80023ba:	687a      	ldr	r2, [r7, #4]
 80023bc:	6211      	str	r1, [r2, #32]
 80023be:	781a      	ldrb	r2, [r3, #0]
 80023c0:	687b      	ldr	r3, [r7, #4]
 80023c2:	681b      	ldr	r3, [r3, #0]
 80023c4:	605a      	str	r2, [r3, #4]
    }

    if (--huart->TxXferCount == 0U)
 80023c6:	687b      	ldr	r3, [r7, #4]
 80023c8:	8cdb      	ldrh	r3, [r3, #38]	@ 0x26
 80023ca:	b29b      	uxth	r3, r3
 80023cc:	3b01      	subs	r3, #1
 80023ce:	b29b      	uxth	r3, r3
 80023d0:	687a      	ldr	r2, [r7, #4]
 80023d2:	4619      	mov	r1, r3
 80023d4:	84d1      	strh	r1, [r2, #38]	@ 0x26
 80023d6:	2b00      	cmp	r3, #0
 80023d8:	d10f      	bne.n	80023fa <UART_Transmit_IT+0x8e>
    {
      /* Disable the UART Transmit Data Register Empty Interrupt */
      __HAL_UART_DISABLE_IT(huart, UART_IT_TXE);
 80023da:	687b      	ldr	r3, [r7, #4]
 80023dc:	681b      	ldr	r3, [r3, #0]
 80023de:	68da      	ldr	r2, [r3, #12]
 80023e0:	687b      	ldr	r3, [r7, #4]
 80023e2:	681b      	ldr	r3, [r3, #0]
 80023e4:	f022 0280 	bic.w	r2, r2, #128	@ 0x80
 80023e8:	60da      	str	r2, [r3, #12]

      /* Enable the UART Transmit Complete Interrupt */
      __HAL_UART_ENABLE_IT(huart, UART_IT_TC);
 80023ea:	687b      	ldr	r3, [r7, #4]
 80023ec:	681b      	ldr	r3, [r3, #0]
 80023ee:	68da      	ldr	r2, [r3, #12]
 80023f0:	687b      	ldr	r3, [r7, #4]
 80023f2:	681b      	ldr	r3, [r3, #0]
 80023f4:	f042 0240 	orr.w	r2, r2, #64	@ 0x40
 80023f8:	60da      	str	r2, [r3, #12]
    }
    return HAL_OK;
 80023fa:	2300      	movs	r3, #0
 80023fc:	e000      	b.n	8002400 <UART_Transmit_IT+0x94>
  }
  else
  {
    return HAL_BUSY;
 80023fe:	2302      	movs	r3, #2
  }
}
 8002400:	4618      	mov	r0, r3
 8002402:	3714      	adds	r7, #20
 8002404:	46bd      	mov	sp, r7
 8002406:	bc80      	pop	{r7}
 8002408:	4770      	bx	lr

0800240a <UART_EndTransmit_IT>:
  * @param  huart  Pointer to a UART_HandleTypeDef structure that contains
  *                the configuration information for the specified UART module.
  * @retval HAL status
  */
static HAL_StatusTypeDef UART_EndTransmit_IT(UART_HandleTypeDef *huart)
{
 800240a:	b580      	push	{r7, lr}
 800240c:	b082      	sub	sp, #8
 800240e:	af00      	add	r7, sp, #0
 8002410:	6078      	str	r0, [r7, #4]
  /* Disable the UART Transmit Complete Interrupt */
  __HAL_UART_DISABLE_IT(huart, UART_IT_TC);
 8002412:	687b      	ldr	r3, [r7, #4]
 8002414:	681b      	ldr	r3, [r3, #0]
 8002416:	68da      	ldr	r2, [r3, #12]
 8002418:	687b      	ldr	r3, [r7, #4]
 800241a:	681b      	ldr	r3, [r3, #0]
 800241c:	f022 0240 	bic.w	r2, r2, #64	@ 0x40
 8002420:	60da      	str	r2, [r3, #12]

  /* Tx process is ended, restore huart->gState to Ready */
  huart->gState = HAL_UART_STATE_READY;
 8002422:	687b      	ldr	r3, [r7, #4]
 8002424:	2220      	movs	r2, #32
 8002426:	f883 2041 	strb.w	r2, [r3, #65]	@ 0x41
#if (USE_HAL_UART_REGISTER_CALLBACKS == 1)
  /*Call registered Tx complete callback*/
  huart->TxCpltCallback(huart);
#else
  /*Call legacy weak Tx complete callback*/
  HAL_UART_TxCpltCallback(huart);
 800242a:	6878      	ldr	r0, [r7, #4]
 800242c:	f7ff fed2 	bl	80021d4 <HAL_UART_TxCpltCallback>
#endif /* USE_HAL_UART_REGISTER_CALLBACKS */

  return HAL_OK;
 8002430:	2300      	movs	r3, #0
}
 8002432:	4618      	mov	r0, r3
 8002434:	3708      	adds	r7, #8
 8002436:	46bd      	mov	sp, r7
 8002438:	bd80      	pop	{r7, pc}

0800243a <UART_Receive_IT>:
  * @param  huart  Pointer to a UART_HandleTypeDef structure that contains
  *                the configuration information for the specified UART module.
  * @retval HAL status
  */
static HAL_StatusTypeDef UART_Receive_IT(UART_HandleTypeDef *huart)
{
 800243a:	b580      	push	{r7, lr}
 800243c:	b08c      	sub	sp, #48	@ 0x30
 800243e:	af00      	add	r7, sp, #0
 8002440:	6078      	str	r0, [r7, #4]
  uint8_t  *pdata8bits;
  uint16_t *pdata16bits;

  /* Check that a Rx process is ongoing */
  if (huart->RxState == HAL_UART_STATE_BUSY_RX)
 8002442:	687b      	ldr	r3, [r7, #4]
 8002444:	f893 3042 	ldrb.w	r3, [r3, #66]	@ 0x42
 8002448:	b2db      	uxtb	r3, r3
 800244a:	2b22      	cmp	r3, #34	@ 0x22
 800244c:	f040 80ae 	bne.w	80025ac <UART_Receive_IT+0x172>
  {
    if ((huart->Init.WordLength == UART_WORDLENGTH_9B) && (huart->Init.Parity == UART_PARITY_NONE))
 8002450:	687b      	ldr	r3, [r7, #4]
 8002452:	689b      	ldr	r3, [r3, #8]
 8002454:	f5b3 5f80 	cmp.w	r3, #4096	@ 0x1000
 8002458:	d117      	bne.n	800248a <UART_Receive_IT+0x50>
 800245a:	687b      	ldr	r3, [r7, #4]
 800245c:	691b      	ldr	r3, [r3, #16]
 800245e:	2b00      	cmp	r3, #0
 8002460:	d113      	bne.n	800248a <UART_Receive_IT+0x50>
    {
      pdata8bits  = NULL;
 8002462:	2300      	movs	r3, #0
 8002464:	62fb      	str	r3, [r7, #44]	@ 0x2c
      pdata16bits = (uint16_t *) huart->pRxBuffPtr;
 8002466:	687b      	ldr	r3, [r7, #4]
 8002468:	6a9b      	ldr	r3, [r3, #40]	@ 0x28
 800246a:	62bb      	str	r3, [r7, #40]	@ 0x28
      *pdata16bits = (uint16_t)(huart->Instance->DR & (uint16_t)0x01FF);
 800246c:	687b      	ldr	r3, [r7, #4]
 800246e:	681b      	ldr	r3, [r3, #0]
 8002470:	685b      	ldr	r3, [r3, #4]
 8002472:	b29b      	uxth	r3, r3
 8002474:	f3c3 0308 	ubfx	r3, r3, #0, #9
 8002478:	b29a      	uxth	r2, r3
 800247a:	6abb      	ldr	r3, [r7, #40]	@ 0x28
 800247c:	801a      	strh	r2, [r3, #0]
      huart->pRxBuffPtr += 2U;
 800247e:	687b      	ldr	r3, [r7, #4]
 8002480:	6a9b      	ldr	r3, [r3, #40]	@ 0x28
 8002482:	1c9a      	adds	r2, r3, #2
 8002484:	687b      	ldr	r3, [r7, #4]
 8002486:	629a      	str	r2, [r3, #40]	@ 0x28
 8002488:	e026      	b.n	80024d8 <UART_Receive_IT+0x9e>
    }
    else
    {
      pdata8bits = (uint8_t *) huart->pRxBuffPtr;
 800248a:	687b      	ldr	r3, [r7, #4]
 800248c:	6a9b      	ldr	r3, [r3, #40]	@ 0x28
 800248e:	62fb      	str	r3, [r7, #44]	@ 0x2c
      pdata16bits  = NULL;
 8002490:	2300      	movs	r3, #0
 8002492:	62bb      	str	r3, [r7, #40]	@ 0x28

      if ((huart->Init.WordLength == UART_WORDLENGTH_9B) || ((huart->Init.WordLength == UART_WORDLENGTH_8B) && (huart->Init.Parity == UART_PARITY_NONE)))
 8002494:	687b      	ldr	r3, [r7, #4]
 8002496:	689b      	ldr	r3, [r3, #8]
 8002498:	f5b3 5f80 	cmp.w	r3, #4096	@ 0x1000
 800249c:	d007      	beq.n	80024ae <UART_Receive_IT+0x74>
 800249e:	687b      	ldr	r3, [r7, #4]
 80024a0:	689b      	ldr	r3, [r3, #8]
 80024a2:	2b00      	cmp	r3, #0
 80024a4:	d10a      	bne.n	80024bc <UART_Receive_IT+0x82>
 80024a6:	687b      	ldr	r3, [r7, #4]
 80024a8:	691b      	ldr	r3, [r3, #16]
 80024aa:	2b00      	cmp	r3, #0
 80024ac:	d106      	bne.n	80024bc <UART_Receive_IT+0x82>
      {
        *pdata8bits = (uint8_t)(huart->Instance->DR & (uint8_t)0x00FF);
 80024ae:	687b      	ldr	r3, [r7, #4]
 80024b0:	681b      	ldr	r3, [r3, #0]
 80024b2:	685b      	ldr	r3, [r3, #4]
 80024b4:	b2da      	uxtb	r2, r3
 80024b6:	6afb      	ldr	r3, [r7, #44]	@ 0x2c
 80024b8:	701a      	strb	r2, [r3, #0]
 80024ba:	e008      	b.n	80024ce <UART_Receive_IT+0x94>
      }
      else
      {
        *pdata8bits = (uint8_t)(huart->Instance->DR & (uint8_t)0x007F);
 80024bc:	687b      	ldr	r3, [r7, #4]
 80024be:	681b      	ldr	r3, [r3, #0]
 80024c0:	685b      	ldr	r3, [r3, #4]
 80024c2:	b2db      	uxtb	r3, r3
 80024c4:	f003 037f 	and.w	r3, r3, #127	@ 0x7f
 80024c8:	b2da      	uxtb	r2, r3
 80024ca:	6afb      	ldr	r3, [r7, #44]	@ 0x2c
 80024cc:	701a      	strb	r2, [r3, #0]
      }
      huart->pRxBuffPtr += 1U;
 80024ce:	687b      	ldr	r3, [r7, #4]
 80024d0:	6a9b      	ldr	r3, [r3, #40]	@ 0x28
 80024d2:	1c5a      	adds	r2, r3, #1
 80024d4:	687b      	ldr	r3, [r7, #4]
 80024d6:	629a      	str	r2, [r3, #40]	@ 0x28
    }

    if (--huart->RxXferCount == 0U)
 80024d8:	687b      	ldr	r3, [r7, #4]
 80024da:	8ddb      	ldrh	r3, [r3, #46]	@ 0x2e
 80024dc:	b29b      	uxth	r3, r3
 80024de:	3b01      	subs	r3, #1
 80024e0:	b29b      	uxth	r3, r3
 80024e2:	687a      	ldr	r2, [r7, #4]
 80024e4:	4619      	mov	r1, r3
 80024e6:	85d1      	strh	r1, [r2, #46]	@ 0x2e
 80024e8:	2b00      	cmp	r3, #0
 80024ea:	d15d      	bne.n	80025a8 <UART_Receive_IT+0x16e>
    {
      /* Disable the UART Data Register not empty Interrupt */
      __HAL_UART_DISABLE_IT(huart, UART_IT_RXNE);
 80024ec:	687b      	ldr	r3, [r7, #4]
 80024ee:	681b      	ldr	r3, [r3, #0]
 80024f0:	68da      	ldr	r2, [r3, #12]
 80024f2:	687b      	ldr	r3, [r7, #4]
 80024f4:	681b      	ldr	r3, [r3, #0]
 80024f6:	f022 0220 	bic.w	r2, r2, #32
 80024fa:	60da      	str	r2, [r3, #12]

      /* Disable the UART Parity Error Interrupt */
      __HAL_UART_DISABLE_IT(huart, UART_IT_PE);
 80024fc:	687b      	ldr	r3, [r7, #4]
 80024fe:	681b      	ldr	r3, [r3, #0]
 8002500:	68da      	ldr	r2, [r3, #12]
 8002502:	687b      	ldr	r3, [r7, #4]
 8002504:	681b      	ldr	r3, [r3, #0]
 8002506:	f422 7280 	bic.w	r2, r2, #256	@ 0x100
 800250a:	60da      	str	r2, [r3, #12]

      /* Disable the UART Error Interrupt: (Frame error, noise error, overrun error) */
      __HAL_UART_DISABLE_IT(huart, UART_IT_ERR);
 800250c:	687b      	ldr	r3, [r7, #4]
 800250e:	681b      	ldr	r3, [r3, #0]
 8002510:	695a      	ldr	r2, [r3, #20]
 8002512:	687b      	ldr	r3, [r7, #4]
 8002514:	681b      	ldr	r3, [r3, #0]
 8002516:	f022 0201 	bic.w	r2, r2, #1
 800251a:	615a      	str	r2, [r3, #20]

      /* Rx process is completed, restore huart->RxState to Ready */
      huart->RxState = HAL_UART_STATE_READY;
 800251c:	687b      	ldr	r3, [r7, #4]
 800251e:	2220      	movs	r2, #32
 8002520:	f883 2042 	strb.w	r2, [r3, #66]	@ 0x42

      /* Initialize type of RxEvent to Transfer Complete */
      huart->RxEventType = HAL_UART_RXEVENT_TC;
 8002524:	687b      	ldr	r3, [r7, #4]
 8002526:	2200      	movs	r2, #0
 8002528:	635a      	str	r2, [r3, #52]	@ 0x34

      /* Check current reception Mode :
         If Reception till IDLE event has been selected : */
      if (huart->ReceptionType == HAL_UART_RECEPTION_TOIDLE)
 800252a:	687b      	ldr	r3, [r7, #4]
 800252c:	6b1b      	ldr	r3, [r3, #48]	@ 0x30
 800252e:	2b01      	cmp	r3, #1
 8002530:	d135      	bne.n	800259e <UART_Receive_IT+0x164>
      {
        /* Set reception type to Standard */
        huart->ReceptionType = HAL_UART_RECEPTION_STANDARD;
 8002532:	687b      	ldr	r3, [r7, #4]
 8002534:	2200      	movs	r2, #0
 8002536:	631a      	str	r2, [r3, #48]	@ 0x30

        /* Disable IDLE interrupt */
        ATOMIC_CLEAR_BIT(huart->Instance->CR1, USART_CR1_IDLEIE);
 8002538:	687b      	ldr	r3, [r7, #4]
 800253a:	681b      	ldr	r3, [r3, #0]
 800253c:	330c      	adds	r3, #12
 800253e:	617b      	str	r3, [r7, #20]
   __ASM volatile ("ldrex %0, %1" : "=r" (result) : "Q" (*addr) );
 8002540:	697b      	ldr	r3, [r7, #20]
 8002542:	e853 3f00 	ldrex	r3, [r3]
 8002546:	613b      	str	r3, [r7, #16]
   return(result);
 8002548:	693b      	ldr	r3, [r7, #16]
 800254a:	f023 0310 	bic.w	r3, r3, #16
 800254e:	627b      	str	r3, [r7, #36]	@ 0x24
 8002550:	687b      	ldr	r3, [r7, #4]
 8002552:	681b      	ldr	r3, [r3, #0]
 8002554:	330c      	adds	r3, #12
 8002556:	6a7a      	ldr	r2, [r7, #36]	@ 0x24
 8002558:	623a      	str	r2, [r7, #32]
 800255a:	61fb      	str	r3, [r7, #28]
   __ASM volatile ("strex %0, %2, %1" : "=&r" (result), "=Q" (*addr) : "r" (value) );
 800255c:	69f9      	ldr	r1, [r7, #28]
 800255e:	6a3a      	ldr	r2, [r7, #32]
 8002560:	e841 2300 	strex	r3, r2, [r1]
 8002564:	61bb      	str	r3, [r7, #24]
   return(result);
 8002566:	69bb      	ldr	r3, [r7, #24]
 8002568:	2b00      	cmp	r3, #0
 800256a:	d1e5      	bne.n	8002538 <UART_Receive_IT+0xfe>

        /* Check if IDLE flag is set */
        if (__HAL_UART_GET_FLAG(huart, UART_FLAG_IDLE))
 800256c:	687b      	ldr	r3, [r7, #4]
 800256e:	681b      	ldr	r3, [r3, #0]
 8002570:	681b      	ldr	r3, [r3, #0]
 8002572:	f003 0310 	and.w	r3, r3, #16
 8002576:	2b10      	cmp	r3, #16
 8002578:	d10a      	bne.n	8002590 <UART_Receive_IT+0x156>
        {
          /* Clear IDLE flag in ISR */
          __HAL_UART_CLEAR_IDLEFLAG(huart);
 800257a:	2300      	movs	r3, #0
 800257c:	60fb      	str	r3, [r7, #12]
 800257e:	687b      	ldr	r3, [r7, #4]
 8002580:	681b      	ldr	r3, [r3, #0]
 8002582:	681b      	ldr	r3, [r3, #0]
 8002584:	60fb      	str	r3, [r7, #12]
 8002586:	687b      	ldr	r3, [r7, #4]
 8002588:	681b      	ldr	r3, [r3, #0]
 800258a:	685b      	ldr	r3, [r3, #4]
 800258c:	60fb      	str	r3, [r7, #12]
 800258e:	68fb      	ldr	r3, [r7, #12]
#if (USE_HAL_UART_REGISTER_CALLBACKS == 1)
        /*Call registered Rx Event callback*/
        huart->RxEventCallback(huart, huart->RxXferSize);
#else
        /*Call legacy weak Rx Event callback*/
        HAL_UARTEx_RxEventCallback(huart, huart->RxXferSize);
 8002590:	687b      	ldr	r3, [r7, #4]
 8002592:	8d9b      	ldrh	r3, [r3, #44]	@ 0x2c
 8002594:	4619      	mov	r1, r3
 8002596:	6878      	ldr	r0, [r7, #4]
 8002598:	f7ff fe2e 	bl	80021f8 <HAL_UARTEx_RxEventCallback>
 800259c:	e002      	b.n	80025a4 <UART_Receive_IT+0x16a>
#if (USE_HAL_UART_REGISTER_CALLBACKS == 1)
        /*Call registered Rx complete callback*/
        huart->RxCpltCallback(huart);
#else
        /*Call legacy weak Rx complete callback*/
        HAL_UART_RxCpltCallback(huart);
 800259e:	6878      	ldr	r0, [r7, #4]
 80025a0:	f7fd ff78 	bl	8000494 <HAL_UART_RxCpltCallback>
#endif /* USE_HAL_UART_REGISTER_CALLBACKS */
      }

      return HAL_OK;
 80025a4:	2300      	movs	r3, #0
 80025a6:	e002      	b.n	80025ae <UART_Receive_IT+0x174>
    }
    return HAL_OK;
 80025a8:	2300      	movs	r3, #0
 80025aa:	e000      	b.n	80025ae <UART_Receive_IT+0x174>
  }
  else
  {
    return HAL_BUSY;
 80025ac:	2302      	movs	r3, #2
  }
}
 80025ae:	4618      	mov	r0, r3
 80025b0:	3730      	adds	r7, #48	@ 0x30
 80025b2:	46bd      	mov	sp, r7
 80025b4:	bd80      	pop	{r7, pc}
	...

080025b8 <UART_SetConfig>:
  * @param  huart  Pointer to a UART_HandleTypeDef structure that contains
  *                the configuration information for the specified UART module.
  * @retval None
  */
static void UART_SetConfig(UART_HandleTypeDef *huart)
{
 80025b8:	b580      	push	{r7, lr}
 80025ba:	b084      	sub	sp, #16
 80025bc:	af00      	add	r7, sp, #0
 80025be:	6078      	str	r0, [r7, #4]
  assert_param(IS_UART_MODE(huart->Init.Mode));

  /*-------------------------- USART CR2 Configuration -----------------------*/
  /* Configure the UART Stop Bits: Set STOP[13:12] bits
     according to huart->Init.StopBits value */
  MODIFY_REG(huart->Instance->CR2, USART_CR2_STOP, huart->Init.StopBits);
 80025c0:	687b      	ldr	r3, [r7, #4]
 80025c2:	681b      	ldr	r3, [r3, #0]
 80025c4:	691b      	ldr	r3, [r3, #16]
 80025c6:	f423 5140 	bic.w	r1, r3, #12288	@ 0x3000
 80025ca:	687b      	ldr	r3, [r7, #4]
 80025cc:	68da      	ldr	r2, [r3, #12]
 80025ce:	687b      	ldr	r3, [r7, #4]
 80025d0:	681b      	ldr	r3, [r3, #0]
 80025d2:	430a      	orrs	r2, r1
 80025d4:	611a      	str	r2, [r3, #16]
  tmpreg = (uint32_t)huart->Init.WordLength | huart->Init.Parity | huart->Init.Mode | huart->Init.OverSampling;
  MODIFY_REG(huart->Instance->CR1,
             (uint32_t)(USART_CR1_M | USART_CR1_PCE | USART_CR1_PS | USART_CR1_TE | USART_CR1_RE | USART_CR1_OVER8),
             tmpreg);
#else
  tmpreg = (uint32_t)huart->Init.WordLength | huart->Init.Parity | huart->Init.Mode;
 80025d6:	687b      	ldr	r3, [r7, #4]
 80025d8:	689a      	ldr	r2, [r3, #8]
 80025da:	687b      	ldr	r3, [r7, #4]
 80025dc:	691b      	ldr	r3, [r3, #16]
 80025de:	431a      	orrs	r2, r3
 80025e0:	687b      	ldr	r3, [r7, #4]
 80025e2:	695b      	ldr	r3, [r3, #20]
 80025e4:	4313      	orrs	r3, r2
 80025e6:	60bb      	str	r3, [r7, #8]
  MODIFY_REG(huart->Instance->CR1,
 80025e8:	687b      	ldr	r3, [r7, #4]
 80025ea:	681b      	ldr	r3, [r3, #0]
 80025ec:	68db      	ldr	r3, [r3, #12]
 80025ee:	f423 53b0 	bic.w	r3, r3, #5632	@ 0x1600
 80025f2:	f023 030c 	bic.w	r3, r3, #12
 80025f6:	687a      	ldr	r2, [r7, #4]
 80025f8:	6812      	ldr	r2, [r2, #0]
 80025fa:	68b9      	ldr	r1, [r7, #8]
 80025fc:	430b      	orrs	r3, r1
 80025fe:	60d3      	str	r3, [r2, #12]
             tmpreg);
#endif /* USART_CR1_OVER8 */

  /*-------------------------- USART CR3 Configuration -----------------------*/
  /* Configure the UART HFC: Set CTSE and RTSE bits according to huart->Init.HwFlowCtl value */
  MODIFY_REG(huart->Instance->CR3, (USART_CR3_RTSE | USART_CR3_CTSE), huart->Init.HwFlowCtl);
 8002600:	687b      	ldr	r3, [r7, #4]
 8002602:	681b      	ldr	r3, [r3, #0]
 8002604:	695b      	ldr	r3, [r3, #20]
 8002606:	f423 7140 	bic.w	r1, r3, #768	@ 0x300
 800260a:	687b      	ldr	r3, [r7, #4]
 800260c:	699a      	ldr	r2, [r3, #24]
 800260e:	687b      	ldr	r3, [r7, #4]
 8002610:	681b      	ldr	r3, [r3, #0]
 8002612:	430a      	orrs	r2, r1
 8002614:	615a      	str	r2, [r3, #20]


  if(huart->Instance == USART1)
 8002616:	687b      	ldr	r3, [r7, #4]
 8002618:	681b      	ldr	r3, [r3, #0]
 800261a:	4a2c      	ldr	r2, [pc, #176]	@ (80026cc <UART_SetConfig+0x114>)
 800261c:	4293      	cmp	r3, r2
 800261e:	d103      	bne.n	8002628 <UART_SetConfig+0x70>
  {
    pclk = HAL_RCC_GetPCLK2Freq();
 8002620:	f7ff fa9e 	bl	8001b60 <HAL_RCC_GetPCLK2Freq>
 8002624:	60f8      	str	r0, [r7, #12]
 8002626:	e002      	b.n	800262e <UART_SetConfig+0x76>
  }
  else
  {
    pclk = HAL_RCC_GetPCLK1Freq();
 8002628:	f7ff fa86 	bl	8001b38 <HAL_RCC_GetPCLK1Freq>
 800262c:	60f8      	str	r0, [r7, #12]
  else
  {
    huart->Instance->BRR = UART_BRR_SAMPLING16(pclk, huart->Init.BaudRate);
  }
#else
  huart->Instance->BRR = UART_BRR_SAMPLING16(pclk, huart->Init.BaudRate);
 800262e:	68fa      	ldr	r2, [r7, #12]
 8002630:	4613      	mov	r3, r2
 8002632:	009b      	lsls	r3, r3, #2
 8002634:	4413      	add	r3, r2
 8002636:	009a      	lsls	r2, r3, #2
 8002638:	441a      	add	r2, r3
 800263a:	687b      	ldr	r3, [r7, #4]
 800263c:	685b      	ldr	r3, [r3, #4]
 800263e:	009b      	lsls	r3, r3, #2
 8002640:	fbb2 f3f3 	udiv	r3, r2, r3
 8002644:	4a22      	ldr	r2, [pc, #136]	@ (80026d0 <UART_SetConfig+0x118>)
 8002646:	fba2 2303 	umull	r2, r3, r2, r3
 800264a:	095b      	lsrs	r3, r3, #5
 800264c:	0119      	lsls	r1, r3, #4
 800264e:	68fa      	ldr	r2, [r7, #12]
 8002650:	4613      	mov	r3, r2
 8002652:	009b      	lsls	r3, r3, #2
 8002654:	4413      	add	r3, r2
 8002656:	009a      	lsls	r2, r3, #2
 8002658:	441a      	add	r2, r3
 800265a:	687b      	ldr	r3, [r7, #4]
 800265c:	685b      	ldr	r3, [r3, #4]
 800265e:	009b      	lsls	r3, r3, #2
 8002660:	fbb2 f2f3 	udiv	r2, r2, r3
 8002664:	4b1a      	ldr	r3, [pc, #104]	@ (80026d0 <UART_SetConfig+0x118>)
 8002666:	fba3 0302 	umull	r0, r3, r3, r2
 800266a:	095b      	lsrs	r3, r3, #5
 800266c:	2064      	movs	r0, #100	@ 0x64
 800266e:	fb00 f303 	mul.w	r3, r0, r3
 8002672:	1ad3      	subs	r3, r2, r3
 8002674:	011b      	lsls	r3, r3, #4
 8002676:	3332      	adds	r3, #50	@ 0x32
 8002678:	4a15      	ldr	r2, [pc, #84]	@ (80026d0 <UART_SetConfig+0x118>)
 800267a:	fba2 2303 	umull	r2, r3, r2, r3
 800267e:	095b      	lsrs	r3, r3, #5
 8002680:	f003 03f0 	and.w	r3, r3, #240	@ 0xf0
 8002684:	4419      	add	r1, r3
 8002686:	68fa      	ldr	r2, [r7, #12]
 8002688:	4613      	mov	r3, r2
 800268a:	009b      	lsls	r3, r3, #2
 800268c:	4413      	add	r3, r2
 800268e:	009a      	lsls	r2, r3, #2
 8002690:	441a      	add	r2, r3
 8002692:	687b      	ldr	r3, [r7, #4]
 8002694:	685b      	ldr	r3, [r3, #4]
 8002696:	009b      	lsls	r3, r3, #2
 8002698:	fbb2 f2f3 	udiv	r2, r2, r3
 800269c:	4b0c      	ldr	r3, [pc, #48]	@ (80026d0 <UART_SetConfig+0x118>)
 800269e:	fba3 0302 	umull	r0, r3, r3, r2
 80026a2:	095b      	lsrs	r3, r3, #5
 80026a4:	2064      	movs	r0, #100	@ 0x64
 80026a6:	fb00 f303 	mul.w	r3, r0, r3
 80026aa:	1ad3      	subs	r3, r2, r3
 80026ac:	011b      	lsls	r3, r3, #4
 80026ae:	3332      	adds	r3, #50	@ 0x32
 80026b0:	4a07      	ldr	r2, [pc, #28]	@ (80026d0 <UART_SetConfig+0x118>)
 80026b2:	fba2 2303 	umull	r2, r3, r2, r3
 80026b6:	095b      	lsrs	r3, r3, #5
 80026b8:	f003 020f 	and.w	r2, r3, #15
 80026bc:	687b      	ldr	r3, [r7, #4]
 80026be:	681b      	ldr	r3, [r3, #0]
 80026c0:	440a      	add	r2, r1
 80026c2:	609a      	str	r2, [r3, #8]
#endif /* USART_CR1_OVER8 */
}
 80026c4:	bf00      	nop
 80026c6:	3710      	adds	r7, #16
 80026c8:	46bd      	mov	sp, r7
 80026ca:	bd80      	pop	{r7, pc}
 80026cc:	40013800 	.word	0x40013800
 80026d0:	51eb851f 	.word	0x51eb851f

080026d4 <memset>:
 80026d4:	4603      	mov	r3, r0
 80026d6:	4402      	add	r2, r0
 80026d8:	4293      	cmp	r3, r2
 80026da:	d100      	bne.n	80026de <memset+0xa>
 80026dc:	4770      	bx	lr
 80026de:	f803 1b01 	strb.w	r1, [r3], #1
 80026e2:	e7f9      	b.n	80026d8 <memset+0x4>

080026e4 <__libc_init_array>:
 80026e4:	b570      	push	{r4, r5, r6, lr}
 80026e6:	2600      	movs	r6, #0
 80026e8:	4d0c      	ldr	r5, [pc, #48]	@ (800271c <__libc_init_array+0x38>)
 80026ea:	4c0d      	ldr	r4, [pc, #52]	@ (8002720 <__libc_init_array+0x3c>)
 80026ec:	1b64      	subs	r4, r4, r5
 80026ee:	10a4      	asrs	r4, r4, #2
 80026f0:	42a6      	cmp	r6, r4
 80026f2:	d109      	bne.n	8002708 <__libc_init_array+0x24>
 80026f4:	f000 f81a 	bl	800272c <_init>
 80026f8:	2600      	movs	r6, #0
 80026fa:	4d0a      	ldr	r5, [pc, #40]	@ (8002724 <__libc_init_array+0x40>)
 80026fc:	4c0a      	ldr	r4, [pc, #40]	@ (8002728 <__libc_init_array+0x44>)
 80026fe:	1b64      	subs	r4, r4, r5
 8002700:	10a4      	asrs	r4, r4, #2
 8002702:	42a6      	cmp	r6, r4
 8002704:	d105      	bne.n	8002712 <__libc_init_array+0x2e>
 8002706:	bd70      	pop	{r4, r5, r6, pc}
 8002708:	f855 3b04 	ldr.w	r3, [r5], #4
 800270c:	4798      	blx	r3
 800270e:	3601      	adds	r6, #1
 8002710:	e7ee      	b.n	80026f0 <__libc_init_array+0xc>
 8002712:	f855 3b04 	ldr.w	r3, [r5], #4
 8002716:	4798      	blx	r3
 8002718:	3601      	adds	r6, #1
 800271a:	e7f2      	b.n	8002702 <__libc_init_array+0x1e>
 800271c:	08002780 	.word	0x08002780
 8002720:	08002780 	.word	0x08002780
 8002724:	08002780 	.word	0x08002780
 8002728:	08002784 	.word	0x08002784

0800272c <_init>:
 800272c:	b5f8      	push	{r3, r4, r5, r6, r7, lr}
 800272e:	bf00      	nop
 8002730:	bcf8      	pop	{r3, r4, r5, r6, r7}
 8002732:	bc08      	pop	{r3}
 8002734:	469e      	mov	lr, r3
 8002736:	4770      	bx	lr

08002738 <_fini>:
 8002738:	b5f8      	push	{r3, r4, r5, r6, r7, lr}
 800273a:	bf00      	nop
 800273c:	bcf8      	pop	{r3, r4, r5, r6, r7}
 800273e:	bc08      	pop	{r3}
 8002740:	469e      	mov	lr, r3
 8002742:	4770      	bx	lr
