
IncomSystemTestProjectF103.elf:     file format elf32-littlearm

Sections:
Idx Name          Size      VMA       LMA       File off  Algn
  0 .isr_vector   0000010c  08000000  08000000  00001000  2**0
                  CONTENTS, ALLOC, LOAD, READONLY, DATA
  1 .text         00002658  0800010c  0800010c  0000110c  2**2
                  CONTENTS, ALLOC, LOAD, READONLY, CODE
  2 .rodata       0000003c  08002764  08002764  00003764  2**2
                  CONTENTS, ALLOC, LOAD, READONLY, DATA
  3 .ARM.extab    00000000  080027a0  080027a0  00004118  2**0
                  CONTENTS
  4 .ARM          00000000  080027a0  080027a0  00004118  2**0
                  CONTENTS
  5 .preinit_array 00000000  080027a0  080027a0  00004118  2**0
                  CONTENTS, ALLOC, LOAD, DATA
  6 .init_array   00000004  080027a0  080027a0  000037a0  2**2
                  CONTENTS, ALLOC, LOAD, READONLY, DATA
  7 .fini_array   00000004  080027a4  080027a4  000037a4  2**2
                  CONTENTS, ALLOC, LOAD, READONLY, DATA
  8 .data         00000118  20000000  080027a8  00004000  2**2
                  CONTENTS, ALLOC, LOAD, DATA
  9 .bss          0000047c  20000118  080028c0  00004118  2**2
                  ALLOC
 10 ._user_heap_stack 00000604  20000594  080028c0  00004594  2**0
                  ALLOC
 11 .ARM.attributes 00000029  00000000  00000000  00004118  2**0
                  CONTENTS, READONLY
 12 .debug_info   000080c3  00000000  00000000  00004141  2**0
                  CONTENTS, READONLY, DEBUGGING, OCTETS
 13 .debug_abbrev 00001c3d  00000000  00000000  0000c204  2**0
                  CONTENTS, READONLY, DEBUGGING, OCTETS
 14 .debug_aranges 00000750  00000000  00000000  0000de48  2**3
                  CONTENTS, READONLY, DEBUGGING, OCTETS
 15 .debug_rnglists 00000586  00000000  00000000  0000e598  2**0
                  CONTENTS, READONLY, DEBUGGING, OCTETS
 16 .debug_macro  00016789  00000000  00000000  0000eb1e  2**0
                  CONTENTS, READONLY, DEBUGGING, OCTETS
 17 .debug_line   0000a318  00000000  00000000  000252a7  2**0
                  CONTENTS, READONLY, DEBUGGING, OCTETS
 18 .debug_str    0007e902  00000000  00000000  0002f5bf  2**0
                  CONTENTS, READONLY, DEBUGGING, OCTETS
 19 .comment      00000043  00000000  00000000  000adec1  2**0
                  CONTENTS, READONLY
 20 .debug_frame  00001b60  00000000  00000000  000adf04  2**2
                  CONTENTS, READONLY, DEBUGGING, OCTETS
 21 .debug_line_str 0000005d  00000000  00000000  000afa64  2**0
                  CONTENTS, READONLY, DEBUGGING, OCTETS

Disassembly of section .text:

0800010c <__do_global_dtors_aux>:
 800010c:	b510      	push	{r4, lr}
 800010e:	4c05      	ldr	r4, [pc, #20]	@ (8000124 <__do_global_dtors_aux+0x18>)
 8000110:	7823      	ldrb	r3, [r4, #0]
 8000112:	b933      	cbnz	r3, 8000122 <__do_global_dtors_aux+0x16>
 8000114:	4b04      	ldr	r3, [pc, #16]	@ (8000128 <__do_global_dtors_aux+0x1c>)
 8000116:	b113      	cbz	r3, 800011e <__do_global_dtors_aux+0x12>
 8000118:	4804      	ldr	r0, [pc, #16]	@ (800012c <__do_global_dtors_aux+0x20>)
 800011a:	f3af 8000 	nop.w
 800011e:	2301      	movs	r3, #1
 8000120:	7023      	strb	r3, [r4, #0]
 8000122:	bd10      	pop	{r4, pc}
 8000124:	20000118 	.word	0x20000118
 8000128:	00000000 	.word	0x00000000
 800012c:	0800274c 	.word	0x0800274c

08000130 <frame_dummy>:
 8000130:	b508      	push	{r3, lr}
 8000132:	4b03      	ldr	r3, [pc, #12]	@ (8000140 <frame_dummy+0x10>)
 8000134:	b11b      	cbz	r3, 800013e <frame_dummy+0xe>
 8000136:	4903      	ldr	r1, [pc, #12]	@ (8000144 <frame_dummy+0x14>)
 8000138:	4803      	ldr	r0, [pc, #12]	@ (8000148 <frame_dummy+0x18>)
 800013a:	f3af 8000 	nop.w
 800013e:	bd08      	pop	{r3, pc}
 8000140:	00000000 	.word	0x00000000
 8000144:	2000011c 	.word	0x2000011c
 8000148:	0800274c 	.word	0x0800274c

0800014c <BootModeStart>:

uint8_t AwaitResponce(uint8_t status, uint32_t maxWaitTime);
uint8_t crcAN3155(uint8_t *data, uint8_t len);


void BootModeStart(){
 800014c:	b580      	push	{r7, lr}
 800014e:	af00      	add	r7, sp, #0
	HAL_GPIO_WritePin(BOOT_PORT, BOOT_PIN, GPIO_PIN_SET);
 8000150:	2201      	movs	r2, #1
 8000152:	f44f 4100 	mov.w	r1, #32768	@ 0x8000
 8000156:	480a      	ldr	r0, [pc, #40]	@ (8000180 <BootModeStart+0x34>)
 8000158:	f001 f902 	bl	8001360 <HAL_GPIO_WritePin>
	HAL_GPIO_WritePin(RESET_PORT, RESET_PIN, GPIO_PIN_RESET);
 800015c:	2200      	movs	r2, #0
 800015e:	f44f 4180 	mov.w	r1, #16384	@ 0x4000
 8000162:	4807      	ldr	r0, [pc, #28]	@ (8000180 <BootModeStart+0x34>)
 8000164:	f001 f8fc 	bl	8001360 <HAL_GPIO_WritePin>
	HAL_Delay(50);
 8000168:	2032      	movs	r0, #50	@ 0x32
 800016a:	f000 fd91 	bl	8000c90 <HAL_Delay>
	HAL_GPIO_WritePin(RESET_PORT, RESET_PIN, GPIO_PIN_SET);
 800016e:	2201      	movs	r2, #1
 8000170:	f44f 4180 	mov.w	r1, #16384	@ 0x4000
 8000174:	4802      	ldr	r0, [pc, #8]	@ (8000180 <BootModeStart+0x34>)
 8000176:	f001 f8f3 	bl	8001360 <HAL_GPIO_WritePin>
}
 800017a:	bf00      	nop
 800017c:	bd80      	pop	{r7, pc}
 800017e:	bf00      	nop
 8000180:	40011000 	.word	0x40011000

08000184 <BootModeEnd>:

void BootModeEnd(){
 8000184:	b580      	push	{r7, lr}
 8000186:	af00      	add	r7, sp, #0
	HAL_GPIO_WritePin(BOOT_PORT, BOOT_PIN, GPIO_PIN_RESET);
 8000188:	2200      	movs	r2, #0
 800018a:	f44f 4100 	mov.w	r1, #32768	@ 0x8000
 800018e:	480a      	ldr	r0, [pc, #40]	@ (80001b8 <BootModeEnd+0x34>)
 8000190:	f001 f8e6 	bl	8001360 <HAL_GPIO_WritePin>
	HAL_GPIO_WritePin(RESET_PORT, RESET_PIN, GPIO_PIN_RESET);
 8000194:	2200      	movs	r2, #0
 8000196:	f44f 4180 	mov.w	r1, #16384	@ 0x4000
 800019a:	4807      	ldr	r0, [pc, #28]	@ (80001b8 <BootModeEnd+0x34>)
 800019c:	f001 f8e0 	bl	8001360 <HAL_GPIO_WritePin>
	HAL_Delay(50);
 80001a0:	2032      	movs	r0, #50	@ 0x32
 80001a2:	f000 fd75 	bl	8000c90 <HAL_Delay>
	HAL_GPIO_WritePin(RESET_PORT, RESET_PIN, GPIO_PIN_SET);
 80001a6:	2201      	movs	r2, #1
 80001a8:	f44f 4180 	mov.w	r1, #16384	@ 0x4000
 80001ac:	4802      	ldr	r0, [pc, #8]	@ (80001b8 <BootModeEnd+0x34>)
 80001ae:	f001 f8d7 	bl	8001360 <HAL_GPIO_WritePin>
}
 80001b2:	bf00      	nop
 80001b4:	bd80      	pop	{r7, pc}
 80001b6:	bf00      	nop
 80001b8:	40011000 	.word	0x40011000

080001bc <AwaitResponce>:


uint8_t AwaitResponce(uint8_t status, uint32_t maxWaitTime){
 80001bc:	b580      	push	{r7, lr}
 80001be:	b084      	sub	sp, #16
 80001c0:	af00      	add	r7, sp, #0
 80001c2:	4603      	mov	r3, r0
 80001c4:	6039      	str	r1, [r7, #0]
 80001c6:	71fb      	strb	r3, [r7, #7]
	uint32_t timer = HAL_GetTick();
 80001c8:	f000 fd58 	bl	8000c7c <HAL_GetTick>
 80001cc:	60f8      	str	r0, [r7, #12]
	while(action.flag != status){
 80001ce:	e012      	b.n	80001f6 <AwaitResponce+0x3a>
		if((HAL_GetTick()-timer) >= maxWaitTime)
 80001d0:	f000 fd54 	bl	8000c7c <HAL_GetTick>
 80001d4:	4602      	mov	r2, r0
 80001d6:	68fb      	ldr	r3, [r7, #12]
 80001d8:	1ad3      	subs	r3, r2, r3
 80001da:	683a      	ldr	r2, [r7, #0]
 80001dc:	429a      	cmp	r2, r3
 80001de:	d801      	bhi.n	80001e4 <AwaitResponce+0x28>
			return AN_ERROR;
 80001e0:	2300      	movs	r3, #0
 80001e2:	e00e      	b.n	8000202 <AwaitResponce+0x46>
		else if(action.flag == NACK){
 80001e4:	4b09      	ldr	r3, [pc, #36]	@ (800020c <AwaitResponce+0x50>)
 80001e6:	785b      	ldrb	r3, [r3, #1]
 80001e8:	2b1f      	cmp	r3, #31
 80001ea:	d104      	bne.n	80001f6 <AwaitResponce+0x3a>
			action.command = ERROR_LOG;
 80001ec:	4b07      	ldr	r3, [pc, #28]	@ (800020c <AwaitResponce+0x50>)
 80001ee:	2200      	movs	r2, #0
 80001f0:	701a      	strb	r2, [r3, #0]
			return AN_ERROR;
 80001f2:	2300      	movs	r3, #0
 80001f4:	e005      	b.n	8000202 <AwaitResponce+0x46>
	while(action.flag != status){
 80001f6:	4b05      	ldr	r3, [pc, #20]	@ (800020c <AwaitResponce+0x50>)
 80001f8:	785b      	ldrb	r3, [r3, #1]
 80001fa:	79fa      	ldrb	r2, [r7, #7]
 80001fc:	429a      	cmp	r2, r3
 80001fe:	d1e7      	bne.n	80001d0 <AwaitResponce+0x14>
		}
	}
	return AN_OK;
 8000200:	2301      	movs	r3, #1
}
 8000202:	4618      	mov	r0, r3
 8000204:	3710      	adds	r7, #16
 8000206:	46bd      	mov	sp, r7
 8000208:	bd80      	pop	{r7, pc}
 800020a:	bf00      	nop
 800020c:	20000008 	.word	0x20000008

08000210 <crcAN3155>:

uint8_t crcAN3155(uint8_t *data, uint8_t len){
 8000210:	b480      	push	{r7}
 8000212:	b085      	sub	sp, #20
 8000214:	af00      	add	r7, sp, #0
 8000216:	6078      	str	r0, [r7, #4]
 8000218:	460b      	mov	r3, r1
 800021a:	70fb      	strb	r3, [r7, #3]
	uint8_t numb = 0;
 800021c:	2300      	movs	r3, #0
 800021e:	73fb      	strb	r3, [r7, #15]
	for(int i=0; i<len; i++){
 8000220:	2300      	movs	r3, #0
 8000222:	60bb      	str	r3, [r7, #8]
 8000224:	e009      	b.n	800023a <crcAN3155+0x2a>
		numb^=data[i];
 8000226:	68bb      	ldr	r3, [r7, #8]
 8000228:	687a      	ldr	r2, [r7, #4]
 800022a:	4413      	add	r3, r2
 800022c:	781a      	ldrb	r2, [r3, #0]
 800022e:	7bfb      	ldrb	r3, [r7, #15]
 8000230:	4053      	eors	r3, r2
 8000232:	73fb      	strb	r3, [r7, #15]
	for(int i=0; i<len; i++){
 8000234:	68bb      	ldr	r3, [r7, #8]
 8000236:	3301      	adds	r3, #1
 8000238:	60bb      	str	r3, [r7, #8]
 800023a:	78fb      	ldrb	r3, [r7, #3]
 800023c:	68ba      	ldr	r2, [r7, #8]
 800023e:	429a      	cmp	r2, r3
 8000240:	dbf1      	blt.n	8000226 <crcAN3155+0x16>
	}
	return numb;
 8000242:	7bfb      	ldrb	r3, [r7, #15]
}
 8000244:	4618      	mov	r0, r3
 8000246:	3714      	adds	r7, #20
 8000248:	46bd      	mov	sp, r7
 800024a:	bc80      	pop	{r7}
 800024c:	4770      	bx	lr
	...

08000250 <StartCommand>:

void StartCommand(){
 8000250:	b580      	push	{r7, lr}
 8000252:	b082      	sub	sp, #8
 8000254:	af00      	add	r7, sp, #0
	uint8_t data[1] = {START_COMMAND};
 8000256:	237f      	movs	r3, #127	@ 0x7f
 8000258:	703b      	strb	r3, [r7, #0]
	uint32_t timer = 0;
 800025a:	2300      	movs	r3, #0
 800025c:	607b      	str	r3, [r7, #4]
	while(action.flag == NONE){
 800025e:	e00f      	b.n	8000280 <StartCommand+0x30>
	  if((HAL_GetTick()-timer) >= 1000){
 8000260:	f000 fd0c 	bl	8000c7c <HAL_GetTick>
 8000264:	4602      	mov	r2, r0
 8000266:	687b      	ldr	r3, [r7, #4]
 8000268:	1ad3      	subs	r3, r2, r3
 800026a:	f5b3 7f7a 	cmp.w	r3, #1000	@ 0x3e8
 800026e:	d307      	bcc.n	8000280 <StartCommand+0x30>
		  TransmitOnAN3155(data, 1);
 8000270:	463b      	mov	r3, r7
 8000272:	2101      	movs	r1, #1
 8000274:	4618      	mov	r0, r3
 8000276:	f000 f953 	bl	8000520 <TransmitOnAN3155>
		  timer = HAL_GetTick();
 800027a:	f000 fcff 	bl	8000c7c <HAL_GetTick>
 800027e:	6078      	str	r0, [r7, #4]
	while(action.flag == NONE){
 8000280:	4b06      	ldr	r3, [pc, #24]	@ (800029c <StartCommand+0x4c>)
 8000282:	785b      	ldrb	r3, [r3, #1]
 8000284:	2b00      	cmp	r3, #0
 8000286:	d0eb      	beq.n	8000260 <StartCommand+0x10>
	  }
	}
	action.flag = NONE;
 8000288:	4b04      	ldr	r3, [pc, #16]	@ (800029c <StartCommand+0x4c>)
 800028a:	2200      	movs	r2, #0
 800028c:	705a      	strb	r2, [r3, #1]
	HAL_Delay(200);
 800028e:	20c8      	movs	r0, #200	@ 0xc8
 8000290:	f000 fcfe 	bl	8000c90 <HAL_Delay>
}
 8000294:	bf00      	nop
 8000296:	3708      	adds	r7, #8
 8000298:	46bd      	mov	sp, r7
 800029a:	bd80      	pop	{r7, pc}
 800029c:	20000008 	.word	0x20000008

080002a0 <ReadFlashData>:

uint8_t ReadFlashData(uint32_t address, uint16_t len){
 80002a0:	b580      	push	{r7, lr}
 80002a2:	b084      	sub	sp, #16
 80002a4:	af00      	add	r7, sp, #0
 80002a6:	6078      	str	r0, [r7, #4]
 80002a8:	460b      	mov	r3, r1
 80002aa:	807b      	strh	r3, [r7, #2]
	uint8_t data[5] = {READ_COMMAND, 0xFF^READ_COMMAND, 0, 0, 0};
 80002ac:	4a37      	ldr	r2, [pc, #220]	@ (800038c <ReadFlashData+0xec>)
 80002ae:	f107 0308 	add.w	r3, r7, #8
 80002b2:	e892 0003 	ldmia.w	r2, {r0, r1}
 80002b6:	6018      	str	r0, [r3, #0]
 80002b8:	3304      	adds	r3, #4
 80002ba:	7019      	strb	r1, [r3, #0]
	TransmitOnAN3155(data, 2);
 80002bc:	f107 0308 	add.w	r3, r7, #8
 80002c0:	2102      	movs	r1, #2
 80002c2:	4618      	mov	r0, r3
 80002c4:	f000 f92c 	bl	8000520 <TransmitOnAN3155>
	if(AwaitResponce(ACK, ANSWER_WAIT_TIME) == AN_ERROR)
 80002c8:	21c8      	movs	r1, #200	@ 0xc8
 80002ca:	2079      	movs	r0, #121	@ 0x79
 80002cc:	f7ff ff76 	bl	80001bc <AwaitResponce>
 80002d0:	4603      	mov	r3, r0
 80002d2:	2b00      	cmp	r3, #0
 80002d4:	d101      	bne.n	80002da <ReadFlashData+0x3a>
		return AN_ERROR;
 80002d6:	2300      	movs	r3, #0
 80002d8:	e053      	b.n	8000382 <ReadFlashData+0xe2>
	action.flag = NONE;
 80002da:	4b2d      	ldr	r3, [pc, #180]	@ (8000390 <ReadFlashData+0xf0>)
 80002dc:	2200      	movs	r2, #0
 80002de:	705a      	strb	r2, [r3, #1]

	data[0] = (uint8_t)(address >> 24);
 80002e0:	687b      	ldr	r3, [r7, #4]
 80002e2:	0e1b      	lsrs	r3, r3, #24
 80002e4:	b2db      	uxtb	r3, r3
 80002e6:	723b      	strb	r3, [r7, #8]
	data[1] = (uint8_t)(address >> 16);
 80002e8:	687b      	ldr	r3, [r7, #4]
 80002ea:	0c1b      	lsrs	r3, r3, #16
 80002ec:	b2db      	uxtb	r3, r3
 80002ee:	727b      	strb	r3, [r7, #9]
	data[2] = (uint8_t)(address >> 8);
 80002f0:	687b      	ldr	r3, [r7, #4]
 80002f2:	0a1b      	lsrs	r3, r3, #8
 80002f4:	b2db      	uxtb	r3, r3
 80002f6:	72bb      	strb	r3, [r7, #10]
	data[3] = (uint8_t)(address);
 80002f8:	687b      	ldr	r3, [r7, #4]
 80002fa:	b2db      	uxtb	r3, r3
 80002fc:	72fb      	strb	r3, [r7, #11]
	data[4] = crcAN3155(data, 4);
 80002fe:	f107 0308 	add.w	r3, r7, #8
 8000302:	2104      	movs	r1, #4
 8000304:	4618      	mov	r0, r3
 8000306:	f7ff ff83 	bl	8000210 <crcAN3155>
 800030a:	4603      	mov	r3, r0
 800030c:	733b      	strb	r3, [r7, #12]
	TransmitOnAN3155(data, 5);
 800030e:	f107 0308 	add.w	r3, r7, #8
 8000312:	2105      	movs	r1, #5
 8000314:	4618      	mov	r0, r3
 8000316:	f000 f903 	bl	8000520 <TransmitOnAN3155>
	if(AwaitResponce(ACK, ANSWER_WAIT_TIME) == AN_ERROR)
 800031a:	21c8      	movs	r1, #200	@ 0xc8
 800031c:	2079      	movs	r0, #121	@ 0x79
 800031e:	f7ff ff4d 	bl	80001bc <AwaitResponce>
 8000322:	4603      	mov	r3, r0
 8000324:	2b00      	cmp	r3, #0
 8000326:	d101      	bne.n	800032c <ReadFlashData+0x8c>
		return AN_ERROR;
 8000328:	2300      	movs	r3, #0
 800032a:	e02a      	b.n	8000382 <ReadFlashData+0xe2>
	action.flag = NONE;
 800032c:	4b18      	ldr	r3, [pc, #96]	@ (8000390 <ReadFlashData+0xf0>)
 800032e:	2200      	movs	r2, #0
 8000330:	705a      	strb	r2, [r3, #1]

	data[0] = (uint8_t)(len-1);
 8000332:	887b      	ldrh	r3, [r7, #2]
 8000334:	b2db      	uxtb	r3, r3
 8000336:	3b01      	subs	r3, #1
 8000338:	b2db      	uxtb	r3, r3
 800033a:	723b      	strb	r3, [r7, #8]
	data[1] = ((uint8_t)(len-1))^0xFF;
 800033c:	887b      	ldrh	r3, [r7, #2]
 800033e:	b2db      	uxtb	r3, r3
 8000340:	425b      	negs	r3, r3
 8000342:	b2db      	uxtb	r3, r3
 8000344:	727b      	strb	r3, [r7, #9]
	recive.command = RECIVE_DATA;
 8000346:	4b13      	ldr	r3, [pc, #76]	@ (8000394 <ReadFlashData+0xf4>)
 8000348:	2202      	movs	r2, #2
 800034a:	701a      	strb	r2, [r3, #0]
	recive.length = len+1;
 800034c:	887b      	ldrh	r3, [r7, #2]
 800034e:	3301      	adds	r3, #1
 8000350:	b29a      	uxth	r2, r3
 8000352:	4b10      	ldr	r3, [pc, #64]	@ (8000394 <ReadFlashData+0xf4>)
 8000354:	805a      	strh	r2, [r3, #2]
	TransmitOnAN3155(data, 2);
 8000356:	f107 0308 	add.w	r3, r7, #8
 800035a:	2102      	movs	r1, #2
 800035c:	4618      	mov	r0, r3
 800035e:	f000 f8df 	bl	8000520 <TransmitOnAN3155>
	if(AwaitResponce(DATA, ANSWER_WAIT_TIME) == AN_ERROR)
 8000362:	21c8      	movs	r1, #200	@ 0xc8
 8000364:	20cc      	movs	r0, #204	@ 0xcc
 8000366:	f7ff ff29 	bl	80001bc <AwaitResponce>
 800036a:	4603      	mov	r3, r0
 800036c:	2b00      	cmp	r3, #0
 800036e:	d101      	bne.n	8000374 <ReadFlashData+0xd4>
		return AN_ERROR;
 8000370:	2300      	movs	r3, #0
 8000372:	e006      	b.n	8000382 <ReadFlashData+0xe2>
	recive.command = RECIVE_STATE;
 8000374:	4b07      	ldr	r3, [pc, #28]	@ (8000394 <ReadFlashData+0xf4>)
 8000376:	2201      	movs	r2, #1
 8000378:	701a      	strb	r2, [r3, #0]
	recive.length = 1;
 800037a:	4b06      	ldr	r3, [pc, #24]	@ (8000394 <ReadFlashData+0xf4>)
 800037c:	2201      	movs	r2, #1
 800037e:	805a      	strh	r2, [r3, #2]

	return AN_OK;
 8000380:	2301      	movs	r3, #1
}
 8000382:	4618      	mov	r0, r3
 8000384:	3710      	adds	r7, #16
 8000386:	46bd      	mov	sp, r7
 8000388:	bd80      	pop	{r7, pc}
 800038a:	bf00      	nop
 800038c:	08002764 	.word	0x08002764
 8000390:	20000008 	.word	0x20000008
 8000394:	20000004 	.word	0x20000004

08000398 <GoInProgramm>:

uint8_t GoInProgramm(uint32_t address){
 8000398:	b580      	push	{r7, lr}
 800039a:	b084      	sub	sp, #16
 800039c:	af00      	add	r7, sp, #0
 800039e:	6078      	str	r0, [r7, #4]
	uint8_t data[5] = {GO_COMMAND, 0xFF^GO_COMMAND, 0, 0, 0};
 80003a0:	4a23      	ldr	r2, [pc, #140]	@ (8000430 <GoInProgramm+0x98>)
 80003a2:	f107 0308 	add.w	r3, r7, #8
 80003a6:	e892 0003 	ldmia.w	r2, {r0, r1}
 80003aa:	6018      	str	r0, [r3, #0]
 80003ac:	3304      	adds	r3, #4
 80003ae:	7019      	strb	r1, [r3, #0]
	TransmitOnAN3155(data, 2);
 80003b0:	f107 0308 	add.w	r3, r7, #8
 80003b4:	2102      	movs	r1, #2
 80003b6:	4618      	mov	r0, r3
 80003b8:	f000 f8b2 	bl	8000520 <TransmitOnAN3155>
	if(AwaitResponce(ACK, ANSWER_WAIT_TIME) == AN_ERROR)
 80003bc:	21c8      	movs	r1, #200	@ 0xc8
 80003be:	2079      	movs	r0, #121	@ 0x79
 80003c0:	f7ff fefc 	bl	80001bc <AwaitResponce>
 80003c4:	4603      	mov	r3, r0
 80003c6:	2b00      	cmp	r3, #0
 80003c8:	d101      	bne.n	80003ce <GoInProgramm+0x36>
		return AN_ERROR;
 80003ca:	2300      	movs	r3, #0
 80003cc:	e02c      	b.n	8000428 <GoInProgramm+0x90>
	action.flag = NONE;
 80003ce:	4b19      	ldr	r3, [pc, #100]	@ (8000434 <GoInProgramm+0x9c>)
 80003d0:	2200      	movs	r2, #0
 80003d2:	705a      	strb	r2, [r3, #1]

	data[0] = (uint8_t)(address >> 24);
 80003d4:	687b      	ldr	r3, [r7, #4]
 80003d6:	0e1b      	lsrs	r3, r3, #24
 80003d8:	b2db      	uxtb	r3, r3
 80003da:	723b      	strb	r3, [r7, #8]
	data[1] = (uint8_t)(address >> 16);
 80003dc:	687b      	ldr	r3, [r7, #4]
 80003de:	0c1b      	lsrs	r3, r3, #16
 80003e0:	b2db      	uxtb	r3, r3
 80003e2:	727b      	strb	r3, [r7, #9]
	data[2] = (uint8_t)(address >> 8);
 80003e4:	687b      	ldr	r3, [r7, #4]
 80003e6:	0a1b      	lsrs	r3, r3, #8
 80003e8:	b2db      	uxtb	r3, r3
 80003ea:	72bb      	strb	r3, [r7, #10]
	data[3] = (uint8_t)(address);
 80003ec:	687b      	ldr	r3, [r7, #4]
 80003ee:	b2db      	uxtb	r3, r3
 80003f0:	72fb      	strb	r3, [r7, #11]
	data[4] = crcAN3155(data, 4);
 80003f2:	f107 0308 	add.w	r3, r7, #8
 80003f6:	2104      	movs	r1, #4
 80003f8:	4618      	mov	r0, r3
 80003fa:	f7ff ff09 	bl	8000210 <crcAN3155>
 80003fe:	4603      	mov	r3, r0
 8000400:	733b      	strb	r3, [r7, #12]
	TransmitOnAN3155(data, 5);
 8000402:	f107 0308 	add.w	r3, r7, #8
 8000406:	2105      	movs	r1, #5
 8000408:	4618      	mov	r0, r3
 800040a:	f000 f889 	bl	8000520 <TransmitOnAN3155>
	if(AwaitResponce(ACK, ANSWER_WAIT_TIME) == AN_ERROR)
 800040e:	21c8      	movs	r1, #200	@ 0xc8
 8000410:	2079      	movs	r0, #121	@ 0x79
 8000412:	f7ff fed3 	bl	80001bc <AwaitResponce>
 8000416:	4603      	mov	r3, r0
 8000418:	2b00      	cmp	r3, #0
 800041a:	d101      	bne.n	8000420 <GoInProgramm+0x88>
		return AN_ERROR;
 800041c:	2300      	movs	r3, #0
 800041e:	e003      	b.n	8000428 <GoInProgramm+0x90>
	action.flag = NONE;
 8000420:	4b04      	ldr	r3, [pc, #16]	@ (8000434 <GoInProgramm+0x9c>)
 8000422:	2200      	movs	r2, #0
 8000424:	705a      	strb	r2, [r3, #1]
	return AN_OK;
 8000426:	2301      	movs	r3, #1
}
 8000428:	4618      	mov	r0, r3
 800042a:	3710      	adds	r7, #16
 800042c:	46bd      	mov	sp, r7
 800042e:	bd80      	pop	{r7, pc}
 8000430:	0800276c 	.word	0x0800276c
 8000434:	20000008 	.word	0x20000008

08000438 <DataParser>:
#ifndef INC_MODULES_PARSINGMODULE_H_
#define INC_MODULES_PARSINGMODULE_H_

#include "main.h"

void DataParser(uint8_t *data){
 8000438:	b480      	push	{r7}
 800043a:	b085      	sub	sp, #20
 800043c:	af00      	add	r7, sp, #0
 800043e:	6078      	str	r0, [r7, #4]
	switch(recive.command){
 8000440:	4b15      	ldr	r3, [pc, #84]	@ (8000498 <DataParser+0x60>)
 8000442:	781b      	ldrb	r3, [r3, #0]
 8000444:	2b01      	cmp	r3, #1
 8000446:	d002      	beq.n	800044e <DataParser+0x16>
 8000448:	2b02      	cmp	r3, #2
 800044a:	d005      	beq.n	8000458 <DataParser+0x20>
		    	action.data[i] = data[i+1];
		    }
			action.flag = DATA;
			break;
	}
}
 800044c:	e01e      	b.n	800048c <DataParser+0x54>
			action.flag = data[0];
 800044e:	687b      	ldr	r3, [r7, #4]
 8000450:	781a      	ldrb	r2, [r3, #0]
 8000452:	4b12      	ldr	r3, [pc, #72]	@ (800049c <DataParser+0x64>)
 8000454:	705a      	strb	r2, [r3, #1]
			break;
 8000456:	e019      	b.n	800048c <DataParser+0x54>
		    for(uint16_t i=0; i<recive.length-1; i++){
 8000458:	2300      	movs	r3, #0
 800045a:	81fb      	strh	r3, [r7, #14]
 800045c:	e00c      	b.n	8000478 <DataParser+0x40>
		    	action.data[i] = data[i+1];
 800045e:	89fb      	ldrh	r3, [r7, #14]
 8000460:	3301      	adds	r3, #1
 8000462:	687a      	ldr	r2, [r7, #4]
 8000464:	441a      	add	r2, r3
 8000466:	89fb      	ldrh	r3, [r7, #14]
 8000468:	7811      	ldrb	r1, [r2, #0]
 800046a:	4a0c      	ldr	r2, [pc, #48]	@ (800049c <DataParser+0x64>)
 800046c:	4413      	add	r3, r2
 800046e:	460a      	mov	r2, r1
 8000470:	709a      	strb	r2, [r3, #2]
		    for(uint16_t i=0; i<recive.length-1; i++){
 8000472:	89fb      	ldrh	r3, [r7, #14]
 8000474:	3301      	adds	r3, #1
 8000476:	81fb      	strh	r3, [r7, #14]
 8000478:	89fa      	ldrh	r2, [r7, #14]
 800047a:	4b07      	ldr	r3, [pc, #28]	@ (8000498 <DataParser+0x60>)
 800047c:	885b      	ldrh	r3, [r3, #2]
 800047e:	3b01      	subs	r3, #1
 8000480:	429a      	cmp	r2, r3
 8000482:	dbec      	blt.n	800045e <DataParser+0x26>
			action.flag = DATA;
 8000484:	4b05      	ldr	r3, [pc, #20]	@ (800049c <DataParser+0x64>)
 8000486:	22cc      	movs	r2, #204	@ 0xcc
 8000488:	705a      	strb	r2, [r3, #1]
			break;
 800048a:	bf00      	nop
}
 800048c:	bf00      	nop
 800048e:	3714      	adds	r7, #20
 8000490:	46bd      	mov	sp, r7
 8000492:	bc80      	pop	{r7}
 8000494:	4770      	bx	lr
 8000496:	bf00      	nop
 8000498:	20000004 	.word	0x20000004
 800049c:	20000008 	.word	0x20000008

080004a0 <HAL_UART_RxCpltCallback>:

uint16_t recived_bytes = 0;
uint8_t buffer[1024] = {};
uint32_t timer = 0;

void HAL_UART_RxCpltCallback(UART_HandleTypeDef *huart){
 80004a0:	b580      	push	{r7, lr}
 80004a2:	b082      	sub	sp, #8
 80004a4:	af00      	add	r7, sp, #0
 80004a6:	6078      	str	r0, [r7, #4]
	if((HAL_GetTick()-timer) >= 15)
 80004a8:	f000 fbe8 	bl	8000c7c <HAL_GetTick>
 80004ac:	4602      	mov	r2, r0
 80004ae:	4b17      	ldr	r3, [pc, #92]	@ (800050c <HAL_UART_RxCpltCallback+0x6c>)
 80004b0:	681b      	ldr	r3, [r3, #0]
 80004b2:	1ad3      	subs	r3, r2, r3
 80004b4:	2b0e      	cmp	r3, #14
 80004b6:	d902      	bls.n	80004be <HAL_UART_RxCpltCallback+0x1e>
		recived_bytes = 0;
 80004b8:	4b15      	ldr	r3, [pc, #84]	@ (8000510 <HAL_UART_RxCpltCallback+0x70>)
 80004ba:	2200      	movs	r2, #0
 80004bc:	801a      	strh	r2, [r3, #0]
	buffer[recived_bytes] = rxcall;
 80004be:	4b14      	ldr	r3, [pc, #80]	@ (8000510 <HAL_UART_RxCpltCallback+0x70>)
 80004c0:	881b      	ldrh	r3, [r3, #0]
 80004c2:	461a      	mov	r2, r3
 80004c4:	4b13      	ldr	r3, [pc, #76]	@ (8000514 <HAL_UART_RxCpltCallback+0x74>)
 80004c6:	7819      	ldrb	r1, [r3, #0]
 80004c8:	4b13      	ldr	r3, [pc, #76]	@ (8000518 <HAL_UART_RxCpltCallback+0x78>)
 80004ca:	5499      	strb	r1, [r3, r2]
	recived_bytes++;
 80004cc:	4b10      	ldr	r3, [pc, #64]	@ (8000510 <HAL_UART_RxCpltCallback+0x70>)
 80004ce:	881b      	ldrh	r3, [r3, #0]
 80004d0:	3301      	adds	r3, #1
 80004d2:	b29a      	uxth	r2, r3
 80004d4:	4b0e      	ldr	r3, [pc, #56]	@ (8000510 <HAL_UART_RxCpltCallback+0x70>)
 80004d6:	801a      	strh	r2, [r3, #0]
	if(recived_bytes == recive.length){
 80004d8:	4b10      	ldr	r3, [pc, #64]	@ (800051c <HAL_UART_RxCpltCallback+0x7c>)
 80004da:	885a      	ldrh	r2, [r3, #2]
 80004dc:	4b0c      	ldr	r3, [pc, #48]	@ (8000510 <HAL_UART_RxCpltCallback+0x70>)
 80004de:	881b      	ldrh	r3, [r3, #0]
 80004e0:	429a      	cmp	r2, r3
 80004e2:	d105      	bne.n	80004f0 <HAL_UART_RxCpltCallback+0x50>
		recived_bytes = 0;
 80004e4:	4b0a      	ldr	r3, [pc, #40]	@ (8000510 <HAL_UART_RxCpltCallback+0x70>)
 80004e6:	2200      	movs	r2, #0
 80004e8:	801a      	strh	r2, [r3, #0]
		DataParser(buffer);
 80004ea:	480b      	ldr	r0, [pc, #44]	@ (8000518 <HAL_UART_RxCpltCallback+0x78>)
 80004ec:	f7ff ffa4 	bl	8000438 <DataParser>
	}
	timer = HAL_GetTick();
 80004f0:	f000 fbc4 	bl	8000c7c <HAL_GetTick>
 80004f4:	4603      	mov	r3, r0
 80004f6:	4a05      	ldr	r2, [pc, #20]	@ (800050c <HAL_UART_RxCpltCallback+0x6c>)
 80004f8:	6013      	str	r3, [r2, #0]
	HAL_UART_Receive_IT(huart,&rxcall,1);
 80004fa:	2201      	movs	r2, #1
 80004fc:	4905      	ldr	r1, [pc, #20]	@ (8000514 <HAL_UART_RxCpltCallback+0x74>)
 80004fe:	6878      	ldr	r0, [r7, #4]
 8000500:	f001 fbc0 	bl	8001c84 <HAL_UART_Receive_IT>
}
 8000504:	bf00      	nop
 8000506:	3708      	adds	r7, #8
 8000508:	46bd      	mov	sp, r7
 800050a:	bd80      	pop	{r7, pc}
 800050c:	20000538 	.word	0x20000538
 8000510:	20000134 	.word	0x20000134
 8000514:	20000546 	.word	0x20000546
 8000518:	20000138 	.word	0x20000138
 800051c:	20000004 	.word	0x20000004

08000520 <TransmitOnAN3155>:

void TransmitOnAN3155(uint8_t *data, uint16_t len){
 8000520:	b580      	push	{r7, lr}
 8000522:	b084      	sub	sp, #16
 8000524:	af00      	add	r7, sp, #0
 8000526:	6078      	str	r0, [r7, #4]
 8000528:	460b      	mov	r3, r1
 800052a:	807b      	strh	r3, [r7, #2]
	for (uint16_t i = 0; i<len; i++){
 800052c:	2300      	movs	r3, #0
 800052e:	81fb      	strh	r3, [r7, #14]
 8000530:	e00b      	b.n	800054a <TransmitOnAN3155+0x2a>
		USART1->DR = data[i];
 8000532:	89fb      	ldrh	r3, [r7, #14]
 8000534:	687a      	ldr	r2, [r7, #4]
 8000536:	4413      	add	r3, r2
 8000538:	781a      	ldrb	r2, [r3, #0]
 800053a:	4b08      	ldr	r3, [pc, #32]	@ (800055c <TransmitOnAN3155+0x3c>)
 800053c:	605a      	str	r2, [r3, #4]
		HAL_Delay(1);
 800053e:	2001      	movs	r0, #1
 8000540:	f000 fba6 	bl	8000c90 <HAL_Delay>
	for (uint16_t i = 0; i<len; i++){
 8000544:	89fb      	ldrh	r3, [r7, #14]
 8000546:	3301      	adds	r3, #1
 8000548:	81fb      	strh	r3, [r7, #14]
 800054a:	89fa      	ldrh	r2, [r7, #14]
 800054c:	887b      	ldrh	r3, [r7, #2]
 800054e:	429a      	cmp	r2, r3
 8000550:	d3ef      	bcc.n	8000532 <TransmitOnAN3155+0x12>
	}
}
 8000552:	bf00      	nop
 8000554:	bf00      	nop
 8000556:	3710      	adds	r7, #16
 8000558:	46bd      	mov	sp, r7
 800055a:	bd80      	pop	{r7, pc}
 800055c:	40013800 	.word	0x40013800

08000560 <MX_GPIO_Init>:
        * Output
        * EVENT_OUT
        * EXTI
*/
void MX_GPIO_Init(void)
{
 8000560:	b580      	push	{r7, lr}
 8000562:	b088      	sub	sp, #32
 8000564:	af00      	add	r7, sp, #0

  GPIO_InitTypeDef GPIO_InitStruct = {0};
 8000566:	f107 0310 	add.w	r3, r7, #16
 800056a:	2200      	movs	r2, #0
 800056c:	601a      	str	r2, [r3, #0]
 800056e:	605a      	str	r2, [r3, #4]
 8000570:	609a      	str	r2, [r3, #8]
 8000572:	60da      	str	r2, [r3, #12]

  /* GPIO Ports Clock Enable */
  __HAL_RCC_GPIOC_CLK_ENABLE();
 8000574:	4b21      	ldr	r3, [pc, #132]	@ (80005fc <MX_GPIO_Init+0x9c>)
 8000576:	699b      	ldr	r3, [r3, #24]
 8000578:	4a20      	ldr	r2, [pc, #128]	@ (80005fc <MX_GPIO_Init+0x9c>)
 800057a:	f043 0310 	orr.w	r3, r3, #16
 800057e:	6193      	str	r3, [r2, #24]
 8000580:	4b1e      	ldr	r3, [pc, #120]	@ (80005fc <MX_GPIO_Init+0x9c>)
 8000582:	699b      	ldr	r3, [r3, #24]
 8000584:	f003 0310 	and.w	r3, r3, #16
 8000588:	60fb      	str	r3, [r7, #12]
 800058a:	68fb      	ldr	r3, [r7, #12]
  __HAL_RCC_GPIOD_CLK_ENABLE();
 800058c:	4b1b      	ldr	r3, [pc, #108]	@ (80005fc <MX_GPIO_Init+0x9c>)
 800058e:	699b      	ldr	r3, [r3, #24]
 8000590:	4a1a      	ldr	r2, [pc, #104]	@ (80005fc <MX_GPIO_Init+0x9c>)
 8000592:	f043 0320 	orr.w	r3, r3, #32
 8000596:	6193      	str	r3, [r2, #24]
 8000598:	4b18      	ldr	r3, [pc, #96]	@ (80005fc <MX_GPIO_Init+0x9c>)
 800059a:	699b      	ldr	r3, [r3, #24]
 800059c:	f003 0320 	and.w	r3, r3, #32
 80005a0:	60bb      	str	r3, [r7, #8]
 80005a2:	68bb      	ldr	r3, [r7, #8]
  __HAL_RCC_GPIOA_CLK_ENABLE();
 80005a4:	4b15      	ldr	r3, [pc, #84]	@ (80005fc <MX_GPIO_Init+0x9c>)
 80005a6:	699b      	ldr	r3, [r3, #24]
 80005a8:	4a14      	ldr	r2, [pc, #80]	@ (80005fc <MX_GPIO_Init+0x9c>)
 80005aa:	f043 0304 	orr.w	r3, r3, #4
 80005ae:	6193      	str	r3, [r2, #24]
 80005b0:	4b12      	ldr	r3, [pc, #72]	@ (80005fc <MX_GPIO_Init+0x9c>)
 80005b2:	699b      	ldr	r3, [r3, #24]
 80005b4:	f003 0304 	and.w	r3, r3, #4
 80005b8:	607b      	str	r3, [r7, #4]
 80005ba:	687b      	ldr	r3, [r7, #4]

  /*Configure GPIO pin Output Level */
  HAL_GPIO_WritePin(GPIOC, GPIO_PIN_13|GPIO_PIN_14, GPIO_PIN_SET);
 80005bc:	2201      	movs	r2, #1
 80005be:	f44f 41c0 	mov.w	r1, #24576	@ 0x6000
 80005c2:	480f      	ldr	r0, [pc, #60]	@ (8000600 <MX_GPIO_Init+0xa0>)
 80005c4:	f000 fecc 	bl	8001360 <HAL_GPIO_WritePin>
  HAL_GPIO_WritePin(GPIOC, GPIO_PIN_15, GPIO_PIN_RESET);
 80005c8:	2200      	movs	r2, #0
 80005ca:	f44f 4100 	mov.w	r1, #32768	@ 0x8000
 80005ce:	480c      	ldr	r0, [pc, #48]	@ (8000600 <MX_GPIO_Init+0xa0>)
 80005d0:	f000 fec6 	bl	8001360 <HAL_GPIO_WritePin>

  /*Configure GPIO pins : PC13 PC14 PC15 */
  GPIO_InitStruct.Pin = GPIO_PIN_13|GPIO_PIN_14|GPIO_PIN_15;
 80005d4:	f44f 4360 	mov.w	r3, #57344	@ 0xe000
 80005d8:	613b      	str	r3, [r7, #16]
  GPIO_InitStruct.Mode = GPIO_MODE_OUTPUT_PP;
 80005da:	2301      	movs	r3, #1
 80005dc:	617b      	str	r3, [r7, #20]
  GPIO_InitStruct.Pull = GPIO_NOPULL;
 80005de:	2300      	movs	r3, #0
 80005e0:	61bb      	str	r3, [r7, #24]
  GPIO_InitStruct.Speed = GPIO_SPEED_FREQ_LOW;
 80005e2:	2302      	movs	r3, #2
 80005e4:	61fb      	str	r3, [r7, #28]
  HAL_GPIO_Init(GPIOC, &GPIO_InitStruct);
 80005e6:	f107 0310 	add.w	r3, r7, #16
 80005ea:	4619      	mov	r1, r3
 80005ec:	4804      	ldr	r0, [pc, #16]	@ (8000600 <MX_GPIO_Init+0xa0>)
 80005ee:	f000 fd33 	bl	8001058 <HAL_GPIO_Init>

}
 80005f2:	bf00      	nop
 80005f4:	3720      	adds	r7, #32
 80005f6:	46bd      	mov	sp, r7
 80005f8:	bd80      	pop	{r7, pc}
 80005fa:	bf00      	nop
 80005fc:	40021000 	.word	0x40021000
 8000600:	40011000 	.word	0x40011000

08000604 <SystemClock_Config>:
#define INC_INITS_RCCINIT_H_

#include "main.h"

void SystemClock_Config(void)
{
 8000604:	b580      	push	{r7, lr}
 8000606:	b090      	sub	sp, #64	@ 0x40
 8000608:	af00      	add	r7, sp, #0
  RCC_OscInitTypeDef RCC_OscInitStruct = {0};
 800060a:	f107 0318 	add.w	r3, r7, #24
 800060e:	2228      	movs	r2, #40	@ 0x28
 8000610:	2100      	movs	r1, #0
 8000612:	4618      	mov	r0, r3
 8000614:	f002 f86e 	bl	80026f4 <memset>
  RCC_ClkInitTypeDef RCC_ClkInitStruct = {0};
 8000618:	1d3b      	adds	r3, r7, #4
 800061a:	2200      	movs	r2, #0
 800061c:	601a      	str	r2, [r3, #0]
 800061e:	605a      	str	r2, [r3, #4]
 8000620:	609a      	str	r2, [r3, #8]
 8000622:	60da      	str	r2, [r3, #12]
 8000624:	611a      	str	r2, [r3, #16]

  /** Initializes the RCC Oscillators according to the specified parameters
  * in the RCC_OscInitTypeDef structure.
  */
  RCC_OscInitStruct.OscillatorType = RCC_OSCILLATORTYPE_HSE;
 8000626:	2301      	movs	r3, #1
 8000628:	61bb      	str	r3, [r7, #24]
  RCC_OscInitStruct.HSEState = RCC_HSE_ON;
 800062a:	f44f 3380 	mov.w	r3, #65536	@ 0x10000
 800062e:	61fb      	str	r3, [r7, #28]
  RCC_OscInitStruct.HSEPredivValue = RCC_HSE_PREDIV_DIV1;
 8000630:	2300      	movs	r3, #0
 8000632:	623b      	str	r3, [r7, #32]
  RCC_OscInitStruct.HSIState = RCC_HSI_ON;
 8000634:	2301      	movs	r3, #1
 8000636:	62bb      	str	r3, [r7, #40]	@ 0x28
  RCC_OscInitStruct.PLL.PLLState = RCC_PLL_ON;
 8000638:	2302      	movs	r3, #2
 800063a:	637b      	str	r3, [r7, #52]	@ 0x34
  RCC_OscInitStruct.PLL.PLLSource = RCC_PLLSOURCE_HSE;
 800063c:	f44f 3380 	mov.w	r3, #65536	@ 0x10000
 8000640:	63bb      	str	r3, [r7, #56]	@ 0x38
  RCC_OscInitStruct.PLL.PLLMUL = RCC_PLL_MUL8;
 8000642:	f44f 13c0 	mov.w	r3, #1572864	@ 0x180000
 8000646:	63fb      	str	r3, [r7, #60]	@ 0x3c
  HAL_RCC_OscConfig(&RCC_OscInitStruct);
 8000648:	f107 0318 	add.w	r3, r7, #24
 800064c:	4618      	mov	r0, r3
 800064e:	f000 feb9 	bl	80013c4 <HAL_RCC_OscConfig>

  /** Initializes the CPU, AHB and APB buses clocks
  */
  RCC_ClkInitStruct.ClockType = RCC_CLOCKTYPE_HCLK|RCC_CLOCKTYPE_SYSCLK
 8000652:	230f      	movs	r3, #15
 8000654:	607b      	str	r3, [r7, #4]
                              |RCC_CLOCKTYPE_PCLK1|RCC_CLOCKTYPE_PCLK2;
  RCC_ClkInitStruct.SYSCLKSource = RCC_SYSCLKSOURCE_PLLCLK;
 8000656:	2302      	movs	r3, #2
 8000658:	60bb      	str	r3, [r7, #8]
  RCC_ClkInitStruct.AHBCLKDivider = RCC_SYSCLK_DIV1;
 800065a:	2300      	movs	r3, #0
 800065c:	60fb      	str	r3, [r7, #12]
  RCC_ClkInitStruct.APB1CLKDivider = RCC_HCLK_DIV2;
 800065e:	f44f 6380 	mov.w	r3, #1024	@ 0x400
 8000662:	613b      	str	r3, [r7, #16]
  RCC_ClkInitStruct.APB2CLKDivider = RCC_HCLK_DIV1;
 8000664:	2300      	movs	r3, #0
 8000666:	617b      	str	r3, [r7, #20]

  HAL_RCC_ClockConfig(&RCC_ClkInitStruct, FLASH_LATENCY_2);
 8000668:	1d3b      	adds	r3, r7, #4
 800066a:	2102      	movs	r1, #2
 800066c:	4618      	mov	r0, r3
 800066e:	f001 f92b 	bl	80018c8 <HAL_RCC_ClockConfig>
}
 8000672:	bf00      	nop
 8000674:	3740      	adds	r7, #64	@ 0x40
 8000676:	46bd      	mov	sp, r7
 8000678:	bd80      	pop	{r7, pc}

0800067a <crc16>:
  Check : 0x29B1 ("123456789")
  MaxLen: 4095 байт (32767 бит) - обнаружение одинарных, двойных, тройных и всех нечетных ошибок
*/
#define POLY 0x1021

static uint16_t crc16(uint16_t crc_now ,uint8_t *data, uint16_t size) {
 800067a:	b480      	push	{r7}
 800067c:	b085      	sub	sp, #20
 800067e:	af00      	add	r7, sp, #0
 8000680:	4603      	mov	r3, r0
 8000682:	6039      	str	r1, [r7, #0]
 8000684:	80fb      	strh	r3, [r7, #6]
 8000686:	4613      	mov	r3, r2
 8000688:	80bb      	strh	r3, [r7, #4]
	uint16_t crc = crc_now;
 800068a:	88fb      	ldrh	r3, [r7, #6]
 800068c:	81fb      	strh	r3, [r7, #14]

	for (uint16_t j = 0; j < size; j++)
 800068e:	2300      	movs	r3, #0
 8000690:	81bb      	strh	r3, [r7, #12]
 8000692:	e028      	b.n	80006e6 <crc16+0x6c>
	{
		crc ^= data[j] << 8;
 8000694:	89bb      	ldrh	r3, [r7, #12]
 8000696:	683a      	ldr	r2, [r7, #0]
 8000698:	4413      	add	r3, r2
 800069a:	781b      	ldrb	r3, [r3, #0]
 800069c:	021b      	lsls	r3, r3, #8
 800069e:	b21a      	sxth	r2, r3
 80006a0:	f9b7 300e 	ldrsh.w	r3, [r7, #14]
 80006a4:	4053      	eors	r3, r2
 80006a6:	b21b      	sxth	r3, r3
 80006a8:	81fb      	strh	r3, [r7, #14]
		for (uint8_t i = 0; i < 8; i++)
 80006aa:	2300      	movs	r3, #0
 80006ac:	72fb      	strb	r3, [r7, #11]
 80006ae:	e014      	b.n	80006da <crc16+0x60>
			crc = crc & 0x8000 ? (crc << 1) ^ POLY : crc << 1;
 80006b0:	f9b7 300e 	ldrsh.w	r3, [r7, #14]
 80006b4:	2b00      	cmp	r3, #0
 80006b6:	da09      	bge.n	80006cc <crc16+0x52>
 80006b8:	89fb      	ldrh	r3, [r7, #14]
 80006ba:	005b      	lsls	r3, r3, #1
 80006bc:	b21b      	sxth	r3, r3
 80006be:	f483 5381 	eor.w	r3, r3, #4128	@ 0x1020
 80006c2:	f083 0301 	eor.w	r3, r3, #1
 80006c6:	b21b      	sxth	r3, r3
 80006c8:	b29b      	uxth	r3, r3
 80006ca:	e002      	b.n	80006d2 <crc16+0x58>
 80006cc:	89fb      	ldrh	r3, [r7, #14]
 80006ce:	005b      	lsls	r3, r3, #1
 80006d0:	b29b      	uxth	r3, r3
 80006d2:	81fb      	strh	r3, [r7, #14]
		for (uint8_t i = 0; i < 8; i++)
 80006d4:	7afb      	ldrb	r3, [r7, #11]
 80006d6:	3301      	adds	r3, #1
 80006d8:	72fb      	strb	r3, [r7, #11]
 80006da:	7afb      	ldrb	r3, [r7, #11]
 80006dc:	2b07      	cmp	r3, #7
 80006de:	d9e7      	bls.n	80006b0 <crc16+0x36>
	for (uint16_t j = 0; j < size; j++)
 80006e0:	89bb      	ldrh	r3, [r7, #12]
 80006e2:	3301      	adds	r3, #1
 80006e4:	81bb      	strh	r3, [r7, #12]
 80006e6:	89ba      	ldrh	r2, [r7, #12]
 80006e8:	88bb      	ldrh	r3, [r7, #4]
 80006ea:	429a      	cmp	r2, r3
 80006ec:	d3d2      	bcc.n	8000694 <crc16+0x1a>
	}
	return crc;
 80006ee:	89fb      	ldrh	r3, [r7, #14]
}
 80006f0:	4618      	mov	r0, r3
 80006f2:	3714      	adds	r7, #20
 80006f4:	46bd      	mov	sp, r7
 80006f6:	bc80      	pop	{r7}
 80006f8:	4770      	bx	lr
	...

080006fc <GetDataSize>:
uint16_t crc16_schet = 0;
uint16_t read = MAX_DATA;

volatile uint16_t crc_now = 0xFFFF;

void GetDataSize(uint32_t address){
 80006fc:	b580      	push	{r7, lr}
 80006fe:	b082      	sub	sp, #8
 8000700:	af00      	add	r7, sp, #0
 8000702:	6078      	str	r0, [r7, #4]
	if(ReadFlashData(address, 4)){
 8000704:	2104      	movs	r1, #4
 8000706:	6878      	ldr	r0, [r7, #4]
 8000708:	f7ff fdca 	bl	80002a0 <ReadFlashData>
 800070c:	4603      	mov	r3, r0
 800070e:	2b00      	cmp	r3, #0
 8000710:	d012      	beq.n	8000738 <GetDataSize+0x3c>
		dataSize = (uint32_t)(action.data[3] << 24) |
 8000712:	4b0b      	ldr	r3, [pc, #44]	@ (8000740 <GetDataSize+0x44>)
 8000714:	795b      	ldrb	r3, [r3, #5]
 8000716:	061a      	lsls	r2, r3, #24
		(uint32_t)(action.data[2] << 16) | (uint32_t)(action.data[1] << 8) |
 8000718:	4b09      	ldr	r3, [pc, #36]	@ (8000740 <GetDataSize+0x44>)
 800071a:	791b      	ldrb	r3, [r3, #4]
 800071c:	041b      	lsls	r3, r3, #16
		dataSize = (uint32_t)(action.data[3] << 24) |
 800071e:	431a      	orrs	r2, r3
		(uint32_t)(action.data[2] << 16) | (uint32_t)(action.data[1] << 8) |
 8000720:	4b07      	ldr	r3, [pc, #28]	@ (8000740 <GetDataSize+0x44>)
 8000722:	78db      	ldrb	r3, [r3, #3]
 8000724:	021b      	lsls	r3, r3, #8
 8000726:	4313      	orrs	r3, r2
		(uint32_t)(action.data[0]);
 8000728:	4a05      	ldr	r2, [pc, #20]	@ (8000740 <GetDataSize+0x44>)
 800072a:	7892      	ldrb	r2, [r2, #2]
		(uint32_t)(action.data[2] << 16) | (uint32_t)(action.data[1] << 8) |
 800072c:	4313      	orrs	r3, r2
		dataSize = (uint32_t)(action.data[3] << 24) |
 800072e:	4a05      	ldr	r2, [pc, #20]	@ (8000744 <GetDataSize+0x48>)
 8000730:	6013      	str	r3, [r2, #0]
		action.command = GET_CRC16;
 8000732:	4b03      	ldr	r3, [pc, #12]	@ (8000740 <GetDataSize+0x44>)
 8000734:	2202      	movs	r2, #2
 8000736:	701a      	strb	r2, [r3, #0]
	}
}
 8000738:	bf00      	nop
 800073a:	3708      	adds	r7, #8
 800073c:	46bd      	mov	sp, r7
 800073e:	bd80      	pop	{r7, pc}
 8000740:	20000008 	.word	0x20000008
 8000744:	20000540 	.word	0x20000540

08000748 <GetCrc16>:

void GetCrc16(uint32_t address){
 8000748:	b580      	push	{r7, lr}
 800074a:	b082      	sub	sp, #8
 800074c:	af00      	add	r7, sp, #0
 800074e:	6078      	str	r0, [r7, #4]
	if(ReadFlashData(address, 2)){
 8000750:	2102      	movs	r1, #2
 8000752:	6878      	ldr	r0, [r7, #4]
 8000754:	f7ff fda4 	bl	80002a0 <ReadFlashData>
 8000758:	4603      	mov	r3, r0
 800075a:	2b00      	cmp	r3, #0
 800075c:	d00c      	beq.n	8000778 <GetCrc16+0x30>
		crc16_schet = (uint16_t)(action.data[1] << 8) |
 800075e:	4b08      	ldr	r3, [pc, #32]	@ (8000780 <GetCrc16+0x38>)
 8000760:	78db      	ldrb	r3, [r3, #3]
 8000762:	021b      	lsls	r3, r3, #8
 8000764:	b29b      	uxth	r3, r3
		(uint16_t)(action.data[0]);
 8000766:	4a06      	ldr	r2, [pc, #24]	@ (8000780 <GetCrc16+0x38>)
 8000768:	7892      	ldrb	r2, [r2, #2]
		crc16_schet = (uint16_t)(action.data[1] << 8) |
 800076a:	4313      	orrs	r3, r2
 800076c:	b29a      	uxth	r2, r3
 800076e:	4b05      	ldr	r3, [pc, #20]	@ (8000784 <GetCrc16+0x3c>)
 8000770:	801a      	strh	r2, [r3, #0]
		action.command = READ_DATA;
 8000772:	4b03      	ldr	r3, [pc, #12]	@ (8000780 <GetCrc16+0x38>)
 8000774:	2203      	movs	r2, #3
 8000776:	701a      	strb	r2, [r3, #0]
	}
}
 8000778:	bf00      	nop
 800077a:	3708      	adds	r7, #8
 800077c:	46bd      	mov	sp, r7
 800077e:	bd80      	pop	{r7, pc}
 8000780:	20000008 	.word	0x20000008
 8000784:	20000544 	.word	0x20000544

08000788 <ReadMemoryOnDevice>:

void ReadMemoryOnDevice(uint32_t address){
 8000788:	b580      	push	{r7, lr}
 800078a:	b082      	sub	sp, #8
 800078c:	af00      	add	r7, sp, #0
 800078e:	6078      	str	r0, [r7, #4]
	if(ReadFlashData(address+byteReads, read) && dataSize >= read){
 8000790:	4b24      	ldr	r3, [pc, #144]	@ (8000824 <ReadMemoryOnDevice+0x9c>)
 8000792:	681a      	ldr	r2, [r3, #0]
 8000794:	687b      	ldr	r3, [r7, #4]
 8000796:	4413      	add	r3, r2
 8000798:	4a23      	ldr	r2, [pc, #140]	@ (8000828 <ReadMemoryOnDevice+0xa0>)
 800079a:	8812      	ldrh	r2, [r2, #0]
 800079c:	4611      	mov	r1, r2
 800079e:	4618      	mov	r0, r3
 80007a0:	f7ff fd7e 	bl	80002a0 <ReadFlashData>
 80007a4:	4603      	mov	r3, r0
 80007a6:	2b00      	cmp	r3, #0
 80007a8:	d038      	beq.n	800081c <ReadMemoryOnDevice+0x94>
 80007aa:	4b1f      	ldr	r3, [pc, #124]	@ (8000828 <ReadMemoryOnDevice+0xa0>)
 80007ac:	881b      	ldrh	r3, [r3, #0]
 80007ae:	461a      	mov	r2, r3
 80007b0:	4b1e      	ldr	r3, [pc, #120]	@ (800082c <ReadMemoryOnDevice+0xa4>)
 80007b2:	681b      	ldr	r3, [r3, #0]
 80007b4:	429a      	cmp	r2, r3
 80007b6:	d831      	bhi.n	800081c <ReadMemoryOnDevice+0x94>
		byteReads+=read;
 80007b8:	4b1b      	ldr	r3, [pc, #108]	@ (8000828 <ReadMemoryOnDevice+0xa0>)
 80007ba:	881b      	ldrh	r3, [r3, #0]
 80007bc:	461a      	mov	r2, r3
 80007be:	4b19      	ldr	r3, [pc, #100]	@ (8000824 <ReadMemoryOnDevice+0x9c>)
 80007c0:	681b      	ldr	r3, [r3, #0]
 80007c2:	4413      	add	r3, r2
 80007c4:	4a17      	ldr	r2, [pc, #92]	@ (8000824 <ReadMemoryOnDevice+0x9c>)
 80007c6:	6013      	str	r3, [r2, #0]
		crc_now = crc16(crc_now, action.data, read);
 80007c8:	4b19      	ldr	r3, [pc, #100]	@ (8000830 <ReadMemoryOnDevice+0xa8>)
 80007ca:	881b      	ldrh	r3, [r3, #0]
 80007cc:	b29b      	uxth	r3, r3
 80007ce:	4a16      	ldr	r2, [pc, #88]	@ (8000828 <ReadMemoryOnDevice+0xa0>)
 80007d0:	8812      	ldrh	r2, [r2, #0]
 80007d2:	4918      	ldr	r1, [pc, #96]	@ (8000834 <ReadMemoryOnDevice+0xac>)
 80007d4:	4618      	mov	r0, r3
 80007d6:	f7ff ff50 	bl	800067a <crc16>
 80007da:	4603      	mov	r3, r0
 80007dc:	461a      	mov	r2, r3
 80007de:	4b14      	ldr	r3, [pc, #80]	@ (8000830 <ReadMemoryOnDevice+0xa8>)
 80007e0:	801a      	strh	r2, [r3, #0]
		if((dataSize-byteReads) == 0){
 80007e2:	4b12      	ldr	r3, [pc, #72]	@ (800082c <ReadMemoryOnDevice+0xa4>)
 80007e4:	681a      	ldr	r2, [r3, #0]
 80007e6:	4b0f      	ldr	r3, [pc, #60]	@ (8000824 <ReadMemoryOnDevice+0x9c>)
 80007e8:	681b      	ldr	r3, [r3, #0]
 80007ea:	429a      	cmp	r2, r3
 80007ec:	d103      	bne.n	80007f6 <ReadMemoryOnDevice+0x6e>
		  action.command = GO_COMMAND;
 80007ee:	4b12      	ldr	r3, [pc, #72]	@ (8000838 <ReadMemoryOnDevice+0xb0>)
 80007f0:	2221      	movs	r2, #33	@ 0x21
 80007f2:	701a      	strb	r2, [r3, #0]
		}else if((dataSize-byteReads) < read){
		  read = (dataSize-byteReads);
		}
	}
}
 80007f4:	e012      	b.n	800081c <ReadMemoryOnDevice+0x94>
		}else if((dataSize-byteReads) < read){
 80007f6:	4b0d      	ldr	r3, [pc, #52]	@ (800082c <ReadMemoryOnDevice+0xa4>)
 80007f8:	681a      	ldr	r2, [r3, #0]
 80007fa:	4b0a      	ldr	r3, [pc, #40]	@ (8000824 <ReadMemoryOnDevice+0x9c>)
 80007fc:	681b      	ldr	r3, [r3, #0]
 80007fe:	1ad3      	subs	r3, r2, r3
 8000800:	4a09      	ldr	r2, [pc, #36]	@ (8000828 <ReadMemoryOnDevice+0xa0>)
 8000802:	8812      	ldrh	r2, [r2, #0]
 8000804:	4293      	cmp	r3, r2
 8000806:	d209      	bcs.n	800081c <ReadMemoryOnDevice+0x94>
		  read = (dataSize-byteReads);
 8000808:	4b08      	ldr	r3, [pc, #32]	@ (800082c <ReadMemoryOnDevice+0xa4>)
 800080a:	681b      	ldr	r3, [r3, #0]
 800080c:	b29a      	uxth	r2, r3
 800080e:	4b05      	ldr	r3, [pc, #20]	@ (8000824 <ReadMemoryOnDevice+0x9c>)
 8000810:	681b      	ldr	r3, [r3, #0]
 8000812:	b29b      	uxth	r3, r3
 8000814:	1ad3      	subs	r3, r2, r3
 8000816:	b29a      	uxth	r2, r3
 8000818:	4b03      	ldr	r3, [pc, #12]	@ (8000828 <ReadMemoryOnDevice+0xa0>)
 800081a:	801a      	strh	r2, [r3, #0]
}
 800081c:	bf00      	nop
 800081e:	3708      	adds	r7, #8
 8000820:	46bd      	mov	sp, r7
 8000822:	bd80      	pop	{r7, pc}
 8000824:	2000053c 	.word	0x2000053c
 8000828:	20000000 	.word	0x20000000
 800082c:	20000540 	.word	0x20000540
 8000830:	20000002 	.word	0x20000002
 8000834:	2000000a 	.word	0x2000000a
 8000838:	20000008 	.word	0x20000008

0800083c <VerifyAndGo>:

void VerifyAndGo(uint32_t address){
 800083c:	b580      	push	{r7, lr}
 800083e:	b082      	sub	sp, #8
 8000840:	af00      	add	r7, sp, #0
 8000842:	6078      	str	r0, [r7, #4]
	if(crc16_schet == crc_now){
 8000844:	4b0c      	ldr	r3, [pc, #48]	@ (8000878 <VerifyAndGo+0x3c>)
 8000846:	881a      	ldrh	r2, [r3, #0]
 8000848:	4b0c      	ldr	r3, [pc, #48]	@ (800087c <VerifyAndGo+0x40>)
 800084a:	881b      	ldrh	r3, [r3, #0]
 800084c:	b29b      	uxth	r3, r3
 800084e:	429a      	cmp	r2, r3
 8000850:	d10b      	bne.n	800086a <VerifyAndGo+0x2e>
		if(GoInProgramm(address)){
 8000852:	6878      	ldr	r0, [r7, #4]
 8000854:	f7ff fda0 	bl	8000398 <GoInProgramm>
 8000858:	4603      	mov	r3, r0
 800085a:	2b00      	cmp	r3, #0
 800085c:	d008      	beq.n	8000870 <VerifyAndGo+0x34>
			BootModeEnd();
 800085e:	f7ff fc91 	bl	8000184 <BootModeEnd>
			action.command = SUCCESS_LOG;
 8000862:	4b07      	ldr	r3, [pc, #28]	@ (8000880 <VerifyAndGo+0x44>)
 8000864:	2205      	movs	r2, #5
 8000866:	701a      	strb	r2, [r3, #0]
		}
	}else
		action.command = ERROR_LOG;
}
 8000868:	e002      	b.n	8000870 <VerifyAndGo+0x34>
		action.command = ERROR_LOG;
 800086a:	4b05      	ldr	r3, [pc, #20]	@ (8000880 <VerifyAndGo+0x44>)
 800086c:	2200      	movs	r2, #0
 800086e:	701a      	strb	r2, [r3, #0]
}
 8000870:	bf00      	nop
 8000872:	3708      	adds	r7, #8
 8000874:	46bd      	mov	sp, r7
 8000876:	bd80      	pop	{r7, pc}
 8000878:	20000544 	.word	0x20000544
 800087c:	20000002 	.word	0x20000002
 8000880:	20000008 	.word	0x20000008

08000884 <main>:
uint8_t rxcall = 0;
ReciveData recive = {RECIVE_STATE, 1};
Action action = {GET_DATA_SIZE, 0, {}};

int main(void)
{
 8000884:	b580      	push	{r7, lr}
 8000886:	af00      	add	r7, sp, #0
  HAL_Init();
 8000888:	f000 f9a0 	bl	8000bcc <HAL_Init>
  SystemClock_Config();
 800088c:	f7ff feba 	bl	8000604 <SystemClock_Config>
  MX_GPIO_Init();
 8000890:	f7ff fe66 	bl	8000560 <MX_GPIO_Init>
  MX_USART1_UART_Init();
 8000894:	f000 f8fc 	bl	8000a90 <MX_USART1_UART_Init>
  HAL_UART_Receive_IT(&huart1,&rxcall,1);
 8000898:	2201      	movs	r2, #1
 800089a:	4940      	ldr	r1, [pc, #256]	@ (800099c <main+0x118>)
 800089c:	4840      	ldr	r0, [pc, #256]	@ (80009a0 <main+0x11c>)
 800089e:	f001 f9f1 	bl	8001c84 <HAL_UART_Receive_IT>

  BootModeStart(); 								// Start boot mode
 80008a2:	f7ff fc53 	bl	800014c <BootModeStart>
  HAL_Delay(400);
 80008a6:	f44f 70c8 	mov.w	r0, #400	@ 0x190
 80008aa:	f000 f9f1 	bl	8000c90 <HAL_Delay>

  StartCommand();  								// Start connection
 80008ae:	f7ff fccf 	bl	8000250 <StartCommand>
  HAL_GPIO_WritePin(GPIOC, GPIO_PIN_13, GPIO_PIN_RESET);
 80008b2:	2200      	movs	r2, #0
 80008b4:	f44f 5100 	mov.w	r1, #8192	@ 0x2000
 80008b8:	483a      	ldr	r0, [pc, #232]	@ (80009a4 <main+0x120>)
 80008ba:	f000 fd51 	bl	8001360 <HAL_GPIO_WritePin>
  while (1)
  {
	  switch(action.command){
 80008be:	4b3a      	ldr	r3, [pc, #232]	@ (80009a8 <main+0x124>)
 80008c0:	781b      	ldrb	r3, [r3, #0]
 80008c2:	2b21      	cmp	r3, #33	@ 0x21
 80008c4:	d8fb      	bhi.n	80008be <main+0x3a>
 80008c6:	a201      	add	r2, pc, #4	@ (adr r2, 80008cc <main+0x48>)
 80008c8:	f852 f023 	ldr.w	pc, [r2, r3, lsl #2]
 80008cc:	08000987 	.word	0x08000987
 80008d0:	08000955 	.word	0x08000955
 80008d4:	0800095d 	.word	0x0800095d
 80008d8:	08000965 	.word	0x08000965
 80008dc:	080008bf 	.word	0x080008bf
 80008e0:	08000979 	.word	0x08000979
 80008e4:	080008bf 	.word	0x080008bf
 80008e8:	080008bf 	.word	0x080008bf
 80008ec:	080008bf 	.word	0x080008bf
 80008f0:	080008bf 	.word	0x080008bf
 80008f4:	080008bf 	.word	0x080008bf
 80008f8:	080008bf 	.word	0x080008bf
 80008fc:	080008bf 	.word	0x080008bf
 8000900:	080008bf 	.word	0x080008bf
 8000904:	080008bf 	.word	0x080008bf
 8000908:	080008bf 	.word	0x080008bf
 800090c:	080008bf 	.word	0x080008bf
 8000910:	080008bf 	.word	0x080008bf
 8000914:	080008bf 	.word	0x080008bf
 8000918:	080008bf 	.word	0x080008bf
 800091c:	080008bf 	.word	0x080008bf
 8000920:	080008bf 	.word	0x080008bf
 8000924:	080008bf 	.word	0x080008bf
 8000928:	080008bf 	.word	0x080008bf
 800092c:	080008bf 	.word	0x080008bf
 8000930:	080008bf 	.word	0x080008bf
 8000934:	080008bf 	.word	0x080008bf
 8000938:	080008bf 	.word	0x080008bf
 800093c:	080008bf 	.word	0x080008bf
 8000940:	080008bf 	.word	0x080008bf
 8000944:	080008bf 	.word	0x080008bf
 8000948:	080008bf 	.word	0x080008bf
 800094c:	080008bf 	.word	0x080008bf
 8000950:	0800096f 	.word	0x0800096f
	  	  case(GET_DATA_SIZE):
			  GetDataSize(FLASH_DATA_SIZE_POS);
 8000954:	4815      	ldr	r0, [pc, #84]	@ (80009ac <main+0x128>)
 8000956:	f7ff fed1 	bl	80006fc <GetDataSize>
		  	  break;
 800095a:	e01e      	b.n	800099a <main+0x116>
	  	  case(GET_CRC16):
			  GetCrc16(FLASH_CRC16_POS);
 800095c:	4814      	ldr	r0, [pc, #80]	@ (80009b0 <main+0x12c>)
 800095e:	f7ff fef3 	bl	8000748 <GetCrc16>
	  	  	  break;
 8000962:	e01a      	b.n	800099a <main+0x116>
	  	  case(READ_DATA):
			  ReadMemoryOnDevice(FLASH_ADRESS_START);
 8000964:	f04f 6000 	mov.w	r0, #134217728	@ 0x8000000
 8000968:	f7ff ff0e 	bl	8000788 <ReadMemoryOnDevice>
	  	  	  break;
 800096c:	e015      	b.n	800099a <main+0x116>
	  	  case(GO_COMMAND):
			  VerifyAndGo(FLASH_ADRESS_START);
 800096e:	f04f 6000 	mov.w	r0, #134217728	@ 0x8000000
 8000972:	f7ff ff63 	bl	800083c <VerifyAndGo>
	  	  	  break;
 8000976:	e010      	b.n	800099a <main+0x116>
	  	  case(SUCCESS_LOG):
			  HAL_GPIO_WritePin(GPIOC, GPIO_PIN_13, GPIO_PIN_SET);
 8000978:	2201      	movs	r2, #1
 800097a:	f44f 5100 	mov.w	r1, #8192	@ 0x2000
 800097e:	4809      	ldr	r0, [pc, #36]	@ (80009a4 <main+0x120>)
 8000980:	f000 fcee 	bl	8001360 <HAL_GPIO_WritePin>
	  	  	  break;
 8000984:	e009      	b.n	800099a <main+0x116>
	  	  case(ERROR_LOG):
			  HAL_GPIO_TogglePin(GPIOC, GPIO_PIN_13);
 8000986:	f44f 5100 	mov.w	r1, #8192	@ 0x2000
 800098a:	4806      	ldr	r0, [pc, #24]	@ (80009a4 <main+0x120>)
 800098c:	f000 fd00 	bl	8001390 <HAL_GPIO_TogglePin>
			  HAL_Delay(500);
 8000990:	f44f 70fa 	mov.w	r0, #500	@ 0x1f4
 8000994:	f000 f97c 	bl	8000c90 <HAL_Delay>
 8000998:	e791      	b.n	80008be <main+0x3a>
	  switch(action.command){
 800099a:	e790      	b.n	80008be <main+0x3a>
 800099c:	20000546 	.word	0x20000546
 80009a0:	20000548 	.word	0x20000548
 80009a4:	40011000 	.word	0x40011000
 80009a8:	20000008 	.word	0x20000008
 80009ac:	0800fffa 	.word	0x0800fffa
 80009b0:	0800fffe 	.word	0x0800fffe

080009b4 <HAL_MspInit>:
/* USER CODE END 0 */
/**
  * Initializes the Global MSP.
  */
void HAL_MspInit(void)
{
 80009b4:	b480      	push	{r7}
 80009b6:	b085      	sub	sp, #20
 80009b8:	af00      	add	r7, sp, #0

  /* USER CODE BEGIN MspInit 0 */

  /* USER CODE END MspInit 0 */

  __HAL_RCC_AFIO_CLK_ENABLE();
 80009ba:	4b15      	ldr	r3, [pc, #84]	@ (8000a10 <HAL_MspInit+0x5c>)
 80009bc:	699b      	ldr	r3, [r3, #24]
 80009be:	4a14      	ldr	r2, [pc, #80]	@ (8000a10 <HAL_MspInit+0x5c>)
 80009c0:	f043 0301 	orr.w	r3, r3, #1
 80009c4:	6193      	str	r3, [r2, #24]
 80009c6:	4b12      	ldr	r3, [pc, #72]	@ (8000a10 <HAL_MspInit+0x5c>)
 80009c8:	699b      	ldr	r3, [r3, #24]
 80009ca:	f003 0301 	and.w	r3, r3, #1
 80009ce:	60bb      	str	r3, [r7, #8]
 80009d0:	68bb      	ldr	r3, [r7, #8]
  __HAL_RCC_PWR_CLK_ENABLE();
 80009d2:	4b0f      	ldr	r3, [pc, #60]	@ (8000a10 <HAL_MspInit+0x5c>)
 80009d4:	69db      	ldr	r3, [r3, #28]
 80009d6:	4a0e      	ldr	r2, [pc, #56]	@ (8000a10 <HAL_MspInit+0x5c>)
 80009d8:	f043 5380 	orr.w	r3, r3, #268435456	@ 0x10000000
 80009dc:	61d3      	str	r3, [r2, #28]
 80009de:	4b0c      	ldr	r3, [pc, #48]	@ (8000a10 <HAL_MspInit+0x5c>)
 80009e0:	69db      	ldr	r3, [r3, #28]
 80009e2:	f003 5380 	and.w	r3, r3, #268435456	@ 0x10000000
 80009e6:	607b      	str	r3, [r7, #4]
 80009e8:	687b      	ldr	r3, [r7, #4]

  /* System interrupt init*/

  /** NOJTAG: JTAG-DP Disabled and SW-DP Enabled
  */
  __HAL_AFIO_REMAP_SWJ_NOJTAG();
 80009ea:	4b0a      	ldr	r3, [pc, #40]	@ (8000a14 <HAL_MspInit+0x60>)
 80009ec:	685b      	ldr	r3, [r3, #4]
 80009ee:	60fb      	str	r3, [r7, #12]
 80009f0:	68fb      	ldr	r3, [r7, #12]
 80009f2:	f023 63e0 	bic.w	r3, r3, #117440512	@ 0x7000000
 80009f6:	60fb      	str	r3, [r7, #12]
 80009f8:	68fb      	ldr	r3, [r7, #12]
 80009fa:	f043 7300 	orr.w	r3, r3, #33554432	@ 0x2000000
 80009fe:	60fb      	str	r3, [r7, #12]
 8000a00:	4a04      	ldr	r2, [pc, #16]	@ (8000a14 <HAL_MspInit+0x60>)
 8000a02:	68fb      	ldr	r3, [r7, #12]
 8000a04:	6053      	str	r3, [r2, #4]

  /* USER CODE BEGIN MspInit 1 */

  /* USER CODE END MspInit 1 */
}
 8000a06:	bf00      	nop
 8000a08:	3714      	adds	r7, #20
 8000a0a:	46bd      	mov	sp, r7
 8000a0c:	bc80      	pop	{r7}
 8000a0e:	4770      	bx	lr
 8000a10:	40021000 	.word	0x40021000
 8000a14:	40010000 	.word	0x40010000

08000a18 <NMI_Handler>:
/******************************************************************************/
/**
  * @brief This function handles Non maskable interrupt.
  */
void NMI_Handler(void)
{
 8000a18:	b480      	push	{r7}
 8000a1a:	af00      	add	r7, sp, #0
  /* USER CODE BEGIN NonMaskableInt_IRQn 0 */

  /* USER CODE END NonMaskableInt_IRQn 0 */
  /* USER CODE BEGIN NonMaskableInt_IRQn 1 */
   while (1)
 8000a1c:	bf00      	nop
 8000a1e:	e7fd      	b.n	8000a1c <NMI_Handler+0x4>

08000a20 <HardFault_Handler>:

/**
  * @brief This function handles Hard fault interrupt.
  */
void HardFault_Handler(void)
{
 8000a20:	b480      	push	{r7}
 8000a22:	af00      	add	r7, sp, #0
  /* USER CODE BEGIN HardFault_IRQn 0 */

  /* USER CODE END HardFault_IRQn 0 */
  while (1)
 8000a24:	bf00      	nop
 8000a26:	e7fd      	b.n	8000a24 <HardFault_Handler+0x4>

08000a28 <MemManage_Handler>:

/**
  * @brief This function handles Memory management fault.
  */
void MemManage_Handler(void)
{
 8000a28:	b480      	push	{r7}
 8000a2a:	af00      	add	r7, sp, #0
  /* USER CODE BEGIN MemoryManagement_IRQn 0 */

  /* USER CODE END MemoryManagement_IRQn 0 */
  while (1)
 8000a2c:	bf00      	nop
 8000a2e:	e7fd      	b.n	8000a2c <MemManage_Handler+0x4>

08000a30 <BusFault_Handler>:

/**
  * @brief This function handles Prefetch fault, memory access fault.
  */
void BusFault_Handler(void)
{
 8000a30:	b480      	push	{r7}
 8000a32:	af00      	add	r7, sp, #0
  /* USER CODE BEGIN BusFault_IRQn 0 */

  /* USER CODE END BusFault_IRQn 0 */
  while (1)
 8000a34:	bf00      	nop
 8000a36:	e7fd      	b.n	8000a34 <BusFault_Handler+0x4>

08000a38 <UsageFault_Handler>:

/**
  * @brief This function handles Undefined instruction or illegal state.
  */
void UsageFault_Handler(void)
{
 8000a38:	b480      	push	{r7}
 8000a3a:	af00      	add	r7, sp, #0
  /* USER CODE BEGIN UsageFault_IRQn 0 */

  /* USER CODE END UsageFault_IRQn 0 */
  while (1)
 8000a3c:	bf00      	nop
 8000a3e:	e7fd      	b.n	8000a3c <UsageFault_Handler+0x4>

08000a40 <SVC_Handler>:

/**
  * @brief This function handles System service call via SWI instruction.
  */
void SVC_Handler(void)
{
 8000a40:	b480      	push	{r7}
 8000a42:	af00      	add	r7, sp, #0

  /* USER CODE END SVCall_IRQn 0 */
  /* USER CODE BEGIN SVCall_IRQn 1 */

  /* USER CODE END SVCall_IRQn 1 */
}
 8000a44:	bf00      	nop
 8000a46:	46bd      	mov	sp, r7
 8000a48:	bc80      	pop	{r7}
 8000a4a:	4770      	bx	lr

08000a4c <DebugMon_Handler>:

/**
  * @brief This function handles Debug monitor.
  */
void DebugMon_Handler(void)
{
 8000a4c:	b480      	push	{r7}
 8000a4e:	af00      	add	r7, sp, #0

  /* USER CODE END DebugMonitor_IRQn 0 */
  /* USER CODE BEGIN DebugMonitor_IRQn 1 */

  /* USER CODE END DebugMonitor_IRQn 1 */
}
 8000a50:	bf00      	nop
 8000a52:	46bd      	mov	sp, r7
 8000a54:	bc80      	pop	{r7}
 8000a56:	4770      	bx	lr

08000a58 <PendSV_Handler>:

/**
  * @brief This function handles Pendable request for system service.
  */
void PendSV_Handler(void)
{
 8000a58:	b480      	push	{r7}
 8000a5a:	af00      	add	r7, sp, #0

  /* USER CODE END PendSV_IRQn 0 */
  /* USER CODE BEGIN PendSV_IRQn 1 */

  /* USER CODE END PendSV_IRQn 1 */
}
 8000a5c:	bf00      	nop
 8000a5e:	46bd      	mov	sp, r7
 8000a60:	bc80      	pop	{r7}
 8000a62:	4770      	bx	lr

08000a64 <SysTick_Handler>:

/**
  * @brief This function handles System tick timer.
  */
void SysTick_Handler(void)
{
 8000a64:	b580      	push	{r7, lr}
 8000a66:	af00      	add	r7, sp, #0
  /* USER CODE BEGIN SysTick_IRQn 0 */

  /* USER CODE END SysTick_IRQn 0 */
  HAL_IncTick();
 8000a68:	f000 f8f6 	bl	8000c58 <HAL_IncTick>
  /* USER CODE BEGIN SysTick_IRQn 1 */

  /* USER CODE END SysTick_IRQn 1 */
}
 8000a6c:	bf00      	nop
 8000a6e:	bd80      	pop	{r7, pc}

08000a70 <USART1_IRQHandler>:

/**
  * @brief This function handles USART1 global interrupt.
  */
void USART1_IRQHandler(void)
{
 8000a70:	b580      	push	{r7, lr}
 8000a72:	af00      	add	r7, sp, #0
  /* USER CODE BEGIN USART1_IRQn 0 */

  /* USER CODE END USART1_IRQn 0 */
  HAL_UART_IRQHandler(&huart1);
 8000a74:	4802      	ldr	r0, [pc, #8]	@ (8000a80 <USART1_IRQHandler+0x10>)
 8000a76:	f001 f92b 	bl	8001cd0 <HAL_UART_IRQHandler>
  /* USER CODE BEGIN USART1_IRQn 1 */

  /* USER CODE END USART1_IRQn 1 */
}
 8000a7a:	bf00      	nop
 8000a7c:	bd80      	pop	{r7, pc}
 8000a7e:	bf00      	nop
 8000a80:	20000548 	.word	0x20000548

08000a84 <SystemInit>:
  * @note   This function should be used only after reset.
  * @param  None
  * @retval None
  */
void SystemInit (void)
{
 8000a84:	b480      	push	{r7}
 8000a86:	af00      	add	r7, sp, #0

  /* Configure the Vector Table location -------------------------------------*/
#if defined(USER_VECT_TAB_ADDRESS)
  SCB->VTOR = VECT_TAB_BASE_ADDRESS | VECT_TAB_OFFSET; /* Vector Table Relocation in Internal SRAM. */
#endif /* USER_VECT_TAB_ADDRESS */
}
 8000a88:	bf00      	nop
 8000a8a:	46bd      	mov	sp, r7
 8000a8c:	bc80      	pop	{r7}
 8000a8e:	4770      	bx	lr

08000a90 <MX_USART1_UART_Init>:
UART_HandleTypeDef huart1;

/* USART1 init function */

void MX_USART1_UART_Init(void)
{
 8000a90:	b580      	push	{r7, lr}
 8000a92:	af00      	add	r7, sp, #0
  /* USER CODE END USART1_Init 0 */

  /* USER CODE BEGIN USART1_Init 1 */

  /* USER CODE END USART1_Init 1 */
  huart1.Instance = USART1;
 8000a94:	4b0e      	ldr	r3, [pc, #56]	@ (8000ad0 <MX_USART1_UART_Init+0x40>)
 8000a96:	4a0f      	ldr	r2, [pc, #60]	@ (8000ad4 <MX_USART1_UART_Init+0x44>)
 8000a98:	601a      	str	r2, [r3, #0]
  huart1.Init.BaudRate = 115200;
 8000a9a:	4b0d      	ldr	r3, [pc, #52]	@ (8000ad0 <MX_USART1_UART_Init+0x40>)
 8000a9c:	f44f 32e1 	mov.w	r2, #115200	@ 0x1c200
 8000aa0:	605a      	str	r2, [r3, #4]
  huart1.Init.WordLength = UART_WORDLENGTH_8B;
 8000aa2:	4b0b      	ldr	r3, [pc, #44]	@ (8000ad0 <MX_USART1_UART_Init+0x40>)
 8000aa4:	2200      	movs	r2, #0
 8000aa6:	609a      	str	r2, [r3, #8]
  huart1.Init.StopBits = UART_STOPBITS_1;
 8000aa8:	4b09      	ldr	r3, [pc, #36]	@ (8000ad0 <MX_USART1_UART_Init+0x40>)
 8000aaa:	2200      	movs	r2, #0
 8000aac:	60da      	str	r2, [r3, #12]
  huart1.Init.Parity = UART_PARITY_NONE;
 8000aae:	4b08      	ldr	r3, [pc, #32]	@ (8000ad0 <MX_USART1_UART_Init+0x40>)
 8000ab0:	2200      	movs	r2, #0
 8000ab2:	611a      	str	r2, [r3, #16]
  huart1.Init.Mode = UART_MODE_TX_RX;
 8000ab4:	4b06      	ldr	r3, [pc, #24]	@ (8000ad0 <MX_USART1_UART_Init+0x40>)
 8000ab6:	220c      	movs	r2, #12
 8000ab8:	615a      	str	r2, [r3, #20]
  huart1.Init.HwFlowCtl = UART_HWCONTROL_NONE;
 8000aba:	4b05      	ldr	r3, [pc, #20]	@ (8000ad0 <MX_USART1_UART_Init+0x40>)
 8000abc:	2200      	movs	r2, #0
 8000abe:	619a      	str	r2, [r3, #24]
  huart1.Init.OverSampling = UART_OVERSAMPLING_16;
 8000ac0:	4b03      	ldr	r3, [pc, #12]	@ (8000ad0 <MX_USART1_UART_Init+0x40>)
 8000ac2:	2200      	movs	r2, #0
 8000ac4:	61da      	str	r2, [r3, #28]
  HAL_UART_Init(&huart1);
 8000ac6:	4802      	ldr	r0, [pc, #8]	@ (8000ad0 <MX_USART1_UART_Init+0x40>)
 8000ac8:	f001 f88c 	bl	8001be4 <HAL_UART_Init>
}
 8000acc:	bf00      	nop
 8000ace:	bd80      	pop	{r7, pc}
 8000ad0:	20000548 	.word	0x20000548
 8000ad4:	40013800 	.word	0x40013800

08000ad8 <HAL_UART_MspInit>:

void HAL_UART_MspInit(UART_HandleTypeDef* uartHandle)
{
 8000ad8:	b580      	push	{r7, lr}
 8000ada:	b088      	sub	sp, #32
 8000adc:	af00      	add	r7, sp, #0
 8000ade:	6078      	str	r0, [r7, #4]

  GPIO_InitTypeDef GPIO_InitStruct = {0};
 8000ae0:	f107 0310 	add.w	r3, r7, #16
 8000ae4:	2200      	movs	r2, #0
 8000ae6:	601a      	str	r2, [r3, #0]
 8000ae8:	605a      	str	r2, [r3, #4]
 8000aea:	609a      	str	r2, [r3, #8]
 8000aec:	60da      	str	r2, [r3, #12]
  if(uartHandle->Instance==USART1)
 8000aee:	687b      	ldr	r3, [r7, #4]
 8000af0:	681b      	ldr	r3, [r3, #0]
 8000af2:	4a20      	ldr	r2, [pc, #128]	@ (8000b74 <HAL_UART_MspInit+0x9c>)
 8000af4:	4293      	cmp	r3, r2
 8000af6:	d139      	bne.n	8000b6c <HAL_UART_MspInit+0x94>
  {
  /* USER CODE BEGIN USART1_MspInit 0 */

  /* USER CODE END USART1_MspInit 0 */
    /* USART1 clock enable */
    __HAL_RCC_USART1_CLK_ENABLE();
 8000af8:	4b1f      	ldr	r3, [pc, #124]	@ (8000b78 <HAL_UART_MspInit+0xa0>)
 8000afa:	699b      	ldr	r3, [r3, #24]
 8000afc:	4a1e      	ldr	r2, [pc, #120]	@ (8000b78 <HAL_UART_MspInit+0xa0>)
 8000afe:	f443 4380 	orr.w	r3, r3, #16384	@ 0x4000
 8000b02:	6193      	str	r3, [r2, #24]
 8000b04:	4b1c      	ldr	r3, [pc, #112]	@ (8000b78 <HAL_UART_MspInit+0xa0>)
 8000b06:	699b      	ldr	r3, [r3, #24]
 8000b08:	f403 4380 	and.w	r3, r3, #16384	@ 0x4000
 8000b0c:	60fb      	str	r3, [r7, #12]
 8000b0e:	68fb      	ldr	r3, [r7, #12]

    __HAL_RCC_GPIOA_CLK_ENABLE();
 8000b10:	4b19      	ldr	r3, [pc, #100]	@ (8000b78 <HAL_UART_MspInit+0xa0>)
 8000b12:	699b      	ldr	r3, [r3, #24]
 8000b14:	4a18      	ldr	r2, [pc, #96]	@ (8000b78 <HAL_UART_MspInit+0xa0>)
 8000b16:	f043 0304 	orr.w	r3, r3, #4
 8000b1a:	6193      	str	r3, [r2, #24]
 8000b1c:	4b16      	ldr	r3, [pc, #88]	@ (8000b78 <HAL_UART_MspInit+0xa0>)
 8000b1e:	699b      	ldr	r3, [r3, #24]
 8000b20:	f003 0304 	and.w	r3, r3, #4
 8000b24:	60bb      	str	r3, [r7, #8]
 8000b26:	68bb      	ldr	r3, [r7, #8]
    /**USART1 GPIO Configuration
    PA9     ------> USART1_TX
    PA10     ------> USART1_RX
    */
    GPIO_InitStruct.Pin = GPIO_PIN_9;
 8000b28:	f44f 7300 	mov.w	r3, #512	@ 0x200
 8000b2c:	613b      	str	r3, [r7, #16]
    GPIO_InitStruct.Mode = GPIO_MODE_AF_PP;
 8000b2e:	2302      	movs	r3, #2
 8000b30:	617b      	str	r3, [r7, #20]
    GPIO_InitStruct.Speed = GPIO_SPEED_FREQ_HIGH;
 8000b32:	2303      	movs	r3, #3
 8000b34:	61fb      	str	r3, [r7, #28]
    HAL_GPIO_Init(GPIOA, &GPIO_InitStruct);
 8000b36:	f107 0310 	add.w	r3, r7, #16
 8000b3a:	4619      	mov	r1, r3
 8000b3c:	480f      	ldr	r0, [pc, #60]	@ (8000b7c <HAL_UART_MspInit+0xa4>)
 8000b3e:	f000 fa8b 	bl	8001058 <HAL_GPIO_Init>

    GPIO_InitStruct.Pin = GPIO_PIN_10;
 8000b42:	f44f 6380 	mov.w	r3, #1024	@ 0x400
 8000b46:	613b      	str	r3, [r7, #16]
    GPIO_InitStruct.Mode = GPIO_MODE_INPUT;
 8000b48:	2300      	movs	r3, #0
 8000b4a:	617b      	str	r3, [r7, #20]
    GPIO_InitStruct.Pull = GPIO_NOPULL;
 8000b4c:	2300      	movs	r3, #0
 8000b4e:	61bb      	str	r3, [r7, #24]
    HAL_GPIO_Init(GPIOA, &GPIO_InitStruct);
 8000b50:	f107 0310 	add.w	r3, r7, #16
 8000b54:	4619      	mov	r1, r3
 8000b56:	4809      	ldr	r0, [pc, #36]	@ (8000b7c <HAL_UART_MspInit+0xa4>)
 8000b58:	f000 fa7e 	bl	8001058 <HAL_GPIO_Init>

    /* USART1 interrupt Init */
    HAL_NVIC_SetPriority(USART1_IRQn, 0, 0);
 8000b5c:	2200      	movs	r2, #0
 8000b5e:	2100      	movs	r1, #0
 8000b60:	2025      	movs	r0, #37	@ 0x25
 8000b62:	f000 f990 	bl	8000e86 <HAL_NVIC_SetPriority>
    HAL_NVIC_EnableIRQ(USART1_IRQn);
 8000b66:	2025      	movs	r0, #37	@ 0x25
 8000b68:	f000 f9a9 	bl	8000ebe <HAL_NVIC_EnableIRQ>
  /* USER CODE BEGIN USART1_MspInit 1 */

  /* USER CODE END USART1_MspInit 1 */
  }
}
 8000b6c:	bf00      	nop
 8000b6e:	3720      	adds	r7, #32
 8000b70:	46bd      	mov	sp, r7
 8000b72:	bd80      	pop	{r7, pc}
 8000b74:	40013800 	.word	0x40013800
 8000b78:	40021000 	.word	0x40021000
 8000b7c:	40010800 	.word	0x40010800

08000b80 <Reset_Handler>:
  .weak Reset_Handler
  .type Reset_Handler, %function
Reset_Handler:

/* Call the clock system initialization function.*/
    bl  SystemInit
 8000b80:	f7ff ff80 	bl	8000a84 <SystemInit>

/* Copy the data segment initializers from flash to SRAM */
  ldr r0, =_sdata
 8000b84:	480b      	ldr	r0, [pc, #44]	@ (8000bb4 <LoopFillZerobss+0xe>)
  ldr r1, =_edata
 8000b86:	490c      	ldr	r1, [pc, #48]	@ (8000bb8 <LoopFillZerobss+0x12>)
  ldr r2, =_sidata
 8000b88:	4a0c      	ldr	r2, [pc, #48]	@ (8000bbc <LoopFillZerobss+0x16>)
  movs r3, #0
 8000b8a:	2300      	movs	r3, #0
  b LoopCopyDataInit
 8000b8c:	e002      	b.n	8000b94 <LoopCopyDataInit>

08000b8e <CopyDataInit>:

CopyDataInit:
  ldr r4, [r2, r3]
 8000b8e:	58d4      	ldr	r4, [r2, r3]
  str r4, [r0, r3]
 8000b90:	50c4      	str	r4, [r0, r3]
  adds r3, r3, #4
 8000b92:	3304      	adds	r3, #4

08000b94 <LoopCopyDataInit>:

LoopCopyDataInit:
  adds r4, r0, r3
 8000b94:	18c4      	adds	r4, r0, r3
  cmp r4, r1
 8000b96:	428c      	cmp	r4, r1
  bcc CopyDataInit
 8000b98:	d3f9      	bcc.n	8000b8e <CopyDataInit>
  
/* Zero fill the bss segment. */
  ldr r2, =_sbss
 8000b9a:	4a09      	ldr	r2, [pc, #36]	@ (8000bc0 <LoopFillZerobss+0x1a>)
  ldr r4, =_ebss
 8000b9c:	4c09      	ldr	r4, [pc, #36]	@ (8000bc4 <LoopFillZerobss+0x1e>)
  movs r3, #0
 8000b9e:	2300      	movs	r3, #0
  b LoopFillZerobss
 8000ba0:	e001      	b.n	8000ba6 <LoopFillZerobss>

08000ba2 <FillZerobss>:

FillZerobss:
  str  r3, [r2]
 8000ba2:	6013      	str	r3, [r2, #0]
  adds r2, r2, #4
 8000ba4:	3204      	adds	r2, #4

08000ba6 <LoopFillZerobss>:

LoopFillZerobss:
  cmp r2, r4
 8000ba6:	42a2      	cmp	r2, r4
  bcc FillZerobss
 8000ba8:	d3fb      	bcc.n	8000ba2 <FillZerobss>

/* Call static constructors */
    bl __libc_init_array
 8000baa:	f001 fdab 	bl	8002704 <__libc_init_array>
/* Call the application's entry point.*/
  bl main
 8000bae:	f7ff fe69 	bl	8000884 <main>
  bx lr
 8000bb2:	4770      	bx	lr
  ldr r0, =_sdata
 8000bb4:	20000000 	.word	0x20000000
  ldr r1, =_edata
 8000bb8:	20000118 	.word	0x20000118
  ldr r2, =_sidata
 8000bbc:	080027a8 	.word	0x080027a8
  ldr r2, =_sbss
 8000bc0:	20000118 	.word	0x20000118
  ldr r4, =_ebss
 8000bc4:	20000594 	.word	0x20000594

08000bc8 <ADC1_2_IRQHandler>:
 * @retval : None
*/
    .section .text.Default_Handler,"ax",%progbits
Default_Handler:
Infinite_Loop:
  b Infinite_Loop
 8000bc8:	e7fe      	b.n	8000bc8 <ADC1_2_IRQHandler>
	...

08000bcc <HAL_Init>:
  *         need to ensure that the SysTick time base is always set to 1 millisecond
  *         to have correct HAL operation.
  * @retval HAL status
  */
HAL_StatusTypeDef HAL_Init(void)
{
 8000bcc:	b580      	push	{r7, lr}
 8000bce:	af00      	add	r7, sp, #0
    defined(STM32F102x6) || defined(STM32F102xB) || \
    defined(STM32F103x6) || defined(STM32F103xB) || defined(STM32F103xE) || defined(STM32F103xG) || \
    defined(STM32F105xC) || defined(STM32F107xC)

  /* Prefetch buffer is not available on value line devices */
  __HAL_FLASH_PREFETCH_BUFFER_ENABLE();
 8000bd0:	4b08      	ldr	r3, [pc, #32]	@ (8000bf4 <HAL_Init+0x28>)
 8000bd2:	681b      	ldr	r3, [r3, #0]
 8000bd4:	4a07      	ldr	r2, [pc, #28]	@ (8000bf4 <HAL_Init+0x28>)
 8000bd6:	f043 0310 	orr.w	r3, r3, #16
 8000bda:	6013      	str	r3, [r2, #0]
#endif
#endif /* PREFETCH_ENABLE */

  /* Set Interrupt Group Priority */
  HAL_NVIC_SetPriorityGrouping(NVIC_PRIORITYGROUP_4);
 8000bdc:	2003      	movs	r0, #3
 8000bde:	f000 f947 	bl	8000e70 <HAL_NVIC_SetPriorityGrouping>

  /* Use systick as time base source and configure 1ms tick (default clock after Reset is HSI) */
  HAL_InitTick(TICK_INT_PRIORITY);
 8000be2:	200f      	movs	r0, #15
 8000be4:	f000 f808 	bl	8000bf8 <HAL_InitTick>

  /* Init the low level hardware */
  HAL_MspInit();
 8000be8:	f7ff fee4 	bl	80009b4 <HAL_MspInit>

  /* Return function status */
  return HAL_OK;
 8000bec:	2300      	movs	r3, #0
}
 8000bee:	4618      	mov	r0, r3
 8000bf0:	bd80      	pop	{r7, pc}
 8000bf2:	bf00      	nop
 8000bf4:	40022000 	.word	0x40022000

08000bf8 <HAL_InitTick>:
  *       implementation  in user file.
  * @param TickPriority Tick interrupt priority.
  * @retval HAL status
  */
__weak HAL_StatusTypeDef HAL_InitTick(uint32_t TickPriority)
{
 8000bf8:	b580      	push	{r7, lr}
 8000bfa:	b082      	sub	sp, #8
 8000bfc:	af00      	add	r7, sp, #0
 8000bfe:	6078      	str	r0, [r7, #4]
  /* Configure the SysTick to have interrupt in 1ms time basis*/
  if (HAL_SYSTICK_Config(SystemCoreClock / (1000U / uwTickFreq)) > 0U)
 8000c00:	4b12      	ldr	r3, [pc, #72]	@ (8000c4c <HAL_InitTick+0x54>)
 8000c02:	681a      	ldr	r2, [r3, #0]
 8000c04:	4b12      	ldr	r3, [pc, #72]	@ (8000c50 <HAL_InitTick+0x58>)
 8000c06:	781b      	ldrb	r3, [r3, #0]
 8000c08:	4619      	mov	r1, r3
 8000c0a:	f44f 737a 	mov.w	r3, #1000	@ 0x3e8
 8000c0e:	fbb3 f3f1 	udiv	r3, r3, r1
 8000c12:	fbb2 f3f3 	udiv	r3, r2, r3
 8000c16:	4618      	mov	r0, r3
 8000c18:	f000 f95f 	bl	8000eda <HAL_SYSTICK_Config>
 8000c1c:	4603      	mov	r3, r0
 8000c1e:	2b00      	cmp	r3, #0
 8000c20:	d001      	beq.n	8000c26 <HAL_InitTick+0x2e>
  {
    return HAL_ERROR;
 8000c22:	2301      	movs	r3, #1
 8000c24:	e00e      	b.n	8000c44 <HAL_InitTick+0x4c>
  }

  /* Configure the SysTick IRQ priority */
  if (TickPriority < (1UL << __NVIC_PRIO_BITS))
 8000c26:	687b      	ldr	r3, [r7, #4]
 8000c28:	2b0f      	cmp	r3, #15
 8000c2a:	d80a      	bhi.n	8000c42 <HAL_InitTick+0x4a>
  {
    HAL_NVIC_SetPriority(SysTick_IRQn, TickPriority, 0U);
 8000c2c:	2200      	movs	r2, #0
 8000c2e:	6879      	ldr	r1, [r7, #4]
 8000c30:	f04f 30ff 	mov.w	r0, #4294967295
 8000c34:	f000 f927 	bl	8000e86 <HAL_NVIC_SetPriority>
    uwTickPrio = TickPriority;
 8000c38:	4a06      	ldr	r2, [pc, #24]	@ (8000c54 <HAL_InitTick+0x5c>)
 8000c3a:	687b      	ldr	r3, [r7, #4]
 8000c3c:	6013      	str	r3, [r2, #0]
  {
    return HAL_ERROR;
  }

  /* Return function status */
  return HAL_OK;
 8000c3e:	2300      	movs	r3, #0
 8000c40:	e000      	b.n	8000c44 <HAL_InitTick+0x4c>
    return HAL_ERROR;
 8000c42:	2301      	movs	r3, #1
}
 8000c44:	4618      	mov	r0, r3
 8000c46:	3708      	adds	r7, #8
 8000c48:	46bd      	mov	sp, r7
 8000c4a:	bd80      	pop	{r7, pc}
 8000c4c:	2000010c 	.word	0x2000010c
 8000c50:	20000114 	.word	0x20000114
 8000c54:	20000110 	.word	0x20000110

08000c58 <HAL_IncTick>:
  * @note This function is declared as __weak to be overwritten in case of other
  *      implementations in user file.
  * @retval None
  */
__weak void HAL_IncTick(void)
{
 8000c58:	b480      	push	{r7}
 8000c5a:	af00      	add	r7, sp, #0
  uwTick += uwTickFreq;
 8000c5c:	4b05      	ldr	r3, [pc, #20]	@ (8000c74 <HAL_IncTick+0x1c>)
 8000c5e:	781b      	ldrb	r3, [r3, #0]
 8000c60:	461a      	mov	r2, r3
 8000c62:	4b05      	ldr	r3, [pc, #20]	@ (8000c78 <HAL_IncTick+0x20>)
 8000c64:	681b      	ldr	r3, [r3, #0]
 8000c66:	4413      	add	r3, r2
 8000c68:	4a03      	ldr	r2, [pc, #12]	@ (8000c78 <HAL_IncTick+0x20>)
 8000c6a:	6013      	str	r3, [r2, #0]
}
 8000c6c:	bf00      	nop
 8000c6e:	46bd      	mov	sp, r7
 8000c70:	bc80      	pop	{r7}
 8000c72:	4770      	bx	lr
 8000c74:	20000114 	.word	0x20000114
 8000c78:	20000590 	.word	0x20000590

08000c7c <HAL_GetTick>:
  * @note  This function is declared as __weak to be overwritten in case of other
  *       implementations in user file.
  * @retval tick value
  */
__weak uint32_t HAL_GetTick(void)
{
 8000c7c:	b480      	push	{r7}
 8000c7e:	af00      	add	r7, sp, #0
  return uwTick;
 8000c80:	4b02      	ldr	r3, [pc, #8]	@ (8000c8c <HAL_GetTick+0x10>)
 8000c82:	681b      	ldr	r3, [r3, #0]
}
 8000c84:	4618      	mov	r0, r3
 8000c86:	46bd      	mov	sp, r7
 8000c88:	bc80      	pop	{r7}
 8000c8a:	4770      	bx	lr
 8000c8c:	20000590 	.word	0x20000590

08000c90 <HAL_Delay>:
  *       implementations in user file.
  * @param Delay specifies the delay time length, in milliseconds.
  * @retval None
  */
__weak void HAL_Delay(uint32_t Delay)
{
 8000c90:	b580      	push	{r7, lr}
 8000c92:	b084      	sub	sp, #16
 8000c94:	af00      	add	r7, sp, #0
 8000c96:	6078      	str	r0, [r7, #4]
  uint32_t tickstart = HAL_GetTick();
 8000c98:	f7ff fff0 	bl	8000c7c <HAL_GetTick>
 8000c9c:	60b8      	str	r0, [r7, #8]
  uint32_t wait = Delay;
 8000c9e:	687b      	ldr	r3, [r7, #4]
 8000ca0:	60fb      	str	r3, [r7, #12]

  /* Add a freq to guarantee minimum wait */
  if (wait < HAL_MAX_DELAY)
 8000ca2:	68fb      	ldr	r3, [r7, #12]
 8000ca4:	f1b3 3fff 	cmp.w	r3, #4294967295
 8000ca8:	d005      	beq.n	8000cb6 <HAL_Delay+0x26>
  {
    wait += (uint32_t)(uwTickFreq);
 8000caa:	4b0a      	ldr	r3, [pc, #40]	@ (8000cd4 <HAL_Delay+0x44>)
 8000cac:	781b      	ldrb	r3, [r3, #0]
 8000cae:	461a      	mov	r2, r3
 8000cb0:	68fb      	ldr	r3, [r7, #12]
 8000cb2:	4413      	add	r3, r2
 8000cb4:	60fb      	str	r3, [r7, #12]
  }

  while ((HAL_GetTick() - tickstart) < wait)
 8000cb6:	bf00      	nop
 8000cb8:	f7ff ffe0 	bl	8000c7c <HAL_GetTick>
 8000cbc:	4602      	mov	r2, r0
 8000cbe:	68bb      	ldr	r3, [r7, #8]
 8000cc0:	1ad3      	subs	r3, r2, r3
 8000cc2:	68fa      	ldr	r2, [r7, #12]
 8000cc4:	429a      	cmp	r2, r3
 8000cc6:	d8f7      	bhi.n	8000cb8 <HAL_Delay+0x28>
  {
  }
}
 8000cc8:	bf00      	nop
 8000cca:	bf00      	nop
 8000ccc:	3710      	adds	r7, #16
 8000cce:	46bd      	mov	sp, r7
 8000cd0:	bd80      	pop	{r7, pc}
 8000cd2:	bf00      	nop
 8000cd4:	20000114 	.word	0x20000114

08000cd8 <__NVIC_SetPriorityGrouping>:
           In case of a conflict between priority grouping and available
           priority bits (__NVIC_PRIO_BITS), the smallest possible priority group is set.
  \param [in]      PriorityGroup  Priority grouping field.
 */
__STATIC_INLINE void __NVIC_SetPriorityGrouping(uint32_t PriorityGroup)
{
 8000cd8:	b480      	push	{r7}
 8000cda:	b085      	sub	sp, #20
 8000cdc:	af00      	add	r7, sp, #0
 8000cde:	6078      	str	r0, [r7, #4]
  uint32_t reg_value;
  uint32_t PriorityGroupTmp = (PriorityGroup & (uint32_t)0x07UL);             /* only values 0..7 are used          */
 8000ce0:	687b      	ldr	r3, [r7, #4]
 8000ce2:	f003 0307 	and.w	r3, r3, #7
 8000ce6:	60fb      	str	r3, [r7, #12]

  reg_value  =  SCB->AIRCR;                                                   /* read old register configuration    */
 8000ce8:	4b0c      	ldr	r3, [pc, #48]	@ (8000d1c <__NVIC_SetPriorityGrouping+0x44>)
 8000cea:	68db      	ldr	r3, [r3, #12]
 8000cec:	60bb      	str	r3, [r7, #8]
  reg_value &= ~((uint32_t)(SCB_AIRCR_VECTKEY_Msk | SCB_AIRCR_PRIGROUP_Msk)); /* clear bits to change               */
 8000cee:	68ba      	ldr	r2, [r7, #8]
 8000cf0:	f64f 03ff 	movw	r3, #63743	@ 0xf8ff
 8000cf4:	4013      	ands	r3, r2
 8000cf6:	60bb      	str	r3, [r7, #8]
  reg_value  =  (reg_value                                   |
                ((uint32_t)0x5FAUL << SCB_AIRCR_VECTKEY_Pos) |
                (PriorityGroupTmp << SCB_AIRCR_PRIGROUP_Pos) );               /* Insert write key and priority group */
 8000cf8:	68fb      	ldr	r3, [r7, #12]
 8000cfa:	021a      	lsls	r2, r3, #8
                ((uint32_t)0x5FAUL << SCB_AIRCR_VECTKEY_Pos) |
 8000cfc:	68bb      	ldr	r3, [r7, #8]
 8000cfe:	4313      	orrs	r3, r2
  reg_value  =  (reg_value                                   |
 8000d00:	f043 63bf 	orr.w	r3, r3, #100139008	@ 0x5f80000
 8000d04:	f443 3300 	orr.w	r3, r3, #131072	@ 0x20000
 8000d08:	60bb      	str	r3, [r7, #8]
  SCB->AIRCR =  reg_value;
 8000d0a:	4a04      	ldr	r2, [pc, #16]	@ (8000d1c <__NVIC_SetPriorityGrouping+0x44>)
 8000d0c:	68bb      	ldr	r3, [r7, #8]
 8000d0e:	60d3      	str	r3, [r2, #12]
}
 8000d10:	bf00      	nop
 8000d12:	3714      	adds	r7, #20
 8000d14:	46bd      	mov	sp, r7
 8000d16:	bc80      	pop	{r7}
 8000d18:	4770      	bx	lr
 8000d1a:	bf00      	nop
 8000d1c:	e000ed00 	.word	0xe000ed00

08000d20 <__NVIC_GetPriorityGrouping>:
  \brief   Get Priority Grouping
  \details Reads the priority grouping field from the NVIC Interrupt Controller.
  \return                Priority grouping field (SCB->AIRCR [10:8] PRIGROUP field).
 */
__STATIC_INLINE uint32_t __NVIC_GetPriorityGrouping(void)
{
 8000d20:	b480      	push	{r7}
 8000d22:	af00      	add	r7, sp, #0
  return ((uint32_t)((SCB->AIRCR & SCB_AIRCR_PRIGROUP_Msk) >> SCB_AIRCR_PRIGROUP_Pos));
 8000d24:	4b04      	ldr	r3, [pc, #16]	@ (8000d38 <__NVIC_GetPriorityGrouping+0x18>)
 8000d26:	68db      	ldr	r3, [r3, #12]
 8000d28:	0a1b      	lsrs	r3, r3, #8
 8000d2a:	f003 0307 	and.w	r3, r3, #7
}
 8000d2e:	4618      	mov	r0, r3
 8000d30:	46bd      	mov	sp, r7
 8000d32:	bc80      	pop	{r7}
 8000d34:	4770      	bx	lr
 8000d36:	bf00      	nop
 8000d38:	e000ed00 	.word	0xe000ed00

08000d3c <__NVIC_EnableIRQ>:
  \details Enables a device specific interrupt in the NVIC interrupt controller.
  \param [in]      IRQn  Device specific interrupt number.
  \note    IRQn must not be negative.
 */
__STATIC_INLINE void __NVIC_EnableIRQ(IRQn_Type IRQn)
{
 8000d3c:	b480      	push	{r7}
 8000d3e:	b083      	sub	sp, #12
 8000d40:	af00      	add	r7, sp, #0
 8000d42:	4603      	mov	r3, r0
 8000d44:	71fb      	strb	r3, [r7, #7]
  if ((int32_t)(IRQn) >= 0)
 8000d46:	f997 3007 	ldrsb.w	r3, [r7, #7]
 8000d4a:	2b00      	cmp	r3, #0
 8000d4c:	db0b      	blt.n	8000d66 <__NVIC_EnableIRQ+0x2a>
  {
    NVIC->ISER[(((uint32_t)IRQn) >> 5UL)] = (uint32_t)(1UL << (((uint32_t)IRQn) & 0x1FUL));
 8000d4e:	79fb      	ldrb	r3, [r7, #7]
 8000d50:	f003 021f 	and.w	r2, r3, #31
 8000d54:	4906      	ldr	r1, [pc, #24]	@ (8000d70 <__NVIC_EnableIRQ+0x34>)
 8000d56:	f997 3007 	ldrsb.w	r3, [r7, #7]
 8000d5a:	095b      	lsrs	r3, r3, #5
 8000d5c:	2001      	movs	r0, #1
 8000d5e:	fa00 f202 	lsl.w	r2, r0, r2
 8000d62:	f841 2023 	str.w	r2, [r1, r3, lsl #2]
  }
}
 8000d66:	bf00      	nop
 8000d68:	370c      	adds	r7, #12
 8000d6a:	46bd      	mov	sp, r7
 8000d6c:	bc80      	pop	{r7}
 8000d6e:	4770      	bx	lr
 8000d70:	e000e100 	.word	0xe000e100

08000d74 <__NVIC_SetPriority>:
  \param [in]      IRQn  Interrupt number.
  \param [in]  priority  Priority to set.
  \note    The priority cannot be set for every processor exception.
 */
__STATIC_INLINE void __NVIC_SetPriority(IRQn_Type IRQn, uint32_t priority)
{
 8000d74:	b480      	push	{r7}
 8000d76:	b083      	sub	sp, #12
 8000d78:	af00      	add	r7, sp, #0
 8000d7a:	4603      	mov	r3, r0
 8000d7c:	6039      	str	r1, [r7, #0]
 8000d7e:	71fb      	strb	r3, [r7, #7]
  if ((int32_t)(IRQn) >= 0)
 8000d80:	f997 3007 	ldrsb.w	r3, [r7, #7]
 8000d84:	2b00      	cmp	r3, #0
 8000d86:	db0a      	blt.n	8000d9e <__NVIC_SetPriority+0x2a>
  {
    NVIC->IP[((uint32_t)IRQn)]               = (uint8_t)((priority << (8U - __NVIC_PRIO_BITS)) & (uint32_t)0xFFUL);
 8000d88:	683b      	ldr	r3, [r7, #0]
 8000d8a:	b2da      	uxtb	r2, r3
 8000d8c:	490c      	ldr	r1, [pc, #48]	@ (8000dc0 <__NVIC_SetPriority+0x4c>)
 8000d8e:	f997 3007 	ldrsb.w	r3, [r7, #7]
 8000d92:	0112      	lsls	r2, r2, #4
 8000d94:	b2d2      	uxtb	r2, r2
 8000d96:	440b      	add	r3, r1
 8000d98:	f883 2300 	strb.w	r2, [r3, #768]	@ 0x300
  }
  else
  {
    SCB->SHP[(((uint32_t)IRQn) & 0xFUL)-4UL] = (uint8_t)((priority << (8U - __NVIC_PRIO_BITS)) & (uint32_t)0xFFUL);
  }
}
 8000d9c:	e00a      	b.n	8000db4 <__NVIC_SetPriority+0x40>
    SCB->SHP[(((uint32_t)IRQn) & 0xFUL)-4UL] = (uint8_t)((priority << (8U - __NVIC_PRIO_BITS)) & (uint32_t)0xFFUL);
 8000d9e:	683b      	ldr	r3, [r7, #0]
 8000da0:	b2da      	uxtb	r2, r3
 8000da2:	4908      	ldr	r1, [pc, #32]	@ (8000dc4 <__NVIC_SetPriority+0x50>)
 8000da4:	79fb      	ldrb	r3, [r7, #7]
 8000da6:	f003 030f 	and.w	r3, r3, #15
 8000daa:	3b04      	subs	r3, #4
 8000dac:	0112      	lsls	r2, r2, #4
 8000dae:	b2d2      	uxtb	r2, r2
 8000db0:	440b      	add	r3, r1
 8000db2:	761a      	strb	r2, [r3, #24]
}
 8000db4:	bf00      	nop
 8000db6:	370c      	adds	r7, #12
 8000db8:	46bd      	mov	sp, r7
 8000dba:	bc80      	pop	{r7}
 8000dbc:	4770      	bx	lr
 8000dbe:	bf00      	nop
 8000dc0:	e000e100 	.word	0xe000e100
 8000dc4:	e000ed00 	.word	0xe000ed00

08000dc8 <NVIC_EncodePriority>:
  \param [in]   PreemptPriority  Preemptive priority value (starting from 0).
  \param [in]       SubPriority  Subpriority value (starting from 0).
  \return                        Encoded priority. Value can be used in the function \ref NVIC_SetPriority().
 */
__STATIC_INLINE uint32_t NVIC_EncodePriority (uint32_t PriorityGroup, uint32_t PreemptPriority, uint32_t SubPriority)
{
 8000dc8:	b480      	push	{r7}
 8000dca:	b089      	sub	sp, #36	@ 0x24
 8000dcc:	af00      	add	r7, sp, #0
 8000dce:	60f8      	str	r0, [r7, #12]
 8000dd0:	60b9      	str	r1, [r7, #8]
 8000dd2:	607a      	str	r2, [r7, #4]
  uint32_t PriorityGroupTmp = (PriorityGroup & (uint32_t)0x07UL);   /* only values 0..7 are used          */
 8000dd4:	68fb      	ldr	r3, [r7, #12]
 8000dd6:	f003 0307 	and.w	r3, r3, #7
 8000dda:	61fb      	str	r3, [r7, #28]
  uint32_t PreemptPriorityBits;
  uint32_t SubPriorityBits;

  PreemptPriorityBits = ((7UL - PriorityGroupTmp) > (uint32_t)(__NVIC_PRIO_BITS)) ? (uint32_t)(__NVIC_PRIO_BITS) : (uint32_t)(7UL - PriorityGroupTmp);
 8000ddc:	69fb      	ldr	r3, [r7, #28]
 8000dde:	f1c3 0307 	rsb	r3, r3, #7
 8000de2:	2b04      	cmp	r3, #4
 8000de4:	bf28      	it	cs
 8000de6:	2304      	movcs	r3, #4
 8000de8:	61bb      	str	r3, [r7, #24]
  SubPriorityBits     = ((PriorityGroupTmp + (uint32_t)(__NVIC_PRIO_BITS)) < (uint32_t)7UL) ? (uint32_t)0UL : (uint32_t)((PriorityGroupTmp - 7UL) + (uint32_t)(__NVIC_PRIO_BITS));
 8000dea:	69fb      	ldr	r3, [r7, #28]
 8000dec:	3304      	adds	r3, #4
 8000dee:	2b06      	cmp	r3, #6
 8000df0:	d902      	bls.n	8000df8 <NVIC_EncodePriority+0x30>
 8000df2:	69fb      	ldr	r3, [r7, #28]
 8000df4:	3b03      	subs	r3, #3
 8000df6:	e000      	b.n	8000dfa <NVIC_EncodePriority+0x32>
 8000df8:	2300      	movs	r3, #0
 8000dfa:	617b      	str	r3, [r7, #20]

  return (
           ((PreemptPriority & (uint32_t)((1UL << (PreemptPriorityBits)) - 1UL)) << SubPriorityBits) |
 8000dfc:	f04f 32ff 	mov.w	r2, #4294967295
 8000e00:	69bb      	ldr	r3, [r7, #24]
 8000e02:	fa02 f303 	lsl.w	r3, r2, r3
 8000e06:	43da      	mvns	r2, r3
 8000e08:	68bb      	ldr	r3, [r7, #8]
 8000e0a:	401a      	ands	r2, r3
 8000e0c:	697b      	ldr	r3, [r7, #20]
 8000e0e:	409a      	lsls	r2, r3
           ((SubPriority     & (uint32_t)((1UL << (SubPriorityBits    )) - 1UL)))
 8000e10:	f04f 31ff 	mov.w	r1, #4294967295
 8000e14:	697b      	ldr	r3, [r7, #20]
 8000e16:	fa01 f303 	lsl.w	r3, r1, r3
 8000e1a:	43d9      	mvns	r1, r3
 8000e1c:	687b      	ldr	r3, [r7, #4]
 8000e1e:	400b      	ands	r3, r1
           ((PreemptPriority & (uint32_t)((1UL << (PreemptPriorityBits)) - 1UL)) << SubPriorityBits) |
 8000e20:	4313      	orrs	r3, r2
         );
}
 8000e22:	4618      	mov	r0, r3
 8000e24:	3724      	adds	r7, #36	@ 0x24
 8000e26:	46bd      	mov	sp, r7
 8000e28:	bc80      	pop	{r7}
 8000e2a:	4770      	bx	lr

08000e2c <SysTick_Config>:
  \note    When the variable <b>__Vendor_SysTickConfig</b> is set to 1, then the
           function <b>SysTick_Config</b> is not included. In this case, the file <b><i>device</i>.h</b>
           must contain a vendor-specific implementation of this function.
 */
__STATIC_INLINE uint32_t SysTick_Config(uint32_t ticks)
{
 8000e2c:	b580      	push	{r7, lr}
 8000e2e:	b082      	sub	sp, #8
 8000e30:	af00      	add	r7, sp, #0
 8000e32:	6078      	str	r0, [r7, #4]
  if ((ticks - 1UL) > SysTick_LOAD_RELOAD_Msk)
 8000e34:	687b      	ldr	r3, [r7, #4]
 8000e36:	3b01      	subs	r3, #1
 8000e38:	f1b3 7f80 	cmp.w	r3, #16777216	@ 0x1000000
 8000e3c:	d301      	bcc.n	8000e42 <SysTick_Config+0x16>
  {
    return (1UL);                                                   /* Reload value impossible */
 8000e3e:	2301      	movs	r3, #1
 8000e40:	e00f      	b.n	8000e62 <SysTick_Config+0x36>
  }

  SysTick->LOAD  = (uint32_t)(ticks - 1UL);                         /* set reload register */
 8000e42:	4a0a      	ldr	r2, [pc, #40]	@ (8000e6c <SysTick_Config+0x40>)
 8000e44:	687b      	ldr	r3, [r7, #4]
 8000e46:	3b01      	subs	r3, #1
 8000e48:	6053      	str	r3, [r2, #4]
  NVIC_SetPriority (SysTick_IRQn, (1UL << __NVIC_PRIO_BITS) - 1UL); /* set Priority for Systick Interrupt */
 8000e4a:	210f      	movs	r1, #15
 8000e4c:	f04f 30ff 	mov.w	r0, #4294967295
 8000e50:	f7ff ff90 	bl	8000d74 <__NVIC_SetPriority>
  SysTick->VAL   = 0UL;                                             /* Load the SysTick Counter Value */
 8000e54:	4b05      	ldr	r3, [pc, #20]	@ (8000e6c <SysTick_Config+0x40>)
 8000e56:	2200      	movs	r2, #0
 8000e58:	609a      	str	r2, [r3, #8]
  SysTick->CTRL  = SysTick_CTRL_CLKSOURCE_Msk |
 8000e5a:	4b04      	ldr	r3, [pc, #16]	@ (8000e6c <SysTick_Config+0x40>)
 8000e5c:	2207      	movs	r2, #7
 8000e5e:	601a      	str	r2, [r3, #0]
                   SysTick_CTRL_TICKINT_Msk   |
                   SysTick_CTRL_ENABLE_Msk;                         /* Enable SysTick IRQ and SysTick Timer */
  return (0UL);                                                     /* Function successful */
 8000e60:	2300      	movs	r3, #0
}
 8000e62:	4618      	mov	r0, r3
 8000e64:	3708      	adds	r7, #8
 8000e66:	46bd      	mov	sp, r7
 8000e68:	bd80      	pop	{r7, pc}
 8000e6a:	bf00      	nop
 8000e6c:	e000e010 	.word	0xe000e010

08000e70 <HAL_NVIC_SetPriorityGrouping>:
  * @note   When the NVIC_PriorityGroup_0 is selected, IRQ preemption is no more possible. 
  *         The pending IRQ priority will be managed only by the subpriority. 
  * @retval None
  */
void HAL_NVIC_SetPriorityGrouping(uint32_t PriorityGroup)
{
 8000e70:	b580      	push	{r7, lr}
 8000e72:	b082      	sub	sp, #8
 8000e74:	af00      	add	r7, sp, #0
 8000e76:	6078      	str	r0, [r7, #4]
  /* Check the parameters */
  assert_param(IS_NVIC_PRIORITY_GROUP(PriorityGroup));
  
  /* Set the PRIGROUP[10:8] bits according to the PriorityGroup parameter value */
  NVIC_SetPriorityGrouping(PriorityGroup);
 8000e78:	6878      	ldr	r0, [r7, #4]
 8000e7a:	f7ff ff2d 	bl	8000cd8 <__NVIC_SetPriorityGrouping>
}
 8000e7e:	bf00      	nop
 8000e80:	3708      	adds	r7, #8
 8000e82:	46bd      	mov	sp, r7
 8000e84:	bd80      	pop	{r7, pc}

08000e86 <HAL_NVIC_SetPriority>:
  *         This parameter can be a value between 0 and 15
  *         A lower priority value indicates a higher priority.          
  * @retval None
  */
void HAL_NVIC_SetPriority(IRQn_Type IRQn, uint32_t PreemptPriority, uint32_t SubPriority)
{ 
 8000e86:	b580      	push	{r7, lr}
 8000e88:	b086      	sub	sp, #24
 8000e8a:	af00      	add	r7, sp, #0
 8000e8c:	4603      	mov	r3, r0
 8000e8e:	60b9      	str	r1, [r7, #8]
 8000e90:	607a      	str	r2, [r7, #4]
 8000e92:	73fb      	strb	r3, [r7, #15]
  uint32_t prioritygroup = 0x00U;
 8000e94:	2300      	movs	r3, #0
 8000e96:	617b      	str	r3, [r7, #20]
  
  /* Check the parameters */
  assert_param(IS_NVIC_SUB_PRIORITY(SubPriority));
  assert_param(IS_NVIC_PREEMPTION_PRIORITY(PreemptPriority));
  
  prioritygroup = NVIC_GetPriorityGrouping();
 8000e98:	f7ff ff42 	bl	8000d20 <__NVIC_GetPriorityGrouping>
 8000e9c:	6178      	str	r0, [r7, #20]
  
  NVIC_SetPriority(IRQn, NVIC_EncodePriority(prioritygroup, PreemptPriority, SubPriority));
 8000e9e:	687a      	ldr	r2, [r7, #4]
 8000ea0:	68b9      	ldr	r1, [r7, #8]
 8000ea2:	6978      	ldr	r0, [r7, #20]
 8000ea4:	f7ff ff90 	bl	8000dc8 <NVIC_EncodePriority>
 8000ea8:	4602      	mov	r2, r0
 8000eaa:	f997 300f 	ldrsb.w	r3, [r7, #15]
 8000eae:	4611      	mov	r1, r2
 8000eb0:	4618      	mov	r0, r3
 8000eb2:	f7ff ff5f 	bl	8000d74 <__NVIC_SetPriority>
}
 8000eb6:	bf00      	nop
 8000eb8:	3718      	adds	r7, #24
 8000eba:	46bd      	mov	sp, r7
 8000ebc:	bd80      	pop	{r7, pc}

08000ebe <HAL_NVIC_EnableIRQ>:
  *         This parameter can be an enumerator of IRQn_Type enumeration
  *         (For the complete STM32 Devices IRQ Channels list, please refer to the appropriate CMSIS device file (stm32f10xxx.h))
  * @retval None
  */
void HAL_NVIC_EnableIRQ(IRQn_Type IRQn)
{
 8000ebe:	b580      	push	{r7, lr}
 8000ec0:	b082      	sub	sp, #8
 8000ec2:	af00      	add	r7, sp, #0
 8000ec4:	4603      	mov	r3, r0
 8000ec6:	71fb      	strb	r3, [r7, #7]
  /* Check the parameters */
  assert_param(IS_NVIC_DEVICE_IRQ(IRQn));

  /* Enable interrupt */
  NVIC_EnableIRQ(IRQn);
 8000ec8:	f997 3007 	ldrsb.w	r3, [r7, #7]
 8000ecc:	4618      	mov	r0, r3
 8000ece:	f7ff ff35 	bl	8000d3c <__NVIC_EnableIRQ>
}
 8000ed2:	bf00      	nop
 8000ed4:	3708      	adds	r7, #8
 8000ed6:	46bd      	mov	sp, r7
 8000ed8:	bd80      	pop	{r7, pc}

08000eda <HAL_SYSTICK_Config>:
  * @param  TicksNumb: Specifies the ticks Number of ticks between two interrupts.
  * @retval status:  - 0  Function succeeded.
  *                  - 1  Function failed.
  */
uint32_t HAL_SYSTICK_Config(uint32_t TicksNumb)
{
 8000eda:	b580      	push	{r7, lr}
 8000edc:	b082      	sub	sp, #8
 8000ede:	af00      	add	r7, sp, #0
 8000ee0:	6078      	str	r0, [r7, #4]
   return SysTick_Config(TicksNumb);
 8000ee2:	6878      	ldr	r0, [r7, #4]
 8000ee4:	f7ff ffa2 	bl	8000e2c <SysTick_Config>
 8000ee8:	4603      	mov	r3, r0
}
 8000eea:	4618      	mov	r0, r3
 8000eec:	3708      	adds	r7, #8
 8000eee:	46bd      	mov	sp, r7
 8000ef0:	bd80      	pop	{r7, pc}

08000ef2 <HAL_DMA_Abort>:
  * @param  hdma: pointer to a DMA_HandleTypeDef structure that contains
  *               the configuration information for the specified DMA Channel.
  * @retval HAL status
  */
HAL_StatusTypeDef HAL_DMA_Abort(DMA_HandleTypeDef *hdma)
{
 8000ef2:	b480      	push	{r7}
 8000ef4:	b085      	sub	sp, #20
 8000ef6:	af00      	add	r7, sp, #0
 8000ef8:	6078      	str	r0, [r7, #4]
  HAL_StatusTypeDef status = HAL_OK;
 8000efa:	2300      	movs	r3, #0
 8000efc:	73fb      	strb	r3, [r7, #15]
  
  if(hdma->State != HAL_DMA_STATE_BUSY)
 8000efe:	687b      	ldr	r3, [r7, #4]
 8000f00:	f893 3021 	ldrb.w	r3, [r3, #33]	@ 0x21
 8000f04:	b2db      	uxtb	r3, r3
 8000f06:	2b02      	cmp	r3, #2
 8000f08:	d008      	beq.n	8000f1c <HAL_DMA_Abort+0x2a>
  {
    /* no transfer ongoing */
    hdma->ErrorCode = HAL_DMA_ERROR_NO_XFER;
 8000f0a:	687b      	ldr	r3, [r7, #4]
 8000f0c:	2204      	movs	r2, #4
 8000f0e:	639a      	str	r2, [r3, #56]	@ 0x38
    
    /* Process Unlocked */
    __HAL_UNLOCK(hdma);
 8000f10:	687b      	ldr	r3, [r7, #4]
 8000f12:	2200      	movs	r2, #0
 8000f14:	f883 2020 	strb.w	r2, [r3, #32]
    
    return HAL_ERROR;
 8000f18:	2301      	movs	r3, #1
 8000f1a:	e020      	b.n	8000f5e <HAL_DMA_Abort+0x6c>
  }
  else

  {
    /* Disable DMA IT */
    __HAL_DMA_DISABLE_IT(hdma, (DMA_IT_TC | DMA_IT_HT | DMA_IT_TE));
 8000f1c:	687b      	ldr	r3, [r7, #4]
 8000f1e:	681b      	ldr	r3, [r3, #0]
 8000f20:	681a      	ldr	r2, [r3, #0]
 8000f22:	687b      	ldr	r3, [r7, #4]
 8000f24:	681b      	ldr	r3, [r3, #0]
 8000f26:	f022 020e 	bic.w	r2, r2, #14
 8000f2a:	601a      	str	r2, [r3, #0]
      
    /* Disable the channel */
    __HAL_DMA_DISABLE(hdma);
 8000f2c:	687b      	ldr	r3, [r7, #4]
 8000f2e:	681b      	ldr	r3, [r3, #0]
 8000f30:	681a      	ldr	r2, [r3, #0]
 8000f32:	687b      	ldr	r3, [r7, #4]
 8000f34:	681b      	ldr	r3, [r3, #0]
 8000f36:	f022 0201 	bic.w	r2, r2, #1
 8000f3a:	601a      	str	r2, [r3, #0]
      
    /* Clear all flags */
    hdma->DmaBaseAddress->IFCR = (DMA_ISR_GIF1 << hdma->ChannelIndex);
 8000f3c:	687b      	ldr	r3, [r7, #4]
 8000f3e:	6c1a      	ldr	r2, [r3, #64]	@ 0x40
 8000f40:	687b      	ldr	r3, [r7, #4]
 8000f42:	6bdb      	ldr	r3, [r3, #60]	@ 0x3c
 8000f44:	2101      	movs	r1, #1
 8000f46:	fa01 f202 	lsl.w	r2, r1, r2
 8000f4a:	605a      	str	r2, [r3, #4]
  }
  /* Change the DMA state */
  hdma->State = HAL_DMA_STATE_READY;
 8000f4c:	687b      	ldr	r3, [r7, #4]
 8000f4e:	2201      	movs	r2, #1
 8000f50:	f883 2021 	strb.w	r2, [r3, #33]	@ 0x21

  /* Process Unlocked */
  __HAL_UNLOCK(hdma);      
 8000f54:	687b      	ldr	r3, [r7, #4]
 8000f56:	2200      	movs	r2, #0
 8000f58:	f883 2020 	strb.w	r2, [r3, #32]
  
  return status; 
 8000f5c:	7bfb      	ldrb	r3, [r7, #15]
}
 8000f5e:	4618      	mov	r0, r3
 8000f60:	3714      	adds	r7, #20
 8000f62:	46bd      	mov	sp, r7
 8000f64:	bc80      	pop	{r7}
 8000f66:	4770      	bx	lr

08000f68 <HAL_DMA_Abort_IT>:
  * @param  hdma  : pointer to a DMA_HandleTypeDef structure that contains
  *                 the configuration information for the specified DMA Channel.
  * @retval HAL status
  */
HAL_StatusTypeDef HAL_DMA_Abort_IT(DMA_HandleTypeDef *hdma)
{  
 8000f68:	b580      	push	{r7, lr}
 8000f6a:	b084      	sub	sp, #16
 8000f6c:	af00      	add	r7, sp, #0
 8000f6e:	6078      	str	r0, [r7, #4]
  HAL_StatusTypeDef status = HAL_OK;
 8000f70:	2300      	movs	r3, #0
 8000f72:	73fb      	strb	r3, [r7, #15]
  
  if(HAL_DMA_STATE_BUSY != hdma->State)
 8000f74:	687b      	ldr	r3, [r7, #4]
 8000f76:	f893 3021 	ldrb.w	r3, [r3, #33]	@ 0x21
 8000f7a:	b2db      	uxtb	r3, r3
 8000f7c:	2b02      	cmp	r3, #2
 8000f7e:	d005      	beq.n	8000f8c <HAL_DMA_Abort_IT+0x24>
  {
    /* no transfer ongoing */
    hdma->ErrorCode = HAL_DMA_ERROR_NO_XFER;
 8000f80:	687b      	ldr	r3, [r7, #4]
 8000f82:	2204      	movs	r2, #4
 8000f84:	639a      	str	r2, [r3, #56]	@ 0x38
        
    status = HAL_ERROR;
 8000f86:	2301      	movs	r3, #1
 8000f88:	73fb      	strb	r3, [r7, #15]
 8000f8a:	e051      	b.n	8001030 <HAL_DMA_Abort_IT+0xc8>
  }
  else
  { 
    /* Disable DMA IT */
    __HAL_DMA_DISABLE_IT(hdma, (DMA_IT_TC | DMA_IT_HT | DMA_IT_TE));
 8000f8c:	687b      	ldr	r3, [r7, #4]
 8000f8e:	681b      	ldr	r3, [r3, #0]
 8000f90:	681a      	ldr	r2, [r3, #0]
 8000f92:	687b      	ldr	r3, [r7, #4]
 8000f94:	681b      	ldr	r3, [r3, #0]
 8000f96:	f022 020e 	bic.w	r2, r2, #14
 8000f9a:	601a      	str	r2, [r3, #0]

    /* Disable the channel */
    __HAL_DMA_DISABLE(hdma);
 8000f9c:	687b      	ldr	r3, [r7, #4]
 8000f9e:	681b      	ldr	r3, [r3, #0]
 8000fa0:	681a      	ldr	r2, [r3, #0]
 8000fa2:	687b      	ldr	r3, [r7, #4]
 8000fa4:	681b      	ldr	r3, [r3, #0]
 8000fa6:	f022 0201 	bic.w	r2, r2, #1
 8000faa:	601a      	str	r2, [r3, #0]

    /* Clear all flags */
    __HAL_DMA_CLEAR_FLAG(hdma, __HAL_DMA_GET_GI_FLAG_INDEX(hdma));
 8000fac:	687b      	ldr	r3, [r7, #4]
 8000fae:	681b      	ldr	r3, [r3, #0]
 8000fb0:	4a22      	ldr	r2, [pc, #136]	@ (800103c <HAL_DMA_Abort_IT+0xd4>)
 8000fb2:	4293      	cmp	r3, r2
 8000fb4:	d029      	beq.n	800100a <HAL_DMA_Abort_IT+0xa2>
 8000fb6:	687b      	ldr	r3, [r7, #4]
 8000fb8:	681b      	ldr	r3, [r3, #0]
 8000fba:	4a21      	ldr	r2, [pc, #132]	@ (8001040 <HAL_DMA_Abort_IT+0xd8>)
 8000fbc:	4293      	cmp	r3, r2
 8000fbe:	d022      	beq.n	8001006 <HAL_DMA_Abort_IT+0x9e>
 8000fc0:	687b      	ldr	r3, [r7, #4]
 8000fc2:	681b      	ldr	r3, [r3, #0]
 8000fc4:	4a1f      	ldr	r2, [pc, #124]	@ (8001044 <HAL_DMA_Abort_IT+0xdc>)
 8000fc6:	4293      	cmp	r3, r2
 8000fc8:	d01a      	beq.n	8001000 <HAL_DMA_Abort_IT+0x98>
 8000fca:	687b      	ldr	r3, [r7, #4]
 8000fcc:	681b      	ldr	r3, [r3, #0]
 8000fce:	4a1e      	ldr	r2, [pc, #120]	@ (8001048 <HAL_DMA_Abort_IT+0xe0>)
 8000fd0:	4293      	cmp	r3, r2
 8000fd2:	d012      	beq.n	8000ffa <HAL_DMA_Abort_IT+0x92>
 8000fd4:	687b      	ldr	r3, [r7, #4]
 8000fd6:	681b      	ldr	r3, [r3, #0]
 8000fd8:	4a1c      	ldr	r2, [pc, #112]	@ (800104c <HAL_DMA_Abort_IT+0xe4>)
 8000fda:	4293      	cmp	r3, r2
 8000fdc:	d00a      	beq.n	8000ff4 <HAL_DMA_Abort_IT+0x8c>
 8000fde:	687b      	ldr	r3, [r7, #4]
 8000fe0:	681b      	ldr	r3, [r3, #0]
 8000fe2:	4a1b      	ldr	r2, [pc, #108]	@ (8001050 <HAL_DMA_Abort_IT+0xe8>)
 8000fe4:	4293      	cmp	r3, r2
 8000fe6:	d102      	bne.n	8000fee <HAL_DMA_Abort_IT+0x86>
 8000fe8:	f44f 1380 	mov.w	r3, #1048576	@ 0x100000
 8000fec:	e00e      	b.n	800100c <HAL_DMA_Abort_IT+0xa4>
 8000fee:	f04f 7380 	mov.w	r3, #16777216	@ 0x1000000
 8000ff2:	e00b      	b.n	800100c <HAL_DMA_Abort_IT+0xa4>
 8000ff4:	f44f 3380 	mov.w	r3, #65536	@ 0x10000
 8000ff8:	e008      	b.n	800100c <HAL_DMA_Abort_IT+0xa4>
 8000ffa:	f44f 5380 	mov.w	r3, #4096	@ 0x1000
 8000ffe:	e005      	b.n	800100c <HAL_DMA_Abort_IT+0xa4>
 8001000:	f44f 7380 	mov.w	r3, #256	@ 0x100
 8001004:	e002      	b.n	800100c <HAL_DMA_Abort_IT+0xa4>
 8001006:	2310      	movs	r3, #16
 8001008:	e000      	b.n	800100c <HAL_DMA_Abort_IT+0xa4>
 800100a:	2301      	movs	r3, #1
 800100c:	4a11      	ldr	r2, [pc, #68]	@ (8001054 <HAL_DMA_Abort_IT+0xec>)
 800100e:	6053      	str	r3, [r2, #4]

    /* Change the DMA state */
    hdma->State = HAL_DMA_STATE_READY;
 8001010:	687b      	ldr	r3, [r7, #4]
 8001012:	2201      	movs	r2, #1
 8001014:	f883 2021 	strb.w	r2, [r3, #33]	@ 0x21

    /* Process Unlocked */
    __HAL_UNLOCK(hdma);
 8001018:	687b      	ldr	r3, [r7, #4]
 800101a:	2200      	movs	r2, #0
 800101c:	f883 2020 	strb.w	r2, [r3, #32]

    /* Call User Abort callback */
    if(hdma->XferAbortCallback != NULL)
 8001020:	687b      	ldr	r3, [r7, #4]
 8001022:	6b5b      	ldr	r3, [r3, #52]	@ 0x34
 8001024:	2b00      	cmp	r3, #0
 8001026:	d003      	beq.n	8001030 <HAL_DMA_Abort_IT+0xc8>
    {
      hdma->XferAbortCallback(hdma);
 8001028:	687b      	ldr	r3, [r7, #4]
 800102a:	6b5b      	ldr	r3, [r3, #52]	@ 0x34
 800102c:	6878      	ldr	r0, [r7, #4]
 800102e:	4798      	blx	r3
    } 
  }
  return status;
 8001030:	7bfb      	ldrb	r3, [r7, #15]
}
 8001032:	4618      	mov	r0, r3
 8001034:	3710      	adds	r7, #16
 8001036:	46bd      	mov	sp, r7
 8001038:	bd80      	pop	{r7, pc}
 800103a:	bf00      	nop
 800103c:	40020008 	.word	0x40020008
 8001040:	4002001c 	.word	0x4002001c
 8001044:	40020030 	.word	0x40020030
 8001048:	40020044 	.word	0x40020044
 800104c:	40020058 	.word	0x40020058
 8001050:	4002006c 	.word	0x4002006c
 8001054:	40020000 	.word	0x40020000

08001058 <HAL_GPIO_Init>:
  * @param  GPIO_Init: pointer to a GPIO_InitTypeDef structure that contains
  *         the configuration information for the specified GPIO peripheral.
  * @retval None
  */
void HAL_GPIO_Init(GPIO_TypeDef  *GPIOx, GPIO_InitTypeDef *GPIO_Init)
{
 8001058:	b480      	push	{r7}
 800105a:	b08b      	sub	sp, #44	@ 0x2c
 800105c:	af00      	add	r7, sp, #0
 800105e:	6078      	str	r0, [r7, #4]
 8001060:	6039      	str	r1, [r7, #0]
  uint32_t position = 0x00u;
 8001062:	2300      	movs	r3, #0
 8001064:	627b      	str	r3, [r7, #36]	@ 0x24
  uint32_t ioposition;
  uint32_t iocurrent;
  uint32_t temp;
  uint32_t config = 0x00u;
 8001066:	2300      	movs	r3, #0
 8001068:	623b      	str	r3, [r7, #32]
  assert_param(IS_GPIO_ALL_INSTANCE(GPIOx));
  assert_param(IS_GPIO_PIN(GPIO_Init->Pin));
  assert_param(IS_GPIO_MODE(GPIO_Init->Mode));

  /* Configure the port pins */
  while (((GPIO_Init->Pin) >> position) != 0x00u)
 800106a:	e169      	b.n	8001340 <HAL_GPIO_Init+0x2e8>
  {
    /* Get the IO position */
    ioposition = (0x01uL << position);
 800106c:	2201      	movs	r2, #1
 800106e:	6a7b      	ldr	r3, [r7, #36]	@ 0x24
 8001070:	fa02 f303 	lsl.w	r3, r2, r3
 8001074:	61fb      	str	r3, [r7, #28]

    /* Get the current IO position */
    iocurrent = (uint32_t)(GPIO_Init->Pin) & ioposition;
 8001076:	683b      	ldr	r3, [r7, #0]
 8001078:	681b      	ldr	r3, [r3, #0]
 800107a:	69fa      	ldr	r2, [r7, #28]
 800107c:	4013      	ands	r3, r2
 800107e:	61bb      	str	r3, [r7, #24]

    if (iocurrent == ioposition)
 8001080:	69ba      	ldr	r2, [r7, #24]
 8001082:	69fb      	ldr	r3, [r7, #28]
 8001084:	429a      	cmp	r2, r3
 8001086:	f040 8158 	bne.w	800133a <HAL_GPIO_Init+0x2e2>
    {
      /* Check the Alternate function parameters */
      assert_param(IS_GPIO_AF_INSTANCE(GPIOx));

      /* Based on the required mode, filling config variable with MODEy[1:0] and CNFy[3:2] corresponding bits */
      switch (GPIO_Init->Mode)
 800108a:	683b      	ldr	r3, [r7, #0]
 800108c:	685b      	ldr	r3, [r3, #4]
 800108e:	4a9a      	ldr	r2, [pc, #616]	@ (80012f8 <HAL_GPIO_Init+0x2a0>)
 8001090:	4293      	cmp	r3, r2
 8001092:	d05e      	beq.n	8001152 <HAL_GPIO_Init+0xfa>
 8001094:	4a98      	ldr	r2, [pc, #608]	@ (80012f8 <HAL_GPIO_Init+0x2a0>)
 8001096:	4293      	cmp	r3, r2
 8001098:	d875      	bhi.n	8001186 <HAL_GPIO_Init+0x12e>
 800109a:	4a98      	ldr	r2, [pc, #608]	@ (80012fc <HAL_GPIO_Init+0x2a4>)
 800109c:	4293      	cmp	r3, r2
 800109e:	d058      	beq.n	8001152 <HAL_GPIO_Init+0xfa>
 80010a0:	4a96      	ldr	r2, [pc, #600]	@ (80012fc <HAL_GPIO_Init+0x2a4>)
 80010a2:	4293      	cmp	r3, r2
 80010a4:	d86f      	bhi.n	8001186 <HAL_GPIO_Init+0x12e>
 80010a6:	4a96      	ldr	r2, [pc, #600]	@ (8001300 <HAL_GPIO_Init+0x2a8>)
 80010a8:	4293      	cmp	r3, r2
 80010aa:	d052      	beq.n	8001152 <HAL_GPIO_Init+0xfa>
 80010ac:	4a94      	ldr	r2, [pc, #592]	@ (8001300 <HAL_GPIO_Init+0x2a8>)
 80010ae:	4293      	cmp	r3, r2
 80010b0:	d869      	bhi.n	8001186 <HAL_GPIO_Init+0x12e>
 80010b2:	4a94      	ldr	r2, [pc, #592]	@ (8001304 <HAL_GPIO_Init+0x2ac>)
 80010b4:	4293      	cmp	r3, r2
 80010b6:	d04c      	beq.n	8001152 <HAL_GPIO_Init+0xfa>
 80010b8:	4a92      	ldr	r2, [pc, #584]	@ (8001304 <HAL_GPIO_Init+0x2ac>)
 80010ba:	4293      	cmp	r3, r2
 80010bc:	d863      	bhi.n	8001186 <HAL_GPIO_Init+0x12e>
 80010be:	4a92      	ldr	r2, [pc, #584]	@ (8001308 <HAL_GPIO_Init+0x2b0>)
 80010c0:	4293      	cmp	r3, r2
 80010c2:	d046      	beq.n	8001152 <HAL_GPIO_Init+0xfa>
 80010c4:	4a90      	ldr	r2, [pc, #576]	@ (8001308 <HAL_GPIO_Init+0x2b0>)
 80010c6:	4293      	cmp	r3, r2
 80010c8:	d85d      	bhi.n	8001186 <HAL_GPIO_Init+0x12e>
 80010ca:	2b12      	cmp	r3, #18
 80010cc:	d82a      	bhi.n	8001124 <HAL_GPIO_Init+0xcc>
 80010ce:	2b12      	cmp	r3, #18
 80010d0:	d859      	bhi.n	8001186 <HAL_GPIO_Init+0x12e>
 80010d2:	a201      	add	r2, pc, #4	@ (adr r2, 80010d8 <HAL_GPIO_Init+0x80>)
 80010d4:	f852 f023 	ldr.w	pc, [r2, r3, lsl #2]
 80010d8:	08001153 	.word	0x08001153
 80010dc:	0800112d 	.word	0x0800112d
 80010e0:	0800113f 	.word	0x0800113f
 80010e4:	08001181 	.word	0x08001181
 80010e8:	08001187 	.word	0x08001187
 80010ec:	08001187 	.word	0x08001187
 80010f0:	08001187 	.word	0x08001187
 80010f4:	08001187 	.word	0x08001187
 80010f8:	08001187 	.word	0x08001187
 80010fc:	08001187 	.word	0x08001187
 8001100:	08001187 	.word	0x08001187
 8001104:	08001187 	.word	0x08001187
 8001108:	08001187 	.word	0x08001187
 800110c:	08001187 	.word	0x08001187
 8001110:	08001187 	.word	0x08001187
 8001114:	08001187 	.word	0x08001187
 8001118:	08001187 	.word	0x08001187
 800111c:	08001135 	.word	0x08001135
 8001120:	08001149 	.word	0x08001149
 8001124:	4a79      	ldr	r2, [pc, #484]	@ (800130c <HAL_GPIO_Init+0x2b4>)
 8001126:	4293      	cmp	r3, r2
 8001128:	d013      	beq.n	8001152 <HAL_GPIO_Init+0xfa>
          config = GPIO_CR_MODE_INPUT + GPIO_CR_CNF_ANALOG;
          break;

        /* Parameters are checked with assert_param */
        default:
          break;
 800112a:	e02c      	b.n	8001186 <HAL_GPIO_Init+0x12e>
          config = GPIO_Init->Speed + GPIO_CR_CNF_GP_OUTPUT_PP;
 800112c:	683b      	ldr	r3, [r7, #0]
 800112e:	68db      	ldr	r3, [r3, #12]
 8001130:	623b      	str	r3, [r7, #32]
          break;
 8001132:	e029      	b.n	8001188 <HAL_GPIO_Init+0x130>
          config = GPIO_Init->Speed + GPIO_CR_CNF_GP_OUTPUT_OD;
 8001134:	683b      	ldr	r3, [r7, #0]
 8001136:	68db      	ldr	r3, [r3, #12]
 8001138:	3304      	adds	r3, #4
 800113a:	623b      	str	r3, [r7, #32]
          break;
 800113c:	e024      	b.n	8001188 <HAL_GPIO_Init+0x130>
          config = GPIO_Init->Speed + GPIO_CR_CNF_AF_OUTPUT_PP;
 800113e:	683b      	ldr	r3, [r7, #0]
 8001140:	68db      	ldr	r3, [r3, #12]
 8001142:	3308      	adds	r3, #8
 8001144:	623b      	str	r3, [r7, #32]
          break;
 8001146:	e01f      	b.n	8001188 <HAL_GPIO_Init+0x130>
          config = GPIO_Init->Speed + GPIO_CR_CNF_AF_OUTPUT_OD;
 8001148:	683b      	ldr	r3, [r7, #0]
 800114a:	68db      	ldr	r3, [r3, #12]
 800114c:	330c      	adds	r3, #12
 800114e:	623b      	str	r3, [r7, #32]
          break;
 8001150:	e01a      	b.n	8001188 <HAL_GPIO_Init+0x130>
          if (GPIO_Init->Pull == GPIO_NOPULL)
 8001152:	683b      	ldr	r3, [r7, #0]
 8001154:	689b      	ldr	r3, [r3, #8]
 8001156:	2b00      	cmp	r3, #0
 8001158:	d102      	bne.n	8001160 <HAL_GPIO_Init+0x108>
            config = GPIO_CR_MODE_INPUT + GPIO_CR_CNF_INPUT_FLOATING;
 800115a:	2304      	movs	r3, #4
 800115c:	623b      	str	r3, [r7, #32]
          break;
 800115e:	e013      	b.n	8001188 <HAL_GPIO_Init+0x130>
          else if (GPIO_Init->Pull == GPIO_PULLUP)
 8001160:	683b      	ldr	r3, [r7, #0]
 8001162:	689b      	ldr	r3, [r3, #8]
 8001164:	2b01      	cmp	r3, #1
 8001166:	d105      	bne.n	8001174 <HAL_GPIO_Init+0x11c>
            config = GPIO_CR_MODE_INPUT + GPIO_CR_CNF_INPUT_PU_PD;
 8001168:	2308      	movs	r3, #8
 800116a:	623b      	str	r3, [r7, #32]
            GPIOx->BSRR = ioposition;
 800116c:	687b      	ldr	r3, [r7, #4]
 800116e:	69fa      	ldr	r2, [r7, #28]
 8001170:	611a      	str	r2, [r3, #16]
          break;
 8001172:	e009      	b.n	8001188 <HAL_GPIO_Init+0x130>
            config = GPIO_CR_MODE_INPUT + GPIO_CR_CNF_INPUT_PU_PD;
 8001174:	2308      	movs	r3, #8
 8001176:	623b      	str	r3, [r7, #32]
            GPIOx->BRR = ioposition;
 8001178:	687b      	ldr	r3, [r7, #4]
 800117a:	69fa      	ldr	r2, [r7, #28]
 800117c:	615a      	str	r2, [r3, #20]
          break;
 800117e:	e003      	b.n	8001188 <HAL_GPIO_Init+0x130>
          config = GPIO_CR_MODE_INPUT + GPIO_CR_CNF_ANALOG;
 8001180:	2300      	movs	r3, #0
 8001182:	623b      	str	r3, [r7, #32]
          break;
 8001184:	e000      	b.n	8001188 <HAL_GPIO_Init+0x130>
          break;
 8001186:	bf00      	nop
      }

      /* Check if the current bit belongs to first half or last half of the pin count number
       in order to address CRH or CRL register*/
      configregister = (iocurrent < GPIO_PIN_8) ? &GPIOx->CRL     : &GPIOx->CRH;
 8001188:	69bb      	ldr	r3, [r7, #24]
 800118a:	2bff      	cmp	r3, #255	@ 0xff
 800118c:	d801      	bhi.n	8001192 <HAL_GPIO_Init+0x13a>
 800118e:	687b      	ldr	r3, [r7, #4]
 8001190:	e001      	b.n	8001196 <HAL_GPIO_Init+0x13e>
 8001192:	687b      	ldr	r3, [r7, #4]
 8001194:	3304      	adds	r3, #4
 8001196:	617b      	str	r3, [r7, #20]
      registeroffset = (iocurrent < GPIO_PIN_8) ? (position << 2u) : ((position - 8u) << 2u);
 8001198:	69bb      	ldr	r3, [r7, #24]
 800119a:	2bff      	cmp	r3, #255	@ 0xff
 800119c:	d802      	bhi.n	80011a4 <HAL_GPIO_Init+0x14c>
 800119e:	6a7b      	ldr	r3, [r7, #36]	@ 0x24
 80011a0:	009b      	lsls	r3, r3, #2
 80011a2:	e002      	b.n	80011aa <HAL_GPIO_Init+0x152>
 80011a4:	6a7b      	ldr	r3, [r7, #36]	@ 0x24
 80011a6:	3b08      	subs	r3, #8
 80011a8:	009b      	lsls	r3, r3, #2
 80011aa:	613b      	str	r3, [r7, #16]

      /* Apply the new configuration of the pin to the register */
      MODIFY_REG((*configregister), ((GPIO_CRL_MODE0 | GPIO_CRL_CNF0) << registeroffset), (config << registeroffset));
 80011ac:	697b      	ldr	r3, [r7, #20]
 80011ae:	681a      	ldr	r2, [r3, #0]
 80011b0:	210f      	movs	r1, #15
 80011b2:	693b      	ldr	r3, [r7, #16]
 80011b4:	fa01 f303 	lsl.w	r3, r1, r3
 80011b8:	43db      	mvns	r3, r3
 80011ba:	401a      	ands	r2, r3
 80011bc:	6a39      	ldr	r1, [r7, #32]
 80011be:	693b      	ldr	r3, [r7, #16]
 80011c0:	fa01 f303 	lsl.w	r3, r1, r3
 80011c4:	431a      	orrs	r2, r3
 80011c6:	697b      	ldr	r3, [r7, #20]
 80011c8:	601a      	str	r2, [r3, #0]

      /*--------------------- EXTI Mode Configuration ------------------------*/
      /* Configure the External Interrupt or event for the current IO */
      if ((GPIO_Init->Mode & EXTI_MODE) == EXTI_MODE)
 80011ca:	683b      	ldr	r3, [r7, #0]
 80011cc:	685b      	ldr	r3, [r3, #4]
 80011ce:	f003 5380 	and.w	r3, r3, #268435456	@ 0x10000000
 80011d2:	2b00      	cmp	r3, #0
 80011d4:	f000 80b1 	beq.w	800133a <HAL_GPIO_Init+0x2e2>
      {
        /* Enable AFIO Clock */
        __HAL_RCC_AFIO_CLK_ENABLE();
 80011d8:	4b4d      	ldr	r3, [pc, #308]	@ (8001310 <HAL_GPIO_Init+0x2b8>)
 80011da:	699b      	ldr	r3, [r3, #24]
 80011dc:	4a4c      	ldr	r2, [pc, #304]	@ (8001310 <HAL_GPIO_Init+0x2b8>)
 80011de:	f043 0301 	orr.w	r3, r3, #1
 80011e2:	6193      	str	r3, [r2, #24]
 80011e4:	4b4a      	ldr	r3, [pc, #296]	@ (8001310 <HAL_GPIO_Init+0x2b8>)
 80011e6:	699b      	ldr	r3, [r3, #24]
 80011e8:	f003 0301 	and.w	r3, r3, #1
 80011ec:	60bb      	str	r3, [r7, #8]
 80011ee:	68bb      	ldr	r3, [r7, #8]
        temp = AFIO->EXTICR[position >> 2u];
 80011f0:	4a48      	ldr	r2, [pc, #288]	@ (8001314 <HAL_GPIO_Init+0x2bc>)
 80011f2:	6a7b      	ldr	r3, [r7, #36]	@ 0x24
 80011f4:	089b      	lsrs	r3, r3, #2
 80011f6:	3302      	adds	r3, #2
 80011f8:	f852 3023 	ldr.w	r3, [r2, r3, lsl #2]
 80011fc:	60fb      	str	r3, [r7, #12]
        CLEAR_BIT(temp, (0x0Fu) << (4u * (position & 0x03u)));
 80011fe:	6a7b      	ldr	r3, [r7, #36]	@ 0x24
 8001200:	f003 0303 	and.w	r3, r3, #3
 8001204:	009b      	lsls	r3, r3, #2
 8001206:	220f      	movs	r2, #15
 8001208:	fa02 f303 	lsl.w	r3, r2, r3
 800120c:	43db      	mvns	r3, r3
 800120e:	68fa      	ldr	r2, [r7, #12]
 8001210:	4013      	ands	r3, r2
 8001212:	60fb      	str	r3, [r7, #12]
        SET_BIT(temp, (GPIO_GET_INDEX(GPIOx)) << (4u * (position & 0x03u)));
 8001214:	687b      	ldr	r3, [r7, #4]
 8001216:	4a40      	ldr	r2, [pc, #256]	@ (8001318 <HAL_GPIO_Init+0x2c0>)
 8001218:	4293      	cmp	r3, r2
 800121a:	d013      	beq.n	8001244 <HAL_GPIO_Init+0x1ec>
 800121c:	687b      	ldr	r3, [r7, #4]
 800121e:	4a3f      	ldr	r2, [pc, #252]	@ (800131c <HAL_GPIO_Init+0x2c4>)
 8001220:	4293      	cmp	r3, r2
 8001222:	d00d      	beq.n	8001240 <HAL_GPIO_Init+0x1e8>
 8001224:	687b      	ldr	r3, [r7, #4]
 8001226:	4a3e      	ldr	r2, [pc, #248]	@ (8001320 <HAL_GPIO_Init+0x2c8>)
 8001228:	4293      	cmp	r3, r2
 800122a:	d007      	beq.n	800123c <HAL_GPIO_Init+0x1e4>
 800122c:	687b      	ldr	r3, [r7, #4]
 800122e:	4a3d      	ldr	r2, [pc, #244]	@ (8001324 <HAL_GPIO_Init+0x2cc>)
 8001230:	4293      	cmp	r3, r2
 8001232:	d101      	bne.n	8001238 <HAL_GPIO_Init+0x1e0>
 8001234:	2303      	movs	r3, #3
 8001236:	e006      	b.n	8001246 <HAL_GPIO_Init+0x1ee>
 8001238:	2304      	movs	r3, #4
 800123a:	e004      	b.n	8001246 <HAL_GPIO_Init+0x1ee>
 800123c:	2302      	movs	r3, #2
 800123e:	e002      	b.n	8001246 <HAL_GPIO_Init+0x1ee>
 8001240:	2301      	movs	r3, #1
 8001242:	e000      	b.n	8001246 <HAL_GPIO_Init+0x1ee>
 8001244:	2300      	movs	r3, #0
 8001246:	6a7a      	ldr	r2, [r7, #36]	@ 0x24
 8001248:	f002 0203 	and.w	r2, r2, #3
 800124c:	0092      	lsls	r2, r2, #2
 800124e:	4093      	lsls	r3, r2
 8001250:	68fa      	ldr	r2, [r7, #12]
 8001252:	4313      	orrs	r3, r2
 8001254:	60fb      	str	r3, [r7, #12]
        AFIO->EXTICR[position >> 2u] = temp;
 8001256:	492f      	ldr	r1, [pc, #188]	@ (8001314 <HAL_GPIO_Init+0x2bc>)
 8001258:	6a7b      	ldr	r3, [r7, #36]	@ 0x24
 800125a:	089b      	lsrs	r3, r3, #2
 800125c:	3302      	adds	r3, #2
 800125e:	68fa      	ldr	r2, [r7, #12]
 8001260:	f841 2023 	str.w	r2, [r1, r3, lsl #2]


        /* Enable or disable the rising trigger */
        if ((GPIO_Init->Mode & RISING_EDGE) == RISING_EDGE)
 8001264:	683b      	ldr	r3, [r7, #0]
 8001266:	685b      	ldr	r3, [r3, #4]
 8001268:	f403 1380 	and.w	r3, r3, #1048576	@ 0x100000
 800126c:	2b00      	cmp	r3, #0
 800126e:	d006      	beq.n	800127e <HAL_GPIO_Init+0x226>
        {
          SET_BIT(EXTI->RTSR, iocurrent);
 8001270:	4b2d      	ldr	r3, [pc, #180]	@ (8001328 <HAL_GPIO_Init+0x2d0>)
 8001272:	689a      	ldr	r2, [r3, #8]
 8001274:	492c      	ldr	r1, [pc, #176]	@ (8001328 <HAL_GPIO_Init+0x2d0>)
 8001276:	69bb      	ldr	r3, [r7, #24]
 8001278:	4313      	orrs	r3, r2
 800127a:	608b      	str	r3, [r1, #8]
 800127c:	e006      	b.n	800128c <HAL_GPIO_Init+0x234>
        }
        else
        {
          CLEAR_BIT(EXTI->RTSR, iocurrent);
 800127e:	4b2a      	ldr	r3, [pc, #168]	@ (8001328 <HAL_GPIO_Init+0x2d0>)
 8001280:	689a      	ldr	r2, [r3, #8]
 8001282:	69bb      	ldr	r3, [r7, #24]
 8001284:	43db      	mvns	r3, r3
 8001286:	4928      	ldr	r1, [pc, #160]	@ (8001328 <HAL_GPIO_Init+0x2d0>)
 8001288:	4013      	ands	r3, r2
 800128a:	608b      	str	r3, [r1, #8]
        }

        /* Enable or disable the falling trigger */
        if ((GPIO_Init->Mode & FALLING_EDGE) == FALLING_EDGE)
 800128c:	683b      	ldr	r3, [r7, #0]
 800128e:	685b      	ldr	r3, [r3, #4]
 8001290:	f403 1300 	and.w	r3, r3, #2097152	@ 0x200000
 8001294:	2b00      	cmp	r3, #0
 8001296:	d006      	beq.n	80012a6 <HAL_GPIO_Init+0x24e>
        {
          SET_BIT(EXTI->FTSR, iocurrent);
 8001298:	4b23      	ldr	r3, [pc, #140]	@ (8001328 <HAL_GPIO_Init+0x2d0>)
 800129a:	68da      	ldr	r2, [r3, #12]
 800129c:	4922      	ldr	r1, [pc, #136]	@ (8001328 <HAL_GPIO_Init+0x2d0>)
 800129e:	69bb      	ldr	r3, [r7, #24]
 80012a0:	4313      	orrs	r3, r2
 80012a2:	60cb      	str	r3, [r1, #12]
 80012a4:	e006      	b.n	80012b4 <HAL_GPIO_Init+0x25c>
        }
        else
        {
          CLEAR_BIT(EXTI->FTSR, iocurrent);
 80012a6:	4b20      	ldr	r3, [pc, #128]	@ (8001328 <HAL_GPIO_Init+0x2d0>)
 80012a8:	68da      	ldr	r2, [r3, #12]
 80012aa:	69bb      	ldr	r3, [r7, #24]
 80012ac:	43db      	mvns	r3, r3
 80012ae:	491e      	ldr	r1, [pc, #120]	@ (8001328 <HAL_GPIO_Init+0x2d0>)
 80012b0:	4013      	ands	r3, r2
 80012b2:	60cb      	str	r3, [r1, #12]
        }

        /* Configure the event mask */
        if ((GPIO_Init->Mode & GPIO_MODE_EVT) == GPIO_MODE_EVT)
 80012b4:	683b      	ldr	r3, [r7, #0]
 80012b6:	685b      	ldr	r3, [r3, #4]
 80012b8:	f403 3300 	and.w	r3, r3, #131072	@ 0x20000
 80012bc:	2b00      	cmp	r3, #0
 80012be:	d006      	beq.n	80012ce <HAL_GPIO_Init+0x276>
        {
          SET_BIT(EXTI->EMR, iocurrent);
 80012c0:	4b19      	ldr	r3, [pc, #100]	@ (8001328 <HAL_GPIO_Init+0x2d0>)
 80012c2:	685a      	ldr	r2, [r3, #4]
 80012c4:	4918      	ldr	r1, [pc, #96]	@ (8001328 <HAL_GPIO_Init+0x2d0>)
 80012c6:	69bb      	ldr	r3, [r7, #24]
 80012c8:	4313      	orrs	r3, r2
 80012ca:	604b      	str	r3, [r1, #4]
 80012cc:	e006      	b.n	80012dc <HAL_GPIO_Init+0x284>
        }
        else
        {
          CLEAR_BIT(EXTI->EMR, iocurrent);
 80012ce:	4b16      	ldr	r3, [pc, #88]	@ (8001328 <HAL_GPIO_Init+0x2d0>)
 80012d0:	685a      	ldr	r2, [r3, #4]
 80012d2:	69bb      	ldr	r3, [r7, #24]
 80012d4:	43db      	mvns	r3, r3
 80012d6:	4914      	ldr	r1, [pc, #80]	@ (8001328 <HAL_GPIO_Init+0x2d0>)
 80012d8:	4013      	ands	r3, r2
 80012da:	604b      	str	r3, [r1, #4]
        }

        /* Configure the interrupt mask */
        if ((GPIO_Init->Mode & GPIO_MODE_IT) == GPIO_MODE_IT)
 80012dc:	683b      	ldr	r3, [r7, #0]
 80012de:	685b      	ldr	r3, [r3, #4]
 80012e0:	f403 3380 	and.w	r3, r3, #65536	@ 0x10000
 80012e4:	2b00      	cmp	r3, #0
 80012e6:	d021      	beq.n	800132c <HAL_GPIO_Init+0x2d4>
        {
          SET_BIT(EXTI->IMR, iocurrent);
 80012e8:	4b0f      	ldr	r3, [pc, #60]	@ (8001328 <HAL_GPIO_Init+0x2d0>)
 80012ea:	681a      	ldr	r2, [r3, #0]
 80012ec:	490e      	ldr	r1, [pc, #56]	@ (8001328 <HAL_GPIO_Init+0x2d0>)
 80012ee:	69bb      	ldr	r3, [r7, #24]
 80012f0:	4313      	orrs	r3, r2
 80012f2:	600b      	str	r3, [r1, #0]
 80012f4:	e021      	b.n	800133a <HAL_GPIO_Init+0x2e2>
 80012f6:	bf00      	nop
 80012f8:	10320000 	.word	0x10320000
 80012fc:	10310000 	.word	0x10310000
 8001300:	10220000 	.word	0x10220000
 8001304:	10210000 	.word	0x10210000
 8001308:	10120000 	.word	0x10120000
 800130c:	10110000 	.word	0x10110000
 8001310:	40021000 	.word	0x40021000
 8001314:	40010000 	.word	0x40010000
 8001318:	40010800 	.word	0x40010800
 800131c:	40010c00 	.word	0x40010c00
 8001320:	40011000 	.word	0x40011000
 8001324:	40011400 	.word	0x40011400
 8001328:	40010400 	.word	0x40010400
        }
        else
        {
          CLEAR_BIT(EXTI->IMR, iocurrent);
 800132c:	4b0b      	ldr	r3, [pc, #44]	@ (800135c <HAL_GPIO_Init+0x304>)
 800132e:	681a      	ldr	r2, [r3, #0]
 8001330:	69bb      	ldr	r3, [r7, #24]
 8001332:	43db      	mvns	r3, r3
 8001334:	4909      	ldr	r1, [pc, #36]	@ (800135c <HAL_GPIO_Init+0x304>)
 8001336:	4013      	ands	r3, r2
 8001338:	600b      	str	r3, [r1, #0]
        }
      }
    }

	position++;
 800133a:	6a7b      	ldr	r3, [r7, #36]	@ 0x24
 800133c:	3301      	adds	r3, #1
 800133e:	627b      	str	r3, [r7, #36]	@ 0x24
  while (((GPIO_Init->Pin) >> position) != 0x00u)
 8001340:	683b      	ldr	r3, [r7, #0]
 8001342:	681a      	ldr	r2, [r3, #0]
 8001344:	6a7b      	ldr	r3, [r7, #36]	@ 0x24
 8001346:	fa22 f303 	lsr.w	r3, r2, r3
 800134a:	2b00      	cmp	r3, #0
 800134c:	f47f ae8e 	bne.w	800106c <HAL_GPIO_Init+0x14>
  }
}
 8001350:	bf00      	nop
 8001352:	bf00      	nop
 8001354:	372c      	adds	r7, #44	@ 0x2c
 8001356:	46bd      	mov	sp, r7
 8001358:	bc80      	pop	{r7}
 800135a:	4770      	bx	lr
 800135c:	40010400 	.word	0x40010400

08001360 <HAL_GPIO_WritePin>:
  *            @arg GPIO_PIN_RESET: to clear the port pin
  *            @arg GPIO_PIN_SET: to set the port pin
  * @retval None
  */
void HAL_GPIO_WritePin(GPIO_TypeDef *GPIOx, uint16_t GPIO_Pin, GPIO_PinState PinState)
{
 8001360:	b480      	push	{r7}
 8001362:	b083      	sub	sp, #12
 8001364:	af00      	add	r7, sp, #0
 8001366:	6078      	str	r0, [r7, #4]
 8001368:	460b      	mov	r3, r1
 800136a:	807b      	strh	r3, [r7, #2]
 800136c:	4613      	mov	r3, r2
 800136e:	707b      	strb	r3, [r7, #1]
  /* Check the parameters */
  assert_param(IS_GPIO_PIN(GPIO_Pin));
  assert_param(IS_GPIO_PIN_ACTION(PinState));

  if (PinState != GPIO_PIN_RESET)
 8001370:	787b      	ldrb	r3, [r7, #1]
 8001372:	2b00      	cmp	r3, #0
 8001374:	d003      	beq.n	800137e <HAL_GPIO_WritePin+0x1e>
  {
    GPIOx->BSRR = GPIO_Pin;
 8001376:	887a      	ldrh	r2, [r7, #2]
 8001378:	687b      	ldr	r3, [r7, #4]
 800137a:	611a      	str	r2, [r3, #16]
  }
  else
  {
    GPIOx->BSRR = (uint32_t)GPIO_Pin << 16u;
  }
}
 800137c:	e003      	b.n	8001386 <HAL_GPIO_WritePin+0x26>
    GPIOx->BSRR = (uint32_t)GPIO_Pin << 16u;
 800137e:	887b      	ldrh	r3, [r7, #2]
 8001380:	041a      	lsls	r2, r3, #16
 8001382:	687b      	ldr	r3, [r7, #4]
 8001384:	611a      	str	r2, [r3, #16]
}
 8001386:	bf00      	nop
 8001388:	370c      	adds	r7, #12
 800138a:	46bd      	mov	sp, r7
 800138c:	bc80      	pop	{r7}
 800138e:	4770      	bx	lr

08001390 <HAL_GPIO_TogglePin>:
  * @param  GPIOx: where x can be (A..G depending on device used) to select the GPIO peripheral
  * @param  GPIO_Pin: Specifies the pins to be toggled.
  * @retval None
  */
void HAL_GPIO_TogglePin(GPIO_TypeDef *GPIOx, uint16_t GPIO_Pin)
{
 8001390:	b480      	push	{r7}
 8001392:	b085      	sub	sp, #20
 8001394:	af00      	add	r7, sp, #0
 8001396:	6078      	str	r0, [r7, #4]
 8001398:	460b      	mov	r3, r1
 800139a:	807b      	strh	r3, [r7, #2]

  /* Check the parameters */
  assert_param(IS_GPIO_PIN(GPIO_Pin));

  /* get current Output Data Register value */
  odr = GPIOx->ODR;
 800139c:	687b      	ldr	r3, [r7, #4]
 800139e:	68db      	ldr	r3, [r3, #12]
 80013a0:	60fb      	str	r3, [r7, #12]

  /* Set selected pins that were at low level, and reset ones that were high */
  GPIOx->BSRR = ((odr & GPIO_Pin) << GPIO_NUMBER) | (~odr & GPIO_Pin);
 80013a2:	887a      	ldrh	r2, [r7, #2]
 80013a4:	68fb      	ldr	r3, [r7, #12]
 80013a6:	4013      	ands	r3, r2
 80013a8:	041a      	lsls	r2, r3, #16
 80013aa:	68fb      	ldr	r3, [r7, #12]
 80013ac:	43d9      	mvns	r1, r3
 80013ae:	887b      	ldrh	r3, [r7, #2]
 80013b0:	400b      	ands	r3, r1
 80013b2:	431a      	orrs	r2, r3
 80013b4:	687b      	ldr	r3, [r7, #4]
 80013b6:	611a      	str	r2, [r3, #16]
}
 80013b8:	bf00      	nop
 80013ba:	3714      	adds	r7, #20
 80013bc:	46bd      	mov	sp, r7
 80013be:	bc80      	pop	{r7}
 80013c0:	4770      	bx	lr
	...

080013c4 <HAL_RCC_OscConfig>:
  *         supported by this macro. User should request a transition to HSE Off
  *         first and then HSE On or HSE Bypass.
  * @retval HAL status
  */
HAL_StatusTypeDef HAL_RCC_OscConfig(RCC_OscInitTypeDef  *RCC_OscInitStruct)
{
 80013c4:	b580      	push	{r7, lr}
 80013c6:	b086      	sub	sp, #24
 80013c8:	af00      	add	r7, sp, #0
 80013ca:	6078      	str	r0, [r7, #4]
  uint32_t tickstart;
  uint32_t pll_config;

  /* Check Null pointer */
  if (RCC_OscInitStruct == NULL)
 80013cc:	687b      	ldr	r3, [r7, #4]
 80013ce:	2b00      	cmp	r3, #0
 80013d0:	d101      	bne.n	80013d6 <HAL_RCC_OscConfig+0x12>
  {
    return HAL_ERROR;
 80013d2:	2301      	movs	r3, #1
 80013d4:	e272      	b.n	80018bc <HAL_RCC_OscConfig+0x4f8>

  /* Check the parameters */
  assert_param(IS_RCC_OSCILLATORTYPE(RCC_OscInitStruct->OscillatorType));

  /*------------------------------- HSE Configuration ------------------------*/
  if (((RCC_OscInitStruct->OscillatorType) & RCC_OSCILLATORTYPE_HSE) == RCC_OSCILLATORTYPE_HSE)
 80013d6:	687b      	ldr	r3, [r7, #4]
 80013d8:	681b      	ldr	r3, [r3, #0]
 80013da:	f003 0301 	and.w	r3, r3, #1
 80013de:	2b00      	cmp	r3, #0
 80013e0:	f000 8087 	beq.w	80014f2 <HAL_RCC_OscConfig+0x12e>
  {
    /* Check the parameters */
    assert_param(IS_RCC_HSE(RCC_OscInitStruct->HSEState));

    /* When the HSE is used as system clock or clock source for PLL in these cases it is not allowed to be disabled */
    if ((__HAL_RCC_GET_SYSCLK_SOURCE() == RCC_SYSCLKSOURCE_STATUS_HSE)
 80013e4:	4b92      	ldr	r3, [pc, #584]	@ (8001630 <HAL_RCC_OscConfig+0x26c>)
 80013e6:	685b      	ldr	r3, [r3, #4]
 80013e8:	f003 030c 	and.w	r3, r3, #12
 80013ec:	2b04      	cmp	r3, #4
 80013ee:	d00c      	beq.n	800140a <HAL_RCC_OscConfig+0x46>
        || ((__HAL_RCC_GET_SYSCLK_SOURCE() == RCC_SYSCLKSOURCE_STATUS_PLLCLK) && (__HAL_RCC_GET_PLL_OSCSOURCE() == RCC_PLLSOURCE_HSE)))
 80013f0:	4b8f      	ldr	r3, [pc, #572]	@ (8001630 <HAL_RCC_OscConfig+0x26c>)
 80013f2:	685b      	ldr	r3, [r3, #4]
 80013f4:	f003 030c 	and.w	r3, r3, #12
 80013f8:	2b08      	cmp	r3, #8
 80013fa:	d112      	bne.n	8001422 <HAL_RCC_OscConfig+0x5e>
 80013fc:	4b8c      	ldr	r3, [pc, #560]	@ (8001630 <HAL_RCC_OscConfig+0x26c>)
 80013fe:	685b      	ldr	r3, [r3, #4]
 8001400:	f403 3380 	and.w	r3, r3, #65536	@ 0x10000
 8001404:	f5b3 3f80 	cmp.w	r3, #65536	@ 0x10000
 8001408:	d10b      	bne.n	8001422 <HAL_RCC_OscConfig+0x5e>
    {
      if ((__HAL_RCC_GET_FLAG(RCC_FLAG_HSERDY) != RESET) && (RCC_OscInitStruct->HSEState == RCC_HSE_OFF))
 800140a:	4b89      	ldr	r3, [pc, #548]	@ (8001630 <HAL_RCC_OscConfig+0x26c>)
 800140c:	681b      	ldr	r3, [r3, #0]
 800140e:	f403 3300 	and.w	r3, r3, #131072	@ 0x20000
 8001412:	2b00      	cmp	r3, #0
 8001414:	d06c      	beq.n	80014f0 <HAL_RCC_OscConfig+0x12c>
 8001416:	687b      	ldr	r3, [r7, #4]
 8001418:	685b      	ldr	r3, [r3, #4]
 800141a:	2b00      	cmp	r3, #0
 800141c:	d168      	bne.n	80014f0 <HAL_RCC_OscConfig+0x12c>
      {
        return HAL_ERROR;
 800141e:	2301      	movs	r3, #1
 8001420:	e24c      	b.n	80018bc <HAL_RCC_OscConfig+0x4f8>
      }
    }
    else
    {
      /* Set the new HSE configuration ---------------------------------------*/
      __HAL_RCC_HSE_CONFIG(RCC_OscInitStruct->HSEState);
 8001422:	687b      	ldr	r3, [r7, #4]
 8001424:	685b      	ldr	r3, [r3, #4]
 8001426:	f5b3 3f80 	cmp.w	r3, #65536	@ 0x10000
 800142a:	d106      	bne.n	800143a <HAL_RCC_OscConfig+0x76>
 800142c:	4b80      	ldr	r3, [pc, #512]	@ (8001630 <HAL_RCC_OscConfig+0x26c>)
 800142e:	681b      	ldr	r3, [r3, #0]
 8001430:	4a7f      	ldr	r2, [pc, #508]	@ (8001630 <HAL_RCC_OscConfig+0x26c>)
 8001432:	f443 3380 	orr.w	r3, r3, #65536	@ 0x10000
 8001436:	6013      	str	r3, [r2, #0]
 8001438:	e02e      	b.n	8001498 <HAL_RCC_OscConfig+0xd4>
 800143a:	687b      	ldr	r3, [r7, #4]
 800143c:	685b      	ldr	r3, [r3, #4]
 800143e:	2b00      	cmp	r3, #0
 8001440:	d10c      	bne.n	800145c <HAL_RCC_OscConfig+0x98>
 8001442:	4b7b      	ldr	r3, [pc, #492]	@ (8001630 <HAL_RCC_OscConfig+0x26c>)
 8001444:	681b      	ldr	r3, [r3, #0]
 8001446:	4a7a      	ldr	r2, [pc, #488]	@ (8001630 <HAL_RCC_OscConfig+0x26c>)
 8001448:	f423 3380 	bic.w	r3, r3, #65536	@ 0x10000
 800144c:	6013      	str	r3, [r2, #0]
 800144e:	4b78      	ldr	r3, [pc, #480]	@ (8001630 <HAL_RCC_OscConfig+0x26c>)
 8001450:	681b      	ldr	r3, [r3, #0]
 8001452:	4a77      	ldr	r2, [pc, #476]	@ (8001630 <HAL_RCC_OscConfig+0x26c>)
 8001454:	f423 2380 	bic.w	r3, r3, #262144	@ 0x40000
 8001458:	6013      	str	r3, [r2, #0]
 800145a:	e01d      	b.n	8001498 <HAL_RCC_OscConfig+0xd4>
 800145c:	687b      	ldr	r3, [r7, #4]
 800145e:	685b      	ldr	r3, [r3, #4]
 8001460:	f5b3 2fa0 	cmp.w	r3, #327680	@ 0x50000
 8001464:	d10c      	bne.n	8001480 <HAL_RCC_OscConfig+0xbc>
 8001466:	4b72      	ldr	r3, [pc, #456]	@ (8001630 <HAL_RCC_OscConfig+0x26c>)
 8001468:	681b      	ldr	r3, [r3, #0]
 800146a:	4a71      	ldr	r2, [pc, #452]	@ (8001630 <HAL_RCC_OscConfig+0x26c>)
 800146c:	f443 2380 	orr.w	r3, r3, #262144	@ 0x40000
 8001470:	6013      	str	r3, [r2, #0]
 8001472:	4b6f      	ldr	r3, [pc, #444]	@ (8001630 <HAL_RCC_OscConfig+0x26c>)
 8001474:	681b      	ldr	r3, [r3, #0]
 8001476:	4a6e      	ldr	r2, [pc, #440]	@ (8001630 <HAL_RCC_OscConfig+0x26c>)
 8001478:	f443 3380 	orr.w	r3, r3, #65536	@ 0x10000
 800147c:	6013      	str	r3, [r2, #0]
 800147e:	e00b      	b.n	8001498 <HAL_RCC_OscConfig+0xd4>
 8001480:	4b6b      	ldr	r3, [pc, #428]	@ (8001630 <HAL_RCC_OscConfig+0x26c>)
 8001482:	681b      	ldr	r3, [r3, #0]
 8001484:	4a6a      	ldr	r2, [pc, #424]	@ (8001630 <HAL_RCC_OscConfig+0x26c>)
 8001486:	f423 3380 	bic.w	r3, r3, #65536	@ 0x10000
 800148a:	6013      	str	r3, [r2, #0]
 800148c:	4b68      	ldr	r3, [pc, #416]	@ (8001630 <HAL_RCC_OscConfig+0x26c>)
 800148e:	681b      	ldr	r3, [r3, #0]
 8001490:	4a67      	ldr	r2, [pc, #412]	@ (8001630 <HAL_RCC_OscConfig+0x26c>)
 8001492:	f423 2380 	bic.w	r3, r3, #262144	@ 0x40000
 8001496:	6013      	str	r3, [r2, #0]


      /* Check the HSE State */
      if (RCC_OscInitStruct->HSEState != RCC_HSE_OFF)
 8001498:	687b      	ldr	r3, [r7, #4]
 800149a:	685b      	ldr	r3, [r3, #4]
 800149c:	2b00      	cmp	r3, #0
 800149e:	d013      	beq.n	80014c8 <HAL_RCC_OscConfig+0x104>
      {
        /* Get Start Tick */
        tickstart = HAL_GetTick();
 80014a0:	f7ff fbec 	bl	8000c7c <HAL_GetTick>
 80014a4:	6138      	str	r0, [r7, #16]

        /* Wait till HSE is ready */
        while (__HAL_RCC_GET_FLAG(RCC_FLAG_HSERDY) == RESET)
 80014a6:	e008      	b.n	80014ba <HAL_RCC_OscConfig+0xf6>
        {
          if ((HAL_GetTick() - tickstart) > HSE_TIMEOUT_VALUE)
 80014a8:	f7ff fbe8 	bl	8000c7c <HAL_GetTick>
 80014ac:	4602      	mov	r2, r0
 80014ae:	693b      	ldr	r3, [r7, #16]
 80014b0:	1ad3      	subs	r3, r2, r3
 80014b2:	2b64      	cmp	r3, #100	@ 0x64
 80014b4:	d901      	bls.n	80014ba <HAL_RCC_OscConfig+0xf6>
          {
            return HAL_TIMEOUT;
 80014b6:	2303      	movs	r3, #3
 80014b8:	e200      	b.n	80018bc <HAL_RCC_OscConfig+0x4f8>
        while (__HAL_RCC_GET_FLAG(RCC_FLAG_HSERDY) == RESET)
 80014ba:	4b5d      	ldr	r3, [pc, #372]	@ (8001630 <HAL_RCC_OscConfig+0x26c>)
 80014bc:	681b      	ldr	r3, [r3, #0]
 80014be:	f403 3300 	and.w	r3, r3, #131072	@ 0x20000
 80014c2:	2b00      	cmp	r3, #0
 80014c4:	d0f0      	beq.n	80014a8 <HAL_RCC_OscConfig+0xe4>
 80014c6:	e014      	b.n	80014f2 <HAL_RCC_OscConfig+0x12e>
        }
      }
      else
      {
        /* Get Start Tick */
        tickstart = HAL_GetTick();
 80014c8:	f7ff fbd8 	bl	8000c7c <HAL_GetTick>
 80014cc:	6138      	str	r0, [r7, #16]

        /* Wait till HSE is disabled */
        while (__HAL_RCC_GET_FLAG(RCC_FLAG_HSERDY) != RESET)
 80014ce:	e008      	b.n	80014e2 <HAL_RCC_OscConfig+0x11e>
        {
          if ((HAL_GetTick() - tickstart) > HSE_TIMEOUT_VALUE)
 80014d0:	f7ff fbd4 	bl	8000c7c <HAL_GetTick>
 80014d4:	4602      	mov	r2, r0
 80014d6:	693b      	ldr	r3, [r7, #16]
 80014d8:	1ad3      	subs	r3, r2, r3
 80014da:	2b64      	cmp	r3, #100	@ 0x64
 80014dc:	d901      	bls.n	80014e2 <HAL_RCC_OscConfig+0x11e>
          {
            return HAL_TIMEOUT;
 80014de:	2303      	movs	r3, #3
 80014e0:	e1ec      	b.n	80018bc <HAL_RCC_OscConfig+0x4f8>
        while (__HAL_RCC_GET_FLAG(RCC_FLAG_HSERDY) != RESET)
 80014e2:	4b53      	ldr	r3, [pc, #332]	@ (8001630 <HAL_RCC_OscConfig+0x26c>)
 80014e4:	681b      	ldr	r3, [r3, #0]
 80014e6:	f403 3300 	and.w	r3, r3, #131072	@ 0x20000
 80014ea:	2b00      	cmp	r3, #0
 80014ec:	d1f0      	bne.n	80014d0 <HAL_RCC_OscConfig+0x10c>
 80014ee:	e000      	b.n	80014f2 <HAL_RCC_OscConfig+0x12e>
      if ((__HAL_RCC_GET_FLAG(RCC_FLAG_HSERDY) != RESET) && (RCC_OscInitStruct->HSEState == RCC_HSE_OFF))
 80014f0:	bf00      	nop
        }
      }
    }
  }
  /*----------------------------- HSI Configuration --------------------------*/
  if (((RCC_OscInitStruct->OscillatorType) & RCC_OSCILLATORTYPE_HSI) == RCC_OSCILLATORTYPE_HSI)
 80014f2:	687b      	ldr	r3, [r7, #4]
 80014f4:	681b      	ldr	r3, [r3, #0]
 80014f6:	f003 0302 	and.w	r3, r3, #2
 80014fa:	2b00      	cmp	r3, #0
 80014fc:	d063      	beq.n	80015c6 <HAL_RCC_OscConfig+0x202>
    /* Check the parameters */
    assert_param(IS_RCC_HSI(RCC_OscInitStruct->HSIState));
    assert_param(IS_RCC_CALIBRATION_VALUE(RCC_OscInitStruct->HSICalibrationValue));

    /* Check if HSI is used as system clock or as PLL source when PLL is selected as system clock */
    if ((__HAL_RCC_GET_SYSCLK_SOURCE() == RCC_SYSCLKSOURCE_STATUS_HSI)
 80014fe:	4b4c      	ldr	r3, [pc, #304]	@ (8001630 <HAL_RCC_OscConfig+0x26c>)
 8001500:	685b      	ldr	r3, [r3, #4]
 8001502:	f003 030c 	and.w	r3, r3, #12
 8001506:	2b00      	cmp	r3, #0
 8001508:	d00b      	beq.n	8001522 <HAL_RCC_OscConfig+0x15e>
        || ((__HAL_RCC_GET_SYSCLK_SOURCE() == RCC_SYSCLKSOURCE_STATUS_PLLCLK) && (__HAL_RCC_GET_PLL_OSCSOURCE() == RCC_PLLSOURCE_HSI_DIV2)))
 800150a:	4b49      	ldr	r3, [pc, #292]	@ (8001630 <HAL_RCC_OscConfig+0x26c>)
 800150c:	685b      	ldr	r3, [r3, #4]
 800150e:	f003 030c 	and.w	r3, r3, #12
 8001512:	2b08      	cmp	r3, #8
 8001514:	d11c      	bne.n	8001550 <HAL_RCC_OscConfig+0x18c>
 8001516:	4b46      	ldr	r3, [pc, #280]	@ (8001630 <HAL_RCC_OscConfig+0x26c>)
 8001518:	685b      	ldr	r3, [r3, #4]
 800151a:	f403 3380 	and.w	r3, r3, #65536	@ 0x10000
 800151e:	2b00      	cmp	r3, #0
 8001520:	d116      	bne.n	8001550 <HAL_RCC_OscConfig+0x18c>
    {
      /* When HSI is used as system clock it will not disabled */
      if ((__HAL_RCC_GET_FLAG(RCC_FLAG_HSIRDY) != RESET) && (RCC_OscInitStruct->HSIState != RCC_HSI_ON))
 8001522:	4b43      	ldr	r3, [pc, #268]	@ (8001630 <HAL_RCC_OscConfig+0x26c>)
 8001524:	681b      	ldr	r3, [r3, #0]
 8001526:	f003 0302 	and.w	r3, r3, #2
 800152a:	2b00      	cmp	r3, #0
 800152c:	d005      	beq.n	800153a <HAL_RCC_OscConfig+0x176>
 800152e:	687b      	ldr	r3, [r7, #4]
 8001530:	691b      	ldr	r3, [r3, #16]
 8001532:	2b01      	cmp	r3, #1
 8001534:	d001      	beq.n	800153a <HAL_RCC_OscConfig+0x176>
      {
        return HAL_ERROR;
 8001536:	2301      	movs	r3, #1
 8001538:	e1c0      	b.n	80018bc <HAL_RCC_OscConfig+0x4f8>
      }
      /* Otherwise, just the calibration is allowed */
      else
      {
        /* Adjusts the Internal High Speed oscillator (HSI) calibration value.*/
        __HAL_RCC_HSI_CALIBRATIONVALUE_ADJUST(RCC_OscInitStruct->HSICalibrationValue);
 800153a:	4b3d      	ldr	r3, [pc, #244]	@ (8001630 <HAL_RCC_OscConfig+0x26c>)
 800153c:	681b      	ldr	r3, [r3, #0]
 800153e:	f023 02f8 	bic.w	r2, r3, #248	@ 0xf8
 8001542:	687b      	ldr	r3, [r7, #4]
 8001544:	695b      	ldr	r3, [r3, #20]
 8001546:	00db      	lsls	r3, r3, #3
 8001548:	4939      	ldr	r1, [pc, #228]	@ (8001630 <HAL_RCC_OscConfig+0x26c>)
 800154a:	4313      	orrs	r3, r2
 800154c:	600b      	str	r3, [r1, #0]
      if ((__HAL_RCC_GET_FLAG(RCC_FLAG_HSIRDY) != RESET) && (RCC_OscInitStruct->HSIState != RCC_HSI_ON))
 800154e:	e03a      	b.n	80015c6 <HAL_RCC_OscConfig+0x202>
      }
    }
    else
    {
      /* Check the HSI State */
      if (RCC_OscInitStruct->HSIState != RCC_HSI_OFF)
 8001550:	687b      	ldr	r3, [r7, #4]
 8001552:	691b      	ldr	r3, [r3, #16]
 8001554:	2b00      	cmp	r3, #0
 8001556:	d020      	beq.n	800159a <HAL_RCC_OscConfig+0x1d6>
      {
        /* Enable the Internal High Speed oscillator (HSI). */
        __HAL_RCC_HSI_ENABLE();
 8001558:	4b36      	ldr	r3, [pc, #216]	@ (8001634 <HAL_RCC_OscConfig+0x270>)
 800155a:	2201      	movs	r2, #1
 800155c:	601a      	str	r2, [r3, #0]

        /* Get Start Tick */
        tickstart = HAL_GetTick();
 800155e:	f7ff fb8d 	bl	8000c7c <HAL_GetTick>
 8001562:	6138      	str	r0, [r7, #16]

        /* Wait till HSI is ready */
        while (__HAL_RCC_GET_FLAG(RCC_FLAG_HSIRDY) == RESET)
 8001564:	e008      	b.n	8001578 <HAL_RCC_OscConfig+0x1b4>
        {
          if ((HAL_GetTick() - tickstart) > HSI_TIMEOUT_VALUE)
 8001566:	f7ff fb89 	bl	8000c7c <HAL_GetTick>
 800156a:	4602      	mov	r2, r0
 800156c:	693b      	ldr	r3, [r7, #16]
 800156e:	1ad3      	subs	r3, r2, r3
 8001570:	2b02      	cmp	r3, #2
 8001572:	d901      	bls.n	8001578 <HAL_RCC_OscConfig+0x1b4>
          {
            return HAL_TIMEOUT;
 8001574:	2303      	movs	r3, #3
 8001576:	e1a1      	b.n	80018bc <HAL_RCC_OscConfig+0x4f8>
        while (__HAL_RCC_GET_FLAG(RCC_FLAG_HSIRDY) == RESET)
 8001578:	4b2d      	ldr	r3, [pc, #180]	@ (8001630 <HAL_RCC_OscConfig+0x26c>)
 800157a:	681b      	ldr	r3, [r3, #0]
 800157c:	f003 0302 	and.w	r3, r3, #2
 8001580:	2b00      	cmp	r3, #0
 8001582:	d0f0      	beq.n	8001566 <HAL_RCC_OscConfig+0x1a2>
          }
        }

        /* Adjusts the Internal High Speed oscillator (HSI) calibration value.*/
        __HAL_RCC_HSI_CALIBRATIONVALUE_ADJUST(RCC_OscInitStruct->HSICalibrationValue);
 8001584:	4b2a      	ldr	r3, [pc, #168]	@ (8001630 <HAL_RCC_OscConfig+0x26c>)
 8001586:	681b      	ldr	r3, [r3, #0]
 8001588:	f023 02f8 	bic.w	r2, r3, #248	@ 0xf8
 800158c:	687b      	ldr	r3, [r7, #4]
 800158e:	695b      	ldr	r3, [r3, #20]
 8001590:	00db      	lsls	r3, r3, #3
 8001592:	4927      	ldr	r1, [pc, #156]	@ (8001630 <HAL_RCC_OscConfig+0x26c>)
 8001594:	4313      	orrs	r3, r2
 8001596:	600b      	str	r3, [r1, #0]
 8001598:	e015      	b.n	80015c6 <HAL_RCC_OscConfig+0x202>
      }
      else
      {
        /* Disable the Internal High Speed oscillator (HSI). */
        __HAL_RCC_HSI_DISABLE();
 800159a:	4b26      	ldr	r3, [pc, #152]	@ (8001634 <HAL_RCC_OscConfig+0x270>)
 800159c:	2200      	movs	r2, #0
 800159e:	601a      	str	r2, [r3, #0]

        /* Get Start Tick */
        tickstart = HAL_GetTick();
 80015a0:	f7ff fb6c 	bl	8000c7c <HAL_GetTick>
 80015a4:	6138      	str	r0, [r7, #16]

        /* Wait till HSI is disabled */
        while (__HAL_RCC_GET_FLAG(RCC_FLAG_HSIRDY) != RESET)
 80015a6:	e008      	b.n	80015ba <HAL_RCC_OscConfig+0x1f6>
        {
          if ((HAL_GetTick() - tickstart) > HSI_TIMEOUT_VALUE)
 80015a8:	f7ff fb68 	bl	8000c7c <HAL_GetTick>
 80015ac:	4602      	mov	r2, r0
 80015ae:	693b      	ldr	r3, [r7, #16]
 80015b0:	1ad3      	subs	r3, r2, r3
 80015b2:	2b02      	cmp	r3, #2
 80015b4:	d901      	bls.n	80015ba <HAL_RCC_OscConfig+0x1f6>
          {
            return HAL_TIMEOUT;
 80015b6:	2303      	movs	r3, #3
 80015b8:	e180      	b.n	80018bc <HAL_RCC_OscConfig+0x4f8>
        while (__HAL_RCC_GET_FLAG(RCC_FLAG_HSIRDY) != RESET)
 80015ba:	4b1d      	ldr	r3, [pc, #116]	@ (8001630 <HAL_RCC_OscConfig+0x26c>)
 80015bc:	681b      	ldr	r3, [r3, #0]
 80015be:	f003 0302 	and.w	r3, r3, #2
 80015c2:	2b00      	cmp	r3, #0
 80015c4:	d1f0      	bne.n	80015a8 <HAL_RCC_OscConfig+0x1e4>
        }
      }
    }
  }
  /*------------------------------ LSI Configuration -------------------------*/
  if (((RCC_OscInitStruct->OscillatorType) & RCC_OSCILLATORTYPE_LSI) == RCC_OSCILLATORTYPE_LSI)
 80015c6:	687b      	ldr	r3, [r7, #4]
 80015c8:	681b      	ldr	r3, [r3, #0]
 80015ca:	f003 0308 	and.w	r3, r3, #8
 80015ce:	2b00      	cmp	r3, #0
 80015d0:	d03a      	beq.n	8001648 <HAL_RCC_OscConfig+0x284>
  {
    /* Check the parameters */
    assert_param(IS_RCC_LSI(RCC_OscInitStruct->LSIState));

    /* Check the LSI State */
    if (RCC_OscInitStruct->LSIState != RCC_LSI_OFF)
 80015d2:	687b      	ldr	r3, [r7, #4]
 80015d4:	699b      	ldr	r3, [r3, #24]
 80015d6:	2b00      	cmp	r3, #0
 80015d8:	d019      	beq.n	800160e <HAL_RCC_OscConfig+0x24a>
    {
      /* Enable the Internal Low Speed oscillator (LSI). */
      __HAL_RCC_LSI_ENABLE();
 80015da:	4b17      	ldr	r3, [pc, #92]	@ (8001638 <HAL_RCC_OscConfig+0x274>)
 80015dc:	2201      	movs	r2, #1
 80015de:	601a      	str	r2, [r3, #0]

      /* Get Start Tick */
      tickstart = HAL_GetTick();
 80015e0:	f7ff fb4c 	bl	8000c7c <HAL_GetTick>
 80015e4:	6138      	str	r0, [r7, #16]

      /* Wait till LSI is ready */
      while (__HAL_RCC_GET_FLAG(RCC_FLAG_LSIRDY) == RESET)
 80015e6:	e008      	b.n	80015fa <HAL_RCC_OscConfig+0x236>
      {
        if ((HAL_GetTick() - tickstart) > LSI_TIMEOUT_VALUE)
 80015e8:	f7ff fb48 	bl	8000c7c <HAL_GetTick>
 80015ec:	4602      	mov	r2, r0
 80015ee:	693b      	ldr	r3, [r7, #16]
 80015f0:	1ad3      	subs	r3, r2, r3
 80015f2:	2b02      	cmp	r3, #2
 80015f4:	d901      	bls.n	80015fa <HAL_RCC_OscConfig+0x236>
        {
          return HAL_TIMEOUT;
 80015f6:	2303      	movs	r3, #3
 80015f8:	e160      	b.n	80018bc <HAL_RCC_OscConfig+0x4f8>
      while (__HAL_RCC_GET_FLAG(RCC_FLAG_LSIRDY) == RESET)
 80015fa:	4b0d      	ldr	r3, [pc, #52]	@ (8001630 <HAL_RCC_OscConfig+0x26c>)
 80015fc:	6a5b      	ldr	r3, [r3, #36]	@ 0x24
 80015fe:	f003 0302 	and.w	r3, r3, #2
 8001602:	2b00      	cmp	r3, #0
 8001604:	d0f0      	beq.n	80015e8 <HAL_RCC_OscConfig+0x224>
        }
      }
      /*  To have a fully stabilized clock in the specified range, a software delay of 1ms
          should be added.*/
      RCC_Delay(1);
 8001606:	2001      	movs	r0, #1
 8001608:	f000 face 	bl	8001ba8 <RCC_Delay>
 800160c:	e01c      	b.n	8001648 <HAL_RCC_OscConfig+0x284>
    }
    else
    {
      /* Disable the Internal Low Speed oscillator (LSI). */
      __HAL_RCC_LSI_DISABLE();
 800160e:	4b0a      	ldr	r3, [pc, #40]	@ (8001638 <HAL_RCC_OscConfig+0x274>)
 8001610:	2200      	movs	r2, #0
 8001612:	601a      	str	r2, [r3, #0]

      /* Get Start Tick */
      tickstart = HAL_GetTick();
 8001614:	f7ff fb32 	bl	8000c7c <HAL_GetTick>
 8001618:	6138      	str	r0, [r7, #16]

      /* Wait till LSI is disabled */
      while (__HAL_RCC_GET_FLAG(RCC_FLAG_LSIRDY) != RESET)
 800161a:	e00f      	b.n	800163c <HAL_RCC_OscConfig+0x278>
      {
        if ((HAL_GetTick() - tickstart) > LSI_TIMEOUT_VALUE)
 800161c:	f7ff fb2e 	bl	8000c7c <HAL_GetTick>
 8001620:	4602      	mov	r2, r0
 8001622:	693b      	ldr	r3, [r7, #16]
 8001624:	1ad3      	subs	r3, r2, r3
 8001626:	2b02      	cmp	r3, #2
 8001628:	d908      	bls.n	800163c <HAL_RCC_OscConfig+0x278>
        {
          return HAL_TIMEOUT;
 800162a:	2303      	movs	r3, #3
 800162c:	e146      	b.n	80018bc <HAL_RCC_OscConfig+0x4f8>
 800162e:	bf00      	nop
 8001630:	40021000 	.word	0x40021000
 8001634:	42420000 	.word	0x42420000
 8001638:	42420480 	.word	0x42420480
      while (__HAL_RCC_GET_FLAG(RCC_FLAG_LSIRDY) != RESET)
 800163c:	4b92      	ldr	r3, [pc, #584]	@ (8001888 <HAL_RCC_OscConfig+0x4c4>)
 800163e:	6a5b      	ldr	r3, [r3, #36]	@ 0x24
 8001640:	f003 0302 	and.w	r3, r3, #2
 8001644:	2b00      	cmp	r3, #0
 8001646:	d1e9      	bne.n	800161c <HAL_RCC_OscConfig+0x258>
        }
      }
    }
  }
  /*------------------------------ LSE Configuration -------------------------*/
  if (((RCC_OscInitStruct->OscillatorType) & RCC_OSCILLATORTYPE_LSE) == RCC_OSCILLATORTYPE_LSE)
 8001648:	687b      	ldr	r3, [r7, #4]
 800164a:	681b      	ldr	r3, [r3, #0]
 800164c:	f003 0304 	and.w	r3, r3, #4
 8001650:	2b00      	cmp	r3, #0
 8001652:	f000 80a6 	beq.w	80017a2 <HAL_RCC_OscConfig+0x3de>
  {
    FlagStatus       pwrclkchanged = RESET;
 8001656:	2300      	movs	r3, #0
 8001658:	75fb      	strb	r3, [r7, #23]
    /* Check the parameters */
    assert_param(IS_RCC_LSE(RCC_OscInitStruct->LSEState));

    /* Update LSE configuration in Backup Domain control register    */
    /* Requires to enable write access to Backup Domain of necessary */
    if (__HAL_RCC_PWR_IS_CLK_DISABLED())
 800165a:	4b8b      	ldr	r3, [pc, #556]	@ (8001888 <HAL_RCC_OscConfig+0x4c4>)
 800165c:	69db      	ldr	r3, [r3, #28]
 800165e:	f003 5380 	and.w	r3, r3, #268435456	@ 0x10000000
 8001662:	2b00      	cmp	r3, #0
 8001664:	d10d      	bne.n	8001682 <HAL_RCC_OscConfig+0x2be>
    {
      __HAL_RCC_PWR_CLK_ENABLE();
 8001666:	4b88      	ldr	r3, [pc, #544]	@ (8001888 <HAL_RCC_OscConfig+0x4c4>)
 8001668:	69db      	ldr	r3, [r3, #28]
 800166a:	4a87      	ldr	r2, [pc, #540]	@ (8001888 <HAL_RCC_OscConfig+0x4c4>)
 800166c:	f043 5380 	orr.w	r3, r3, #268435456	@ 0x10000000
 8001670:	61d3      	str	r3, [r2, #28]
 8001672:	4b85      	ldr	r3, [pc, #532]	@ (8001888 <HAL_RCC_OscConfig+0x4c4>)
 8001674:	69db      	ldr	r3, [r3, #28]
 8001676:	f003 5380 	and.w	r3, r3, #268435456	@ 0x10000000
 800167a:	60bb      	str	r3, [r7, #8]
 800167c:	68bb      	ldr	r3, [r7, #8]
      pwrclkchanged = SET;
 800167e:	2301      	movs	r3, #1
 8001680:	75fb      	strb	r3, [r7, #23]
    }

    if (HAL_IS_BIT_CLR(PWR->CR, PWR_CR_DBP))
 8001682:	4b82      	ldr	r3, [pc, #520]	@ (800188c <HAL_RCC_OscConfig+0x4c8>)
 8001684:	681b      	ldr	r3, [r3, #0]
 8001686:	f403 7380 	and.w	r3, r3, #256	@ 0x100
 800168a:	2b00      	cmp	r3, #0
 800168c:	d118      	bne.n	80016c0 <HAL_RCC_OscConfig+0x2fc>
    {
      /* Enable write access to Backup domain */
      SET_BIT(PWR->CR, PWR_CR_DBP);
 800168e:	4b7f      	ldr	r3, [pc, #508]	@ (800188c <HAL_RCC_OscConfig+0x4c8>)
 8001690:	681b      	ldr	r3, [r3, #0]
 8001692:	4a7e      	ldr	r2, [pc, #504]	@ (800188c <HAL_RCC_OscConfig+0x4c8>)
 8001694:	f443 7380 	orr.w	r3, r3, #256	@ 0x100
 8001698:	6013      	str	r3, [r2, #0]

      /* Wait for Backup domain Write protection disable */
      tickstart = HAL_GetTick();
 800169a:	f7ff faef 	bl	8000c7c <HAL_GetTick>
 800169e:	6138      	str	r0, [r7, #16]

      while (HAL_IS_BIT_CLR(PWR->CR, PWR_CR_DBP))
 80016a0:	e008      	b.n	80016b4 <HAL_RCC_OscConfig+0x2f0>
      {
        if ((HAL_GetTick() - tickstart) > RCC_DBP_TIMEOUT_VALUE)
 80016a2:	f7ff faeb 	bl	8000c7c <HAL_GetTick>
 80016a6:	4602      	mov	r2, r0
 80016a8:	693b      	ldr	r3, [r7, #16]
 80016aa:	1ad3      	subs	r3, r2, r3
 80016ac:	2b64      	cmp	r3, #100	@ 0x64
 80016ae:	d901      	bls.n	80016b4 <HAL_RCC_OscConfig+0x2f0>
        {
          return HAL_TIMEOUT;
 80016b0:	2303      	movs	r3, #3
 80016b2:	e103      	b.n	80018bc <HAL_RCC_OscConfig+0x4f8>
      while (HAL_IS_BIT_CLR(PWR->CR, PWR_CR_DBP))
 80016b4:	4b75      	ldr	r3, [pc, #468]	@ (800188c <HAL_RCC_OscConfig+0x4c8>)
 80016b6:	681b      	ldr	r3, [r3, #0]
 80016b8:	f403 7380 	and.w	r3, r3, #256	@ 0x100
 80016bc:	2b00      	cmp	r3, #0
 80016be:	d0f0      	beq.n	80016a2 <HAL_RCC_OscConfig+0x2de>
        }
      }
    }

    /* Set the new LSE configuration -----------------------------------------*/
    __HAL_RCC_LSE_CONFIG(RCC_OscInitStruct->LSEState);
 80016c0:	687b      	ldr	r3, [r7, #4]
 80016c2:	68db      	ldr	r3, [r3, #12]
 80016c4:	2b01      	cmp	r3, #1
 80016c6:	d106      	bne.n	80016d6 <HAL_RCC_OscConfig+0x312>
 80016c8:	4b6f      	ldr	r3, [pc, #444]	@ (8001888 <HAL_RCC_OscConfig+0x4c4>)
 80016ca:	6a1b      	ldr	r3, [r3, #32]
 80016cc:	4a6e      	ldr	r2, [pc, #440]	@ (8001888 <HAL_RCC_OscConfig+0x4c4>)
 80016ce:	f043 0301 	orr.w	r3, r3, #1
 80016d2:	6213      	str	r3, [r2, #32]
 80016d4:	e02d      	b.n	8001732 <HAL_RCC_OscConfig+0x36e>
 80016d6:	687b      	ldr	r3, [r7, #4]
 80016d8:	68db      	ldr	r3, [r3, #12]
 80016da:	2b00      	cmp	r3, #0
 80016dc:	d10c      	bne.n	80016f8 <HAL_RCC_OscConfig+0x334>
 80016de:	4b6a      	ldr	r3, [pc, #424]	@ (8001888 <HAL_RCC_OscConfig+0x4c4>)
 80016e0:	6a1b      	ldr	r3, [r3, #32]
 80016e2:	4a69      	ldr	r2, [pc, #420]	@ (8001888 <HAL_RCC_OscConfig+0x4c4>)
 80016e4:	f023 0301 	bic.w	r3, r3, #1
 80016e8:	6213      	str	r3, [r2, #32]
 80016ea:	4b67      	ldr	r3, [pc, #412]	@ (8001888 <HAL_RCC_OscConfig+0x4c4>)
 80016ec:	6a1b      	ldr	r3, [r3, #32]
 80016ee:	4a66      	ldr	r2, [pc, #408]	@ (8001888 <HAL_RCC_OscConfig+0x4c4>)
 80016f0:	f023 0304 	bic.w	r3, r3, #4
 80016f4:	6213      	str	r3, [r2, #32]
 80016f6:	e01c      	b.n	8001732 <HAL_RCC_OscConfig+0x36e>
 80016f8:	687b      	ldr	r3, [r7, #4]
 80016fa:	68db      	ldr	r3, [r3, #12]
 80016fc:	2b05      	cmp	r3, #5
 80016fe:	d10c      	bne.n	800171a <HAL_RCC_OscConfig+0x356>
 8001700:	4b61      	ldr	r3, [pc, #388]	@ (8001888 <HAL_RCC_OscConfig+0x4c4>)
 8001702:	6a1b      	ldr	r3, [r3, #32]
 8001704:	4a60      	ldr	r2, [pc, #384]	@ (8001888 <HAL_RCC_OscConfig+0x4c4>)
 8001706:	f043 0304 	orr.w	r3, r3, #4
 800170a:	6213      	str	r3, [r2, #32]
 800170c:	4b5e      	ldr	r3, [pc, #376]	@ (8001888 <HAL_RCC_OscConfig+0x4c4>)
 800170e:	6a1b      	ldr	r3, [r3, #32]
 8001710:	4a5d      	ldr	r2, [pc, #372]	@ (8001888 <HAL_RCC_OscConfig+0x4c4>)
 8001712:	f043 0301 	orr.w	r3, r3, #1
 8001716:	6213      	str	r3, [r2, #32]
 8001718:	e00b      	b.n	8001732 <HAL_RCC_OscConfig+0x36e>
 800171a:	4b5b      	ldr	r3, [pc, #364]	@ (8001888 <HAL_RCC_OscConfig+0x4c4>)
 800171c:	6a1b      	ldr	r3, [r3, #32]
 800171e:	4a5a      	ldr	r2, [pc, #360]	@ (8001888 <HAL_RCC_OscConfig+0x4c4>)
 8001720:	f023 0301 	bic.w	r3, r3, #1
 8001724:	6213      	str	r3, [r2, #32]
 8001726:	4b58      	ldr	r3, [pc, #352]	@ (8001888 <HAL_RCC_OscConfig+0x4c4>)
 8001728:	6a1b      	ldr	r3, [r3, #32]
 800172a:	4a57      	ldr	r2, [pc, #348]	@ (8001888 <HAL_RCC_OscConfig+0x4c4>)
 800172c:	f023 0304 	bic.w	r3, r3, #4
 8001730:	6213      	str	r3, [r2, #32]
    /* Check the LSE State */
    if (RCC_OscInitStruct->LSEState != RCC_LSE_OFF)
 8001732:	687b      	ldr	r3, [r7, #4]
 8001734:	68db      	ldr	r3, [r3, #12]
 8001736:	2b00      	cmp	r3, #0
 8001738:	d015      	beq.n	8001766 <HAL_RCC_OscConfig+0x3a2>
    {
      /* Get Start Tick */
      tickstart = HAL_GetTick();
 800173a:	f7ff fa9f 	bl	8000c7c <HAL_GetTick>
 800173e:	6138      	str	r0, [r7, #16]

      /* Wait till LSE is ready */
      while (__HAL_RCC_GET_FLAG(RCC_FLAG_LSERDY) == RESET)
 8001740:	e00a      	b.n	8001758 <HAL_RCC_OscConfig+0x394>
      {
        if ((HAL_GetTick() - tickstart) > RCC_LSE_TIMEOUT_VALUE)
 8001742:	f7ff fa9b 	bl	8000c7c <HAL_GetTick>
 8001746:	4602      	mov	r2, r0
 8001748:	693b      	ldr	r3, [r7, #16]
 800174a:	1ad3      	subs	r3, r2, r3
 800174c:	f241 3288 	movw	r2, #5000	@ 0x1388
 8001750:	4293      	cmp	r3, r2
 8001752:	d901      	bls.n	8001758 <HAL_RCC_OscConfig+0x394>
        {
          return HAL_TIMEOUT;
 8001754:	2303      	movs	r3, #3
 8001756:	e0b1      	b.n	80018bc <HAL_RCC_OscConfig+0x4f8>
      while (__HAL_RCC_GET_FLAG(RCC_FLAG_LSERDY) == RESET)
 8001758:	4b4b      	ldr	r3, [pc, #300]	@ (8001888 <HAL_RCC_OscConfig+0x4c4>)
 800175a:	6a1b      	ldr	r3, [r3, #32]
 800175c:	f003 0302 	and.w	r3, r3, #2
 8001760:	2b00      	cmp	r3, #0
 8001762:	d0ee      	beq.n	8001742 <HAL_RCC_OscConfig+0x37e>
 8001764:	e014      	b.n	8001790 <HAL_RCC_OscConfig+0x3cc>
      }
    }
    else
    {
      /* Get Start Tick */
      tickstart = HAL_GetTick();
 8001766:	f7ff fa89 	bl	8000c7c <HAL_GetTick>
 800176a:	6138      	str	r0, [r7, #16]

      /* Wait till LSE is disabled */
      while (__HAL_RCC_GET_FLAG(RCC_FLAG_LSERDY) != RESET)
 800176c:	e00a      	b.n	8001784 <HAL_RCC_OscConfig+0x3c0>
      {
        if ((HAL_GetTick() - tickstart) > RCC_LSE_TIMEOUT_VALUE)
 800176e:	f7ff fa85 	bl	8000c7c <HAL_GetTick>
 8001772:	4602      	mov	r2, r0
 8001774:	693b      	ldr	r3, [r7, #16]
 8001776:	1ad3      	subs	r3, r2, r3
 8001778:	f241 3288 	movw	r2, #5000	@ 0x1388
 800177c:	4293      	cmp	r3, r2
 800177e:	d901      	bls.n	8001784 <HAL_RCC_OscConfig+0x3c0>
        {
          return HAL_TIMEOUT;
 8001780:	2303      	movs	r3, #3
 8001782:	e09b      	b.n	80018bc <HAL_RCC_OscConfig+0x4f8>
      while (__HAL_RCC_GET_FLAG(RCC_FLAG_LSERDY) != RESET)
 8001784:	4b40      	ldr	r3, [pc, #256]	@ (8001888 <HAL_RCC_OscConfig+0x4c4>)
 8001786:	6a1b      	ldr	r3, [r3, #32]
 8001788:	f003 0302 	and.w	r3, r3, #2
 800178c:	2b00      	cmp	r3, #0
 800178e:	d1ee      	bne.n	800176e <HAL_RCC_OscConfig+0x3aa>
        }
      }
    }

    /* Require to disable power clock if necessary */
    if (pwrclkchanged == SET)
 8001790:	7dfb      	ldrb	r3, [r7, #23]
 8001792:	2b01      	cmp	r3, #1
 8001794:	d105      	bne.n	80017a2 <HAL_RCC_OscConfig+0x3de>
    {
      __HAL_RCC_PWR_CLK_DISABLE();
 8001796:	4b3c      	ldr	r3, [pc, #240]	@ (8001888 <HAL_RCC_OscConfig+0x4c4>)
 8001798:	69db      	ldr	r3, [r3, #28]
 800179a:	4a3b      	ldr	r2, [pc, #236]	@ (8001888 <HAL_RCC_OscConfig+0x4c4>)
 800179c:	f023 5380 	bic.w	r3, r3, #268435456	@ 0x10000000
 80017a0:	61d3      	str	r3, [r2, #28]

#endif /* RCC_CR_PLL2ON */
  /*-------------------------------- PLL Configuration -----------------------*/
  /* Check the parameters */
  assert_param(IS_RCC_PLL(RCC_OscInitStruct->PLL.PLLState));
  if ((RCC_OscInitStruct->PLL.PLLState) != RCC_PLL_NONE)
 80017a2:	687b      	ldr	r3, [r7, #4]
 80017a4:	69db      	ldr	r3, [r3, #28]
 80017a6:	2b00      	cmp	r3, #0
 80017a8:	f000 8087 	beq.w	80018ba <HAL_RCC_OscConfig+0x4f6>
  {
    /* Check if the PLL is used as system clock or not */
    if (__HAL_RCC_GET_SYSCLK_SOURCE() != RCC_SYSCLKSOURCE_STATUS_PLLCLK)
 80017ac:	4b36      	ldr	r3, [pc, #216]	@ (8001888 <HAL_RCC_OscConfig+0x4c4>)
 80017ae:	685b      	ldr	r3, [r3, #4]
 80017b0:	f003 030c 	and.w	r3, r3, #12
 80017b4:	2b08      	cmp	r3, #8
 80017b6:	d061      	beq.n	800187c <HAL_RCC_OscConfig+0x4b8>
    {
      if ((RCC_OscInitStruct->PLL.PLLState) == RCC_PLL_ON)
 80017b8:	687b      	ldr	r3, [r7, #4]
 80017ba:	69db      	ldr	r3, [r3, #28]
 80017bc:	2b02      	cmp	r3, #2
 80017be:	d146      	bne.n	800184e <HAL_RCC_OscConfig+0x48a>
        /* Check the parameters */
        assert_param(IS_RCC_PLLSOURCE(RCC_OscInitStruct->PLL.PLLSource));
        assert_param(IS_RCC_PLL_MUL(RCC_OscInitStruct->PLL.PLLMUL));

        /* Disable the main PLL. */
        __HAL_RCC_PLL_DISABLE();
 80017c0:	4b33      	ldr	r3, [pc, #204]	@ (8001890 <HAL_RCC_OscConfig+0x4cc>)
 80017c2:	2200      	movs	r2, #0
 80017c4:	601a      	str	r2, [r3, #0]

        /* Get Start Tick */
        tickstart = HAL_GetTick();
 80017c6:	f7ff fa59 	bl	8000c7c <HAL_GetTick>
 80017ca:	6138      	str	r0, [r7, #16]

        /* Wait till PLL is disabled */
        while (__HAL_RCC_GET_FLAG(RCC_FLAG_PLLRDY)  != RESET)
 80017cc:	e008      	b.n	80017e0 <HAL_RCC_OscConfig+0x41c>
        {
          if ((HAL_GetTick() - tickstart) > PLL_TIMEOUT_VALUE)
 80017ce:	f7ff fa55 	bl	8000c7c <HAL_GetTick>
 80017d2:	4602      	mov	r2, r0
 80017d4:	693b      	ldr	r3, [r7, #16]
 80017d6:	1ad3      	subs	r3, r2, r3
 80017d8:	2b02      	cmp	r3, #2
 80017da:	d901      	bls.n	80017e0 <HAL_RCC_OscConfig+0x41c>
          {
            return HAL_TIMEOUT;
 80017dc:	2303      	movs	r3, #3
 80017de:	e06d      	b.n	80018bc <HAL_RCC_OscConfig+0x4f8>
        while (__HAL_RCC_GET_FLAG(RCC_FLAG_PLLRDY)  != RESET)
 80017e0:	4b29      	ldr	r3, [pc, #164]	@ (8001888 <HAL_RCC_OscConfig+0x4c4>)
 80017e2:	681b      	ldr	r3, [r3, #0]
 80017e4:	f003 7300 	and.w	r3, r3, #33554432	@ 0x2000000
 80017e8:	2b00      	cmp	r3, #0
 80017ea:	d1f0      	bne.n	80017ce <HAL_RCC_OscConfig+0x40a>
          }
        }

        /* Configure the HSE prediv factor --------------------------------*/
        /* It can be written only when the PLL is disabled. Not used in PLL source is different than HSE */
        if (RCC_OscInitStruct->PLL.PLLSource == RCC_PLLSOURCE_HSE)
 80017ec:	687b      	ldr	r3, [r7, #4]
 80017ee:	6a1b      	ldr	r3, [r3, #32]
 80017f0:	f5b3 3f80 	cmp.w	r3, #65536	@ 0x10000
 80017f4:	d108      	bne.n	8001808 <HAL_RCC_OscConfig+0x444>
          /* Set PREDIV1 source */
          SET_BIT(RCC->CFGR2, RCC_OscInitStruct->Prediv1Source);
#endif /* RCC_CFGR2_PREDIV1SRC */

          /* Set PREDIV1 Value */
          __HAL_RCC_HSE_PREDIV_CONFIG(RCC_OscInitStruct->HSEPredivValue);
 80017f6:	4b24      	ldr	r3, [pc, #144]	@ (8001888 <HAL_RCC_OscConfig+0x4c4>)
 80017f8:	685b      	ldr	r3, [r3, #4]
 80017fa:	f423 3200 	bic.w	r2, r3, #131072	@ 0x20000
 80017fe:	687b      	ldr	r3, [r7, #4]
 8001800:	689b      	ldr	r3, [r3, #8]
 8001802:	4921      	ldr	r1, [pc, #132]	@ (8001888 <HAL_RCC_OscConfig+0x4c4>)
 8001804:	4313      	orrs	r3, r2
 8001806:	604b      	str	r3, [r1, #4]
        }

        /* Configure the main PLL clock source and multiplication factors. */
        __HAL_RCC_PLL_CONFIG(RCC_OscInitStruct->PLL.PLLSource,
 8001808:	4b1f      	ldr	r3, [pc, #124]	@ (8001888 <HAL_RCC_OscConfig+0x4c4>)
 800180a:	685b      	ldr	r3, [r3, #4]
 800180c:	f423 1274 	bic.w	r2, r3, #3997696	@ 0x3d0000
 8001810:	687b      	ldr	r3, [r7, #4]
 8001812:	6a19      	ldr	r1, [r3, #32]
 8001814:	687b      	ldr	r3, [r7, #4]
 8001816:	6a5b      	ldr	r3, [r3, #36]	@ 0x24
 8001818:	430b      	orrs	r3, r1
 800181a:	491b      	ldr	r1, [pc, #108]	@ (8001888 <HAL_RCC_OscConfig+0x4c4>)
 800181c:	4313      	orrs	r3, r2
 800181e:	604b      	str	r3, [r1, #4]
                             RCC_OscInitStruct->PLL.PLLMUL);
        /* Enable the main PLL. */
        __HAL_RCC_PLL_ENABLE();
 8001820:	4b1b      	ldr	r3, [pc, #108]	@ (8001890 <HAL_RCC_OscConfig+0x4cc>)
 8001822:	2201      	movs	r2, #1
 8001824:	601a      	str	r2, [r3, #0]

        /* Get Start Tick */
        tickstart = HAL_GetTick();
 8001826:	f7ff fa29 	bl	8000c7c <HAL_GetTick>
 800182a:	6138      	str	r0, [r7, #16]

        /* Wait till PLL is ready */
        while (__HAL_RCC_GET_FLAG(RCC_FLAG_PLLRDY)  == RESET)
 800182c:	e008      	b.n	8001840 <HAL_RCC_OscConfig+0x47c>
        {
          if ((HAL_GetTick() - tickstart) > PLL_TIMEOUT_VALUE)
 800182e:	f7ff fa25 	bl	8000c7c <HAL_GetTick>
 8001832:	4602      	mov	r2, r0
 8001834:	693b      	ldr	r3, [r7, #16]
 8001836:	1ad3      	subs	r3, r2, r3
 8001838:	2b02      	cmp	r3, #2
 800183a:	d901      	bls.n	8001840 <HAL_RCC_OscConfig+0x47c>
          {
            return HAL_TIMEOUT;
 800183c:	2303      	movs	r3, #3
 800183e:	e03d      	b.n	80018bc <HAL_RCC_OscConfig+0x4f8>
        while (__HAL_RCC_GET_FLAG(RCC_FLAG_PLLRDY)  == RESET)
 8001840:	4b11      	ldr	r3, [pc, #68]	@ (8001888 <HAL_RCC_OscConfig+0x4c4>)
 8001842:	681b      	ldr	r3, [r3, #0]
 8001844:	f003 7300 	and.w	r3, r3, #33554432	@ 0x2000000
 8001848:	2b00      	cmp	r3, #0
 800184a:	d0f0      	beq.n	800182e <HAL_RCC_OscConfig+0x46a>
 800184c:	e035      	b.n	80018ba <HAL_RCC_OscConfig+0x4f6>
        }
      }
      else
      {
        /* Disable the main PLL. */
        __HAL_RCC_PLL_DISABLE();
 800184e:	4b10      	ldr	r3, [pc, #64]	@ (8001890 <HAL_RCC_OscConfig+0x4cc>)
 8001850:	2200      	movs	r2, #0
 8001852:	601a      	str	r2, [r3, #0]

        /* Get Start Tick */
        tickstart = HAL_GetTick();
 8001854:	f7ff fa12 	bl	8000c7c <HAL_GetTick>
 8001858:	6138      	str	r0, [r7, #16]

        /* Wait till PLL is disabled */
        while (__HAL_RCC_GET_FLAG(RCC_FLAG_PLLRDY)  != RESET)
 800185a:	e008      	b.n	800186e <HAL_RCC_OscConfig+0x4aa>
        {
          if ((HAL_GetTick() - tickstart) > PLL_TIMEOUT_VALUE)
 800185c:	f7ff fa0e 	bl	8000c7c <HAL_GetTick>
 8001860:	4602      	mov	r2, r0
 8001862:	693b      	ldr	r3, [r7, #16]
 8001864:	1ad3      	subs	r3, r2, r3
 8001866:	2b02      	cmp	r3, #2
 8001868:	d901      	bls.n	800186e <HAL_RCC_OscConfig+0x4aa>
          {
            return HAL_TIMEOUT;
 800186a:	2303      	movs	r3, #3
 800186c:	e026      	b.n	80018bc <HAL_RCC_OscConfig+0x4f8>
        while (__HAL_RCC_GET_FLAG(RCC_FLAG_PLLRDY)  != RESET)
 800186e:	4b06      	ldr	r3, [pc, #24]	@ (8001888 <HAL_RCC_OscConfig+0x4c4>)
 8001870:	681b      	ldr	r3, [r3, #0]
 8001872:	f003 7300 	and.w	r3, r3, #33554432	@ 0x2000000
 8001876:	2b00      	cmp	r3, #0
 8001878:	d1f0      	bne.n	800185c <HAL_RCC_OscConfig+0x498>
 800187a:	e01e      	b.n	80018ba <HAL_RCC_OscConfig+0x4f6>
      }
    }
    else
    {
      /* Check if there is a request to disable the PLL used as System clock source */
      if ((RCC_OscInitStruct->PLL.PLLState) == RCC_PLL_OFF)
 800187c:	687b      	ldr	r3, [r7, #4]
 800187e:	69db      	ldr	r3, [r3, #28]
 8001880:	2b01      	cmp	r3, #1
 8001882:	d107      	bne.n	8001894 <HAL_RCC_OscConfig+0x4d0>
      {
        return HAL_ERROR;
 8001884:	2301      	movs	r3, #1
 8001886:	e019      	b.n	80018bc <HAL_RCC_OscConfig+0x4f8>
 8001888:	40021000 	.word	0x40021000
 800188c:	40007000 	.word	0x40007000
 8001890:	42420060 	.word	0x42420060
      }
      else
      {
        /* Do not return HAL_ERROR if request repeats the current configuration */
        pll_config = RCC->CFGR;
 8001894:	4b0b      	ldr	r3, [pc, #44]	@ (80018c4 <HAL_RCC_OscConfig+0x500>)
 8001896:	685b      	ldr	r3, [r3, #4]
 8001898:	60fb      	str	r3, [r7, #12]
        if ((READ_BIT(pll_config, RCC_CFGR_PLLSRC) != RCC_OscInitStruct->PLL.PLLSource) ||
 800189a:	68fb      	ldr	r3, [r7, #12]
 800189c:	f403 3280 	and.w	r2, r3, #65536	@ 0x10000
 80018a0:	687b      	ldr	r3, [r7, #4]
 80018a2:	6a1b      	ldr	r3, [r3, #32]
 80018a4:	429a      	cmp	r2, r3
 80018a6:	d106      	bne.n	80018b6 <HAL_RCC_OscConfig+0x4f2>
            (READ_BIT(pll_config, RCC_CFGR_PLLMULL) != RCC_OscInitStruct->PLL.PLLMUL))
 80018a8:	68fb      	ldr	r3, [r7, #12]
 80018aa:	f403 1270 	and.w	r2, r3, #3932160	@ 0x3c0000
 80018ae:	687b      	ldr	r3, [r7, #4]
 80018b0:	6a5b      	ldr	r3, [r3, #36]	@ 0x24
        if ((READ_BIT(pll_config, RCC_CFGR_PLLSRC) != RCC_OscInitStruct->PLL.PLLSource) ||
 80018b2:	429a      	cmp	r2, r3
 80018b4:	d001      	beq.n	80018ba <HAL_RCC_OscConfig+0x4f6>
        {
          return HAL_ERROR;
 80018b6:	2301      	movs	r3, #1
 80018b8:	e000      	b.n	80018bc <HAL_RCC_OscConfig+0x4f8>
        }
      }
    }
  }

  return HAL_OK;
 80018ba:	2300      	movs	r3, #0
}
 80018bc:	4618      	mov	r0, r3
 80018be:	3718      	adds	r7, #24
 80018c0:	46bd      	mov	sp, r7
 80018c2:	bd80      	pop	{r7, pc}
 80018c4:	40021000 	.word	0x40021000

080018c8 <HAL_RCC_ClockConfig>:
  *         You can use @ref HAL_RCC_GetClockConfig() function to know which clock is
  *         currently used as system clock source.
  * @retval HAL status
  */
HAL_StatusTypeDef HAL_RCC_ClockConfig(RCC_ClkInitTypeDef  *RCC_ClkInitStruct, uint32_t FLatency)
{
 80018c8:	b580      	push	{r7, lr}
 80018ca:	b084      	sub	sp, #16
 80018cc:	af00      	add	r7, sp, #0
 80018ce:	6078      	str	r0, [r7, #4]
 80018d0:	6039      	str	r1, [r7, #0]
  uint32_t tickstart;

  /* Check Null pointer */
  if (RCC_ClkInitStruct == NULL)
 80018d2:	687b      	ldr	r3, [r7, #4]
 80018d4:	2b00      	cmp	r3, #0
 80018d6:	d101      	bne.n	80018dc <HAL_RCC_ClockConfig+0x14>
  {
    return HAL_ERROR;
 80018d8:	2301      	movs	r3, #1
 80018da:	e0d0      	b.n	8001a7e <HAL_RCC_ClockConfig+0x1b6>
  must be correctly programmed according to the frequency of the CPU clock
    (HCLK) of the device. */

#if defined(FLASH_ACR_LATENCY)
  /* Increasing the number of wait states because of higher CPU frequency */
  if (FLatency > __HAL_FLASH_GET_LATENCY())
 80018dc:	4b6a      	ldr	r3, [pc, #424]	@ (8001a88 <HAL_RCC_ClockConfig+0x1c0>)
 80018de:	681b      	ldr	r3, [r3, #0]
 80018e0:	f003 0307 	and.w	r3, r3, #7
 80018e4:	683a      	ldr	r2, [r7, #0]
 80018e6:	429a      	cmp	r2, r3
 80018e8:	d910      	bls.n	800190c <HAL_RCC_ClockConfig+0x44>
  {
    /* Program the new number of wait states to the LATENCY bits in the FLASH_ACR register */
    __HAL_FLASH_SET_LATENCY(FLatency);
 80018ea:	4b67      	ldr	r3, [pc, #412]	@ (8001a88 <HAL_RCC_ClockConfig+0x1c0>)
 80018ec:	681b      	ldr	r3, [r3, #0]
 80018ee:	f023 0207 	bic.w	r2, r3, #7
 80018f2:	4965      	ldr	r1, [pc, #404]	@ (8001a88 <HAL_RCC_ClockConfig+0x1c0>)
 80018f4:	683b      	ldr	r3, [r7, #0]
 80018f6:	4313      	orrs	r3, r2
 80018f8:	600b      	str	r3, [r1, #0]

    /* Check that the new number of wait states is taken into account to access the Flash
    memory by reading the FLASH_ACR register */
    if (__HAL_FLASH_GET_LATENCY() != FLatency)
 80018fa:	4b63      	ldr	r3, [pc, #396]	@ (8001a88 <HAL_RCC_ClockConfig+0x1c0>)
 80018fc:	681b      	ldr	r3, [r3, #0]
 80018fe:	f003 0307 	and.w	r3, r3, #7
 8001902:	683a      	ldr	r2, [r7, #0]
 8001904:	429a      	cmp	r2, r3
 8001906:	d001      	beq.n	800190c <HAL_RCC_ClockConfig+0x44>
  {
    return HAL_ERROR;
 8001908:	2301      	movs	r3, #1
 800190a:	e0b8      	b.n	8001a7e <HAL_RCC_ClockConfig+0x1b6>
  }
}

#endif /* FLASH_ACR_LATENCY */
/*-------------------------- HCLK Configuration --------------------------*/
if (((RCC_ClkInitStruct->ClockType) & RCC_CLOCKTYPE_HCLK) == RCC_CLOCKTYPE_HCLK)
 800190c:	687b      	ldr	r3, [r7, #4]
 800190e:	681b      	ldr	r3, [r3, #0]
 8001910:	f003 0302 	and.w	r3, r3, #2
 8001914:	2b00      	cmp	r3, #0
 8001916:	d020      	beq.n	800195a <HAL_RCC_ClockConfig+0x92>
  {
    /* Set the highest APBx dividers in order to ensure that we do not go through
    a non-spec phase whatever we decrease or increase HCLK. */
    if (((RCC_ClkInitStruct->ClockType) & RCC_CLOCKTYPE_PCLK1) == RCC_CLOCKTYPE_PCLK1)
 8001918:	687b      	ldr	r3, [r7, #4]
 800191a:	681b      	ldr	r3, [r3, #0]
 800191c:	f003 0304 	and.w	r3, r3, #4
 8001920:	2b00      	cmp	r3, #0
 8001922:	d005      	beq.n	8001930 <HAL_RCC_ClockConfig+0x68>
    {
      MODIFY_REG(RCC->CFGR, RCC_CFGR_PPRE1, RCC_HCLK_DIV16);
 8001924:	4b59      	ldr	r3, [pc, #356]	@ (8001a8c <HAL_RCC_ClockConfig+0x1c4>)
 8001926:	685b      	ldr	r3, [r3, #4]
 8001928:	4a58      	ldr	r2, [pc, #352]	@ (8001a8c <HAL_RCC_ClockConfig+0x1c4>)
 800192a:	f443 63e0 	orr.w	r3, r3, #1792	@ 0x700
 800192e:	6053      	str	r3, [r2, #4]
    }

    if (((RCC_ClkInitStruct->ClockType) & RCC_CLOCKTYPE_PCLK2) == RCC_CLOCKTYPE_PCLK2)
 8001930:	687b      	ldr	r3, [r7, #4]
 8001932:	681b      	ldr	r3, [r3, #0]
 8001934:	f003 0308 	and.w	r3, r3, #8
 8001938:	2b00      	cmp	r3, #0
 800193a:	d005      	beq.n	8001948 <HAL_RCC_ClockConfig+0x80>
    {
      MODIFY_REG(RCC->CFGR, RCC_CFGR_PPRE2, (RCC_HCLK_DIV16 << 3));
 800193c:	4b53      	ldr	r3, [pc, #332]	@ (8001a8c <HAL_RCC_ClockConfig+0x1c4>)
 800193e:	685b      	ldr	r3, [r3, #4]
 8001940:	4a52      	ldr	r2, [pc, #328]	@ (8001a8c <HAL_RCC_ClockConfig+0x1c4>)
 8001942:	f443 5360 	orr.w	r3, r3, #14336	@ 0x3800
 8001946:	6053      	str	r3, [r2, #4]
    }

    /* Set the new HCLK clock divider */
    assert_param(IS_RCC_HCLK(RCC_ClkInitStruct->AHBCLKDivider));
    MODIFY_REG(RCC->CFGR, RCC_CFGR_HPRE, RCC_ClkInitStruct->AHBCLKDivider);
 8001948:	4b50      	ldr	r3, [pc, #320]	@ (8001a8c <HAL_RCC_ClockConfig+0x1c4>)
 800194a:	685b      	ldr	r3, [r3, #4]
 800194c:	f023 02f0 	bic.w	r2, r3, #240	@ 0xf0
 8001950:	687b      	ldr	r3, [r7, #4]
 8001952:	689b      	ldr	r3, [r3, #8]
 8001954:	494d      	ldr	r1, [pc, #308]	@ (8001a8c <HAL_RCC_ClockConfig+0x1c4>)
 8001956:	4313      	orrs	r3, r2
 8001958:	604b      	str	r3, [r1, #4]
  }

  /*------------------------- SYSCLK Configuration ---------------------------*/
  if (((RCC_ClkInitStruct->ClockType) & RCC_CLOCKTYPE_SYSCLK) == RCC_CLOCKTYPE_SYSCLK)
 800195a:	687b      	ldr	r3, [r7, #4]
 800195c:	681b      	ldr	r3, [r3, #0]
 800195e:	f003 0301 	and.w	r3, r3, #1
 8001962:	2b00      	cmp	r3, #0
 8001964:	d040      	beq.n	80019e8 <HAL_RCC_ClockConfig+0x120>
  {
    assert_param(IS_RCC_SYSCLKSOURCE(RCC_ClkInitStruct->SYSCLKSource));

    /* HSE is selected as System Clock Source */
    if (RCC_ClkInitStruct->SYSCLKSource == RCC_SYSCLKSOURCE_HSE)
 8001966:	687b      	ldr	r3, [r7, #4]
 8001968:	685b      	ldr	r3, [r3, #4]
 800196a:	2b01      	cmp	r3, #1
 800196c:	d107      	bne.n	800197e <HAL_RCC_ClockConfig+0xb6>
    {
      /* Check the HSE ready flag */
      if (__HAL_RCC_GET_FLAG(RCC_FLAG_HSERDY) == RESET)
 800196e:	4b47      	ldr	r3, [pc, #284]	@ (8001a8c <HAL_RCC_ClockConfig+0x1c4>)
 8001970:	681b      	ldr	r3, [r3, #0]
 8001972:	f403 3300 	and.w	r3, r3, #131072	@ 0x20000
 8001976:	2b00      	cmp	r3, #0
 8001978:	d115      	bne.n	80019a6 <HAL_RCC_ClockConfig+0xde>
      {
        return HAL_ERROR;
 800197a:	2301      	movs	r3, #1
 800197c:	e07f      	b.n	8001a7e <HAL_RCC_ClockConfig+0x1b6>
      }
    }
    /* PLL is selected as System Clock Source */
    else if (RCC_ClkInitStruct->SYSCLKSource == RCC_SYSCLKSOURCE_PLLCLK)
 800197e:	687b      	ldr	r3, [r7, #4]
 8001980:	685b      	ldr	r3, [r3, #4]
 8001982:	2b02      	cmp	r3, #2
 8001984:	d107      	bne.n	8001996 <HAL_RCC_ClockConfig+0xce>
    {
      /* Check the PLL ready flag */
      if (__HAL_RCC_GET_FLAG(RCC_FLAG_PLLRDY) == RESET)
 8001986:	4b41      	ldr	r3, [pc, #260]	@ (8001a8c <HAL_RCC_ClockConfig+0x1c4>)
 8001988:	681b      	ldr	r3, [r3, #0]
 800198a:	f003 7300 	and.w	r3, r3, #33554432	@ 0x2000000
 800198e:	2b00      	cmp	r3, #0
 8001990:	d109      	bne.n	80019a6 <HAL_RCC_ClockConfig+0xde>
      {
        return HAL_ERROR;
 8001992:	2301      	movs	r3, #1
 8001994:	e073      	b.n	8001a7e <HAL_RCC_ClockConfig+0x1b6>
    }
    /* HSI is selected as System Clock Source */
    else
    {
      /* Check the HSI ready flag */
      if (__HAL_RCC_GET_FLAG(RCC_FLAG_HSIRDY) == RESET)
 8001996:	4b3d      	ldr	r3, [pc, #244]	@ (8001a8c <HAL_RCC_ClockConfig+0x1c4>)
 8001998:	681b      	ldr	r3, [r3, #0]
 800199a:	f003 0302 	and.w	r3, r3, #2
 800199e:	2b00      	cmp	r3, #0
 80019a0:	d101      	bne.n	80019a6 <HAL_RCC_ClockConfig+0xde>
      {
        return HAL_ERROR;
 80019a2:	2301      	movs	r3, #1
 80019a4:	e06b      	b.n	8001a7e <HAL_RCC_ClockConfig+0x1b6>
      }
    }
    __HAL_RCC_SYSCLK_CONFIG(RCC_ClkInitStruct->SYSCLKSource);
 80019a6:	4b39      	ldr	r3, [pc, #228]	@ (8001a8c <HAL_RCC_ClockConfig+0x1c4>)
 80019a8:	685b      	ldr	r3, [r3, #4]
 80019aa:	f023 0203 	bic.w	r2, r3, #3
 80019ae:	687b      	ldr	r3, [r7, #4]
 80019b0:	685b      	ldr	r3, [r3, #4]
 80019b2:	4936      	ldr	r1, [pc, #216]	@ (8001a8c <HAL_RCC_ClockConfig+0x1c4>)
 80019b4:	4313      	orrs	r3, r2
 80019b6:	604b      	str	r3, [r1, #4]

    /* Get Start Tick */
    tickstart = HAL_GetTick();
 80019b8:	f7ff f960 	bl	8000c7c <HAL_GetTick>
 80019bc:	60f8      	str	r0, [r7, #12]

    while (__HAL_RCC_GET_SYSCLK_SOURCE() != (RCC_ClkInitStruct->SYSCLKSource << RCC_CFGR_SWS_Pos))
 80019be:	e00a      	b.n	80019d6 <HAL_RCC_ClockConfig+0x10e>
    {
      if ((HAL_GetTick() - tickstart) > CLOCKSWITCH_TIMEOUT_VALUE)
 80019c0:	f7ff f95c 	bl	8000c7c <HAL_GetTick>
 80019c4:	4602      	mov	r2, r0
 80019c6:	68fb      	ldr	r3, [r7, #12]
 80019c8:	1ad3      	subs	r3, r2, r3
 80019ca:	f241 3288 	movw	r2, #5000	@ 0x1388
 80019ce:	4293      	cmp	r3, r2
 80019d0:	d901      	bls.n	80019d6 <HAL_RCC_ClockConfig+0x10e>
      {
        return HAL_TIMEOUT;
 80019d2:	2303      	movs	r3, #3
 80019d4:	e053      	b.n	8001a7e <HAL_RCC_ClockConfig+0x1b6>
    while (__HAL_RCC_GET_SYSCLK_SOURCE() != (RCC_ClkInitStruct->SYSCLKSource << RCC_CFGR_SWS_Pos))
 80019d6:	4b2d      	ldr	r3, [pc, #180]	@ (8001a8c <HAL_RCC_ClockConfig+0x1c4>)
 80019d8:	685b      	ldr	r3, [r3, #4]
 80019da:	f003 020c 	and.w	r2, r3, #12
 80019de:	687b      	ldr	r3, [r7, #4]
 80019e0:	685b      	ldr	r3, [r3, #4]
 80019e2:	009b      	lsls	r3, r3, #2
 80019e4:	429a      	cmp	r2, r3
 80019e6:	d1eb      	bne.n	80019c0 <HAL_RCC_ClockConfig+0xf8>
    }
  }

#if defined(FLASH_ACR_LATENCY)
  /* Decreasing the number of wait states because of lower CPU frequency */
  if (FLatency < __HAL_FLASH_GET_LATENCY())
 80019e8:	4b27      	ldr	r3, [pc, #156]	@ (8001a88 <HAL_RCC_ClockConfig+0x1c0>)
 80019ea:	681b      	ldr	r3, [r3, #0]
 80019ec:	f003 0307 	and.w	r3, r3, #7
 80019f0:	683a      	ldr	r2, [r7, #0]
 80019f2:	429a      	cmp	r2, r3
 80019f4:	d210      	bcs.n	8001a18 <HAL_RCC_ClockConfig+0x150>
  {
    /* Program the new number of wait states to the LATENCY bits in the FLASH_ACR register */
    __HAL_FLASH_SET_LATENCY(FLatency);
 80019f6:	4b24      	ldr	r3, [pc, #144]	@ (8001a88 <HAL_RCC_ClockConfig+0x1c0>)
 80019f8:	681b      	ldr	r3, [r3, #0]
 80019fa:	f023 0207 	bic.w	r2, r3, #7
 80019fe:	4922      	ldr	r1, [pc, #136]	@ (8001a88 <HAL_RCC_ClockConfig+0x1c0>)
 8001a00:	683b      	ldr	r3, [r7, #0]
 8001a02:	4313      	orrs	r3, r2
 8001a04:	600b      	str	r3, [r1, #0]

    /* Check that the new number of wait states is taken into account to access the Flash
    memory by reading the FLASH_ACR register */
    if (__HAL_FLASH_GET_LATENCY() != FLatency)
 8001a06:	4b20      	ldr	r3, [pc, #128]	@ (8001a88 <HAL_RCC_ClockConfig+0x1c0>)
 8001a08:	681b      	ldr	r3, [r3, #0]
 8001a0a:	f003 0307 	and.w	r3, r3, #7
 8001a0e:	683a      	ldr	r2, [r7, #0]
 8001a10:	429a      	cmp	r2, r3
 8001a12:	d001      	beq.n	8001a18 <HAL_RCC_ClockConfig+0x150>
  {
    return HAL_ERROR;
 8001a14:	2301      	movs	r3, #1
 8001a16:	e032      	b.n	8001a7e <HAL_RCC_ClockConfig+0x1b6>
  }
}
#endif /* FLASH_ACR_LATENCY */

/*-------------------------- PCLK1 Configuration ---------------------------*/
if (((RCC_ClkInitStruct->ClockType) & RCC_CLOCKTYPE_PCLK1) == RCC_CLOCKTYPE_PCLK1)
 8001a18:	687b      	ldr	r3, [r7, #4]
 8001a1a:	681b      	ldr	r3, [r3, #0]
 8001a1c:	f003 0304 	and.w	r3, r3, #4
 8001a20:	2b00      	cmp	r3, #0
 8001a22:	d008      	beq.n	8001a36 <HAL_RCC_ClockConfig+0x16e>
  {
    assert_param(IS_RCC_PCLK(RCC_ClkInitStruct->APB1CLKDivider));
    MODIFY_REG(RCC->CFGR, RCC_CFGR_PPRE1, RCC_ClkInitStruct->APB1CLKDivider);
 8001a24:	4b19      	ldr	r3, [pc, #100]	@ (8001a8c <HAL_RCC_ClockConfig+0x1c4>)
 8001a26:	685b      	ldr	r3, [r3, #4]
 8001a28:	f423 62e0 	bic.w	r2, r3, #1792	@ 0x700
 8001a2c:	687b      	ldr	r3, [r7, #4]
 8001a2e:	68db      	ldr	r3, [r3, #12]
 8001a30:	4916      	ldr	r1, [pc, #88]	@ (8001a8c <HAL_RCC_ClockConfig+0x1c4>)
 8001a32:	4313      	orrs	r3, r2
 8001a34:	604b      	str	r3, [r1, #4]
  }

  /*-------------------------- PCLK2 Configuration ---------------------------*/
  if (((RCC_ClkInitStruct->ClockType) & RCC_CLOCKTYPE_PCLK2) == RCC_CLOCKTYPE_PCLK2)
 8001a36:	687b      	ldr	r3, [r7, #4]
 8001a38:	681b      	ldr	r3, [r3, #0]
 8001a3a:	f003 0308 	and.w	r3, r3, #8
 8001a3e:	2b00      	cmp	r3, #0
 8001a40:	d009      	beq.n	8001a56 <HAL_RCC_ClockConfig+0x18e>
  {
    assert_param(IS_RCC_PCLK(RCC_ClkInitStruct->APB2CLKDivider));
    MODIFY_REG(RCC->CFGR, RCC_CFGR_PPRE2, ((RCC_ClkInitStruct->APB2CLKDivider) << 3));
 8001a42:	4b12      	ldr	r3, [pc, #72]	@ (8001a8c <HAL_RCC_ClockConfig+0x1c4>)
 8001a44:	685b      	ldr	r3, [r3, #4]
 8001a46:	f423 5260 	bic.w	r2, r3, #14336	@ 0x3800
 8001a4a:	687b      	ldr	r3, [r7, #4]
 8001a4c:	691b      	ldr	r3, [r3, #16]
 8001a4e:	00db      	lsls	r3, r3, #3
 8001a50:	490e      	ldr	r1, [pc, #56]	@ (8001a8c <HAL_RCC_ClockConfig+0x1c4>)
 8001a52:	4313      	orrs	r3, r2
 8001a54:	604b      	str	r3, [r1, #4]
  }

  /* Update the SystemCoreClock global variable */
  SystemCoreClock = HAL_RCC_GetSysClockFreq() >> AHBPrescTable[(RCC->CFGR & RCC_CFGR_HPRE) >> RCC_CFGR_HPRE_Pos];
 8001a56:	f000 f821 	bl	8001a9c <HAL_RCC_GetSysClockFreq>
 8001a5a:	4602      	mov	r2, r0
 8001a5c:	4b0b      	ldr	r3, [pc, #44]	@ (8001a8c <HAL_RCC_ClockConfig+0x1c4>)
 8001a5e:	685b      	ldr	r3, [r3, #4]
 8001a60:	091b      	lsrs	r3, r3, #4
 8001a62:	f003 030f 	and.w	r3, r3, #15
 8001a66:	490a      	ldr	r1, [pc, #40]	@ (8001a90 <HAL_RCC_ClockConfig+0x1c8>)
 8001a68:	5ccb      	ldrb	r3, [r1, r3]
 8001a6a:	fa22 f303 	lsr.w	r3, r2, r3
 8001a6e:	4a09      	ldr	r2, [pc, #36]	@ (8001a94 <HAL_RCC_ClockConfig+0x1cc>)
 8001a70:	6013      	str	r3, [r2, #0]

  /* Configure the source of time base considering new system clocks settings*/
  HAL_InitTick(uwTickPrio);
 8001a72:	4b09      	ldr	r3, [pc, #36]	@ (8001a98 <HAL_RCC_ClockConfig+0x1d0>)
 8001a74:	681b      	ldr	r3, [r3, #0]
 8001a76:	4618      	mov	r0, r3
 8001a78:	f7ff f8be 	bl	8000bf8 <HAL_InitTick>

  return HAL_OK;
 8001a7c:	2300      	movs	r3, #0
}
 8001a7e:	4618      	mov	r0, r3
 8001a80:	3710      	adds	r7, #16
 8001a82:	46bd      	mov	sp, r7
 8001a84:	bd80      	pop	{r7, pc}
 8001a86:	bf00      	nop
 8001a88:	40022000 	.word	0x40022000
 8001a8c:	40021000 	.word	0x40021000
 8001a90:	08002774 	.word	0x08002774
 8001a94:	2000010c 	.word	0x2000010c
 8001a98:	20000110 	.word	0x20000110

08001a9c <HAL_RCC_GetSysClockFreq>:
  *         right SYSCLK value. Otherwise, any configuration based on this function will be incorrect.
  *
  * @retval SYSCLK frequency
  */
uint32_t HAL_RCC_GetSysClockFreq(void)
{
 8001a9c:	b480      	push	{r7}
 8001a9e:	b087      	sub	sp, #28
 8001aa0:	af00      	add	r7, sp, #0
#else
  static const uint8_t aPredivFactorTable[2U] = {1, 2};
#endif /*RCC_CFGR2_PREDIV1*/

#endif
  uint32_t tmpreg = 0U, prediv = 0U, pllclk = 0U, pllmul = 0U;
 8001aa2:	2300      	movs	r3, #0
 8001aa4:	60fb      	str	r3, [r7, #12]
 8001aa6:	2300      	movs	r3, #0
 8001aa8:	60bb      	str	r3, [r7, #8]
 8001aaa:	2300      	movs	r3, #0
 8001aac:	617b      	str	r3, [r7, #20]
 8001aae:	2300      	movs	r3, #0
 8001ab0:	607b      	str	r3, [r7, #4]
  uint32_t sysclockfreq = 0U;
 8001ab2:	2300      	movs	r3, #0
 8001ab4:	613b      	str	r3, [r7, #16]
#if defined(RCC_CFGR2_PREDIV1SRC)
  uint32_t prediv2 = 0U, pll2mul = 0U;
#endif /*RCC_CFGR2_PREDIV1SRC*/

  tmpreg = RCC->CFGR;
 8001ab6:	4b1e      	ldr	r3, [pc, #120]	@ (8001b30 <HAL_RCC_GetSysClockFreq+0x94>)
 8001ab8:	685b      	ldr	r3, [r3, #4]
 8001aba:	60fb      	str	r3, [r7, #12]

  /* Get SYSCLK source -------------------------------------------------------*/
  switch (tmpreg & RCC_CFGR_SWS)
 8001abc:	68fb      	ldr	r3, [r7, #12]
 8001abe:	f003 030c 	and.w	r3, r3, #12
 8001ac2:	2b04      	cmp	r3, #4
 8001ac4:	d002      	beq.n	8001acc <HAL_RCC_GetSysClockFreq+0x30>
 8001ac6:	2b08      	cmp	r3, #8
 8001ac8:	d003      	beq.n	8001ad2 <HAL_RCC_GetSysClockFreq+0x36>
 8001aca:	e027      	b.n	8001b1c <HAL_RCC_GetSysClockFreq+0x80>
  {
    case RCC_SYSCLKSOURCE_STATUS_HSE:  /* HSE used as system clock */
    {
      sysclockfreq = HSE_VALUE;
 8001acc:	4b19      	ldr	r3, [pc, #100]	@ (8001b34 <HAL_RCC_GetSysClockFreq+0x98>)
 8001ace:	613b      	str	r3, [r7, #16]
      break;
 8001ad0:	e027      	b.n	8001b22 <HAL_RCC_GetSysClockFreq+0x86>
    }
    case RCC_SYSCLKSOURCE_STATUS_PLLCLK:  /* PLL used as system clock */
    {
      pllmul = aPLLMULFactorTable[(uint32_t)(tmpreg & RCC_CFGR_PLLMULL) >> RCC_CFGR_PLLMULL_Pos];
 8001ad2:	68fb      	ldr	r3, [r7, #12]
 8001ad4:	0c9b      	lsrs	r3, r3, #18
 8001ad6:	f003 030f 	and.w	r3, r3, #15
 8001ada:	4a17      	ldr	r2, [pc, #92]	@ (8001b38 <HAL_RCC_GetSysClockFreq+0x9c>)
 8001adc:	5cd3      	ldrb	r3, [r2, r3]
 8001ade:	607b      	str	r3, [r7, #4]
      if ((tmpreg & RCC_CFGR_PLLSRC) != RCC_PLLSOURCE_HSI_DIV2)
 8001ae0:	68fb      	ldr	r3, [r7, #12]
 8001ae2:	f403 3380 	and.w	r3, r3, #65536	@ 0x10000
 8001ae6:	2b00      	cmp	r3, #0
 8001ae8:	d010      	beq.n	8001b0c <HAL_RCC_GetSysClockFreq+0x70>
      {
#if defined(RCC_CFGR2_PREDIV1)
        prediv = aPredivFactorTable[(uint32_t)(RCC->CFGR2 & RCC_CFGR2_PREDIV1) >> RCC_CFGR2_PREDIV1_Pos];
#else
        prediv = aPredivFactorTable[(uint32_t)(RCC->CFGR & RCC_CFGR_PLLXTPRE) >> RCC_CFGR_PLLXTPRE_Pos];
 8001aea:	4b11      	ldr	r3, [pc, #68]	@ (8001b30 <HAL_RCC_GetSysClockFreq+0x94>)
 8001aec:	685b      	ldr	r3, [r3, #4]
 8001aee:	0c5b      	lsrs	r3, r3, #17
 8001af0:	f003 0301 	and.w	r3, r3, #1
 8001af4:	4a11      	ldr	r2, [pc, #68]	@ (8001b3c <HAL_RCC_GetSysClockFreq+0xa0>)
 8001af6:	5cd3      	ldrb	r3, [r2, r3]
 8001af8:	60bb      	str	r3, [r7, #8]
        {
          pllclk = pllclk / 2;
        }
#else
        /* HSE used as PLL clock source : PLLCLK = HSE/PREDIV1 * PLLMUL */
        pllclk = (uint32_t)((HSE_VALUE  * pllmul) / prediv);
 8001afa:	687b      	ldr	r3, [r7, #4]
 8001afc:	4a0d      	ldr	r2, [pc, #52]	@ (8001b34 <HAL_RCC_GetSysClockFreq+0x98>)
 8001afe:	fb03 f202 	mul.w	r2, r3, r2
 8001b02:	68bb      	ldr	r3, [r7, #8]
 8001b04:	fbb2 f3f3 	udiv	r3, r2, r3
 8001b08:	617b      	str	r3, [r7, #20]
 8001b0a:	e004      	b.n	8001b16 <HAL_RCC_GetSysClockFreq+0x7a>
#endif /*RCC_CFGR2_PREDIV1SRC*/
      }
      else
      {
        /* HSI used as PLL clock source : PLLCLK = HSI/2 * PLLMUL */
        pllclk = (uint32_t)((HSI_VALUE >> 1) * pllmul);
 8001b0c:	687b      	ldr	r3, [r7, #4]
 8001b0e:	4a0c      	ldr	r2, [pc, #48]	@ (8001b40 <HAL_RCC_GetSysClockFreq+0xa4>)
 8001b10:	fb02 f303 	mul.w	r3, r2, r3
 8001b14:	617b      	str	r3, [r7, #20]
      }
      sysclockfreq = pllclk;
 8001b16:	697b      	ldr	r3, [r7, #20]
 8001b18:	613b      	str	r3, [r7, #16]
      break;
 8001b1a:	e002      	b.n	8001b22 <HAL_RCC_GetSysClockFreq+0x86>
    }
    case RCC_SYSCLKSOURCE_STATUS_HSI:  /* HSI used as system clock source */
    default: /* HSI used as system clock */
    {
      sysclockfreq = HSI_VALUE;
 8001b1c:	4b05      	ldr	r3, [pc, #20]	@ (8001b34 <HAL_RCC_GetSysClockFreq+0x98>)
 8001b1e:	613b      	str	r3, [r7, #16]
      break;
 8001b20:	bf00      	nop
    }
  }
  return sysclockfreq;
 8001b22:	693b      	ldr	r3, [r7, #16]
}
 8001b24:	4618      	mov	r0, r3
 8001b26:	371c      	adds	r7, #28
 8001b28:	46bd      	mov	sp, r7
 8001b2a:	bc80      	pop	{r7}
 8001b2c:	4770      	bx	lr
 8001b2e:	bf00      	nop
 8001b30:	40021000 	.word	0x40021000
 8001b34:	007a1200 	.word	0x007a1200
 8001b38:	0800278c 	.word	0x0800278c
 8001b3c:	0800279c 	.word	0x0800279c
 8001b40:	003d0900 	.word	0x003d0900

08001b44 <HAL_RCC_GetHCLKFreq>:
  * @note   The SystemCoreClock CMSIS variable is used to store System Clock Frequency
  *         and updated within this function
  * @retval HCLK frequency
  */
uint32_t HAL_RCC_GetHCLKFreq(void)
{
 8001b44:	b480      	push	{r7}
 8001b46:	af00      	add	r7, sp, #0
  return SystemCoreClock;
 8001b48:	4b02      	ldr	r3, [pc, #8]	@ (8001b54 <HAL_RCC_GetHCLKFreq+0x10>)
 8001b4a:	681b      	ldr	r3, [r3, #0]
}
 8001b4c:	4618      	mov	r0, r3
 8001b4e:	46bd      	mov	sp, r7
 8001b50:	bc80      	pop	{r7}
 8001b52:	4770      	bx	lr
 8001b54:	2000010c 	.word	0x2000010c

08001b58 <HAL_RCC_GetPCLK1Freq>:
  * @note   Each time PCLK1 changes, this function must be called to update the
  *         right PCLK1 value. Otherwise, any configuration based on this function will be incorrect.
  * @retval PCLK1 frequency
  */
uint32_t HAL_RCC_GetPCLK1Freq(void)
{
 8001b58:	b580      	push	{r7, lr}
 8001b5a:	af00      	add	r7, sp, #0
  /* Get HCLK source and Compute PCLK1 frequency ---------------------------*/
  return (HAL_RCC_GetHCLKFreq() >> APBPrescTable[(RCC->CFGR & RCC_CFGR_PPRE1) >> RCC_CFGR_PPRE1_Pos]);
 8001b5c:	f7ff fff2 	bl	8001b44 <HAL_RCC_GetHCLKFreq>
 8001b60:	4602      	mov	r2, r0
 8001b62:	4b05      	ldr	r3, [pc, #20]	@ (8001b78 <HAL_RCC_GetPCLK1Freq+0x20>)
 8001b64:	685b      	ldr	r3, [r3, #4]
 8001b66:	0a1b      	lsrs	r3, r3, #8
 8001b68:	f003 0307 	and.w	r3, r3, #7
 8001b6c:	4903      	ldr	r1, [pc, #12]	@ (8001b7c <HAL_RCC_GetPCLK1Freq+0x24>)
 8001b6e:	5ccb      	ldrb	r3, [r1, r3]
 8001b70:	fa22 f303 	lsr.w	r3, r2, r3
}
 8001b74:	4618      	mov	r0, r3
 8001b76:	bd80      	pop	{r7, pc}
 8001b78:	40021000 	.word	0x40021000
 8001b7c:	08002784 	.word	0x08002784

08001b80 <HAL_RCC_GetPCLK2Freq>:
  * @note   Each time PCLK2 changes, this function must be called to update the
  *         right PCLK2 value. Otherwise, any configuration based on this function will be incorrect.
  * @retval PCLK2 frequency
  */
uint32_t HAL_RCC_GetPCLK2Freq(void)
{
 8001b80:	b580      	push	{r7, lr}
 8001b82:	af00      	add	r7, sp, #0
  /* Get HCLK source and Compute PCLK2 frequency ---------------------------*/
  return (HAL_RCC_GetHCLKFreq() >> APBPrescTable[(RCC->CFGR & RCC_CFGR_PPRE2) >> RCC_CFGR_PPRE2_Pos]);
 8001b84:	f7ff ffde 	bl	8001b44 <HAL_RCC_GetHCLKFreq>
 8001b88:	4602      	mov	r2, r0
 8001b8a:	4b05      	ldr	r3, [pc, #20]	@ (8001ba0 <HAL_RCC_GetPCLK2Freq+0x20>)
 8001b8c:	685b      	ldr	r3, [r3, #4]
 8001b8e:	0adb      	lsrs	r3, r3, #11
 8001b90:	f003 0307 	and.w	r3, r3, #7
 8001b94:	4903      	ldr	r1, [pc, #12]	@ (8001ba4 <HAL_RCC_GetPCLK2Freq+0x24>)
 8001b96:	5ccb      	ldrb	r3, [r1, r3]
 8001b98:	fa22 f303 	lsr.w	r3, r2, r3
}
 8001b9c:	4618      	mov	r0, r3
 8001b9e:	bd80      	pop	{r7, pc}
 8001ba0:	40021000 	.word	0x40021000
 8001ba4:	08002784 	.word	0x08002784

08001ba8 <RCC_Delay>:
  * @brief  This function provides delay (in milliseconds) based on CPU cycles method.
  * @param  mdelay: specifies the delay time length, in milliseconds.
  * @retval None
  */
static void RCC_Delay(uint32_t mdelay)
{
 8001ba8:	b480      	push	{r7}
 8001baa:	b085      	sub	sp, #20
 8001bac:	af00      	add	r7, sp, #0
 8001bae:	6078      	str	r0, [r7, #4]
  __IO uint32_t Delay = mdelay * (SystemCoreClock / 8U / 1000U);
 8001bb0:	4b0a      	ldr	r3, [pc, #40]	@ (8001bdc <RCC_Delay+0x34>)
 8001bb2:	681b      	ldr	r3, [r3, #0]
 8001bb4:	4a0a      	ldr	r2, [pc, #40]	@ (8001be0 <RCC_Delay+0x38>)
 8001bb6:	fba2 2303 	umull	r2, r3, r2, r3
 8001bba:	0a5b      	lsrs	r3, r3, #9
 8001bbc:	687a      	ldr	r2, [r7, #4]
 8001bbe:	fb02 f303 	mul.w	r3, r2, r3
 8001bc2:	60fb      	str	r3, [r7, #12]
  do
  {
    __NOP();
 8001bc4:	bf00      	nop
  }
  while (Delay --);
 8001bc6:	68fb      	ldr	r3, [r7, #12]
 8001bc8:	1e5a      	subs	r2, r3, #1
 8001bca:	60fa      	str	r2, [r7, #12]
 8001bcc:	2b00      	cmp	r3, #0
 8001bce:	d1f9      	bne.n	8001bc4 <RCC_Delay+0x1c>
}
 8001bd0:	bf00      	nop
 8001bd2:	bf00      	nop
 8001bd4:	3714      	adds	r7, #20
 8001bd6:	46bd      	mov	sp, r7
 8001bd8:	bc80      	pop	{r7}
 8001bda:	4770      	bx	lr
 8001bdc:	2000010c 	.word	0x2000010c
 8001be0:	10624dd3 	.word	0x10624dd3

08001be4 <HAL_UART_Init>:
  * @param  huart  Pointer to a UART_HandleTypeDef structure that contains
  *                the configuration information for the specified UART module.
  * @retval HAL status
  */
HAL_StatusTypeDef HAL_UART_Init(UART_HandleTypeDef *huart)
{
 8001be4:	b580      	push	{r7, lr}
 8001be6:	b082      	sub	sp, #8
 8001be8:	af00      	add	r7, sp, #0
 8001bea:	6078      	str	r0, [r7, #4]
  /* Check the UART handle allocation */
  if (huart == NULL)
 8001bec:	687b      	ldr	r3, [r7, #4]
 8001bee:	2b00      	cmp	r3, #0
 8001bf0:	d101      	bne.n	8001bf6 <HAL_UART_Init+0x12>
  {
    return HAL_ERROR;
 8001bf2:	2301      	movs	r3, #1
 8001bf4:	e042      	b.n	8001c7c <HAL_UART_Init+0x98>
  assert_param(IS_UART_WORD_LENGTH(huart->Init.WordLength));
#if defined(USART_CR1_OVER8)
  assert_param(IS_UART_OVERSAMPLING(huart->Init.OverSampling));
#endif /* USART_CR1_OVER8 */

  if (huart->gState == HAL_UART_STATE_RESET)
 8001bf6:	687b      	ldr	r3, [r7, #4]
 8001bf8:	f893 3041 	ldrb.w	r3, [r3, #65]	@ 0x41
 8001bfc:	b2db      	uxtb	r3, r3
 8001bfe:	2b00      	cmp	r3, #0
 8001c00:	d106      	bne.n	8001c10 <HAL_UART_Init+0x2c>
  {
    /* Allocate lock resource and initialize it */
    huart->Lock = HAL_UNLOCKED;
 8001c02:	687b      	ldr	r3, [r7, #4]
 8001c04:	2200      	movs	r2, #0
 8001c06:	f883 2040 	strb.w	r2, [r3, #64]	@ 0x40

    /* Init the low level hardware */
    huart->MspInitCallback(huart);
#else
    /* Init the low level hardware : GPIO, CLOCK */
    HAL_UART_MspInit(huart);
 8001c0a:	6878      	ldr	r0, [r7, #4]
 8001c0c:	f7fe ff64 	bl	8000ad8 <HAL_UART_MspInit>
#endif /* (USE_HAL_UART_REGISTER_CALLBACKS) */
  }

  huart->gState = HAL_UART_STATE_BUSY;
 8001c10:	687b      	ldr	r3, [r7, #4]
 8001c12:	2224      	movs	r2, #36	@ 0x24
 8001c14:	f883 2041 	strb.w	r2, [r3, #65]	@ 0x41

  /* Disable the peripheral */
  __HAL_UART_DISABLE(huart);
 8001c18:	687b      	ldr	r3, [r7, #4]
 8001c1a:	681b      	ldr	r3, [r3, #0]
 8001c1c:	68da      	ldr	r2, [r3, #12]
 8001c1e:	687b      	ldr	r3, [r7, #4]
 8001c20:	681b      	ldr	r3, [r3, #0]
 8001c22:	f422 5200 	bic.w	r2, r2, #8192	@ 0x2000
 8001c26:	60da      	str	r2, [r3, #12]

  /* Set the UART Communication parameters */
  UART_SetConfig(huart);
 8001c28:	6878      	ldr	r0, [r7, #4]
 8001c2a:	f000 fcd5 	bl	80025d8 <UART_SetConfig>

  /* In asynchronous mode, the following bits must be kept cleared:
     - LINEN and CLKEN bits in the USART_CR2 register,
     - SCEN, HDSEL and IREN  bits in the USART_CR3 register.*/
  CLEAR_BIT(huart->Instance->CR2, (USART_CR2_LINEN | USART_CR2_CLKEN));
 8001c2e:	687b      	ldr	r3, [r7, #4]
 8001c30:	681b      	ldr	r3, [r3, #0]
 8001c32:	691a      	ldr	r2, [r3, #16]
 8001c34:	687b      	ldr	r3, [r7, #4]
 8001c36:	681b      	ldr	r3, [r3, #0]
 8001c38:	f422 4290 	bic.w	r2, r2, #18432	@ 0x4800
 8001c3c:	611a      	str	r2, [r3, #16]
  CLEAR_BIT(huart->Instance->CR3, (USART_CR3_SCEN | USART_CR3_HDSEL | USART_CR3_IREN));
 8001c3e:	687b      	ldr	r3, [r7, #4]
 8001c40:	681b      	ldr	r3, [r3, #0]
 8001c42:	695a      	ldr	r2, [r3, #20]
 8001c44:	687b      	ldr	r3, [r7, #4]
 8001c46:	681b      	ldr	r3, [r3, #0]
 8001c48:	f022 022a 	bic.w	r2, r2, #42	@ 0x2a
 8001c4c:	615a      	str	r2, [r3, #20]

  /* Enable the peripheral */
  __HAL_UART_ENABLE(huart);
 8001c4e:	687b      	ldr	r3, [r7, #4]
 8001c50:	681b      	ldr	r3, [r3, #0]
 8001c52:	68da      	ldr	r2, [r3, #12]
 8001c54:	687b      	ldr	r3, [r7, #4]
 8001c56:	681b      	ldr	r3, [r3, #0]
 8001c58:	f442 5200 	orr.w	r2, r2, #8192	@ 0x2000
 8001c5c:	60da      	str	r2, [r3, #12]

  /* Initialize the UART state */
  huart->ErrorCode = HAL_UART_ERROR_NONE;
 8001c5e:	687b      	ldr	r3, [r7, #4]
 8001c60:	2200      	movs	r2, #0
 8001c62:	645a      	str	r2, [r3, #68]	@ 0x44
  huart->gState = HAL_UART_STATE_READY;
 8001c64:	687b      	ldr	r3, [r7, #4]
 8001c66:	2220      	movs	r2, #32
 8001c68:	f883 2041 	strb.w	r2, [r3, #65]	@ 0x41
  huart->RxState = HAL_UART_STATE_READY;
 8001c6c:	687b      	ldr	r3, [r7, #4]
 8001c6e:	2220      	movs	r2, #32
 8001c70:	f883 2042 	strb.w	r2, [r3, #66]	@ 0x42
  huart->RxEventType = HAL_UART_RXEVENT_TC;
 8001c74:	687b      	ldr	r3, [r7, #4]
 8001c76:	2200      	movs	r2, #0
 8001c78:	635a      	str	r2, [r3, #52]	@ 0x34

  return HAL_OK;
 8001c7a:	2300      	movs	r3, #0
}
 8001c7c:	4618      	mov	r0, r3
 8001c7e:	3708      	adds	r7, #8
 8001c80:	46bd      	mov	sp, r7
 8001c82:	bd80      	pop	{r7, pc}

08001c84 <HAL_UART_Receive_IT>:
  * @param  pData Pointer to data buffer (u8 or u16 data elements).
  * @param  Size  Amount of data elements (u8 or u16) to be received.
  * @retval HAL status
  */
HAL_StatusTypeDef HAL_UART_Receive_IT(UART_HandleTypeDef *huart, uint8_t *pData, uint16_t Size)
{
 8001c84:	b580      	push	{r7, lr}
 8001c86:	b084      	sub	sp, #16
 8001c88:	af00      	add	r7, sp, #0
 8001c8a:	60f8      	str	r0, [r7, #12]
 8001c8c:	60b9      	str	r1, [r7, #8]
 8001c8e:	4613      	mov	r3, r2
 8001c90:	80fb      	strh	r3, [r7, #6]
  /* Check that a Rx process is not already ongoing */
  if (huart->RxState == HAL_UART_STATE_READY)
 8001c92:	68fb      	ldr	r3, [r7, #12]
 8001c94:	f893 3042 	ldrb.w	r3, [r3, #66]	@ 0x42
 8001c98:	b2db      	uxtb	r3, r3
 8001c9a:	2b20      	cmp	r3, #32
 8001c9c:	d112      	bne.n	8001cc4 <HAL_UART_Receive_IT+0x40>
  {
    if ((pData == NULL) || (Size == 0U))
 8001c9e:	68bb      	ldr	r3, [r7, #8]
 8001ca0:	2b00      	cmp	r3, #0
 8001ca2:	d002      	beq.n	8001caa <HAL_UART_Receive_IT+0x26>
 8001ca4:	88fb      	ldrh	r3, [r7, #6]
 8001ca6:	2b00      	cmp	r3, #0
 8001ca8:	d101      	bne.n	8001cae <HAL_UART_Receive_IT+0x2a>
    {
      return HAL_ERROR;
 8001caa:	2301      	movs	r3, #1
 8001cac:	e00b      	b.n	8001cc6 <HAL_UART_Receive_IT+0x42>
    }

    /* Set Reception type to Standard reception */
    huart->ReceptionType = HAL_UART_RECEPTION_STANDARD;
 8001cae:	68fb      	ldr	r3, [r7, #12]
 8001cb0:	2200      	movs	r2, #0
 8001cb2:	631a      	str	r2, [r3, #48]	@ 0x30

    return (UART_Start_Receive_IT(huart, pData, Size));
 8001cb4:	88fb      	ldrh	r3, [r7, #6]
 8001cb6:	461a      	mov	r2, r3
 8001cb8:	68b9      	ldr	r1, [r7, #8]
 8001cba:	68f8      	ldr	r0, [r7, #12]
 8001cbc:	f000 fab7 	bl	800222e <UART_Start_Receive_IT>
 8001cc0:	4603      	mov	r3, r0
 8001cc2:	e000      	b.n	8001cc6 <HAL_UART_Receive_IT+0x42>
  }
  else
  {
    return HAL_BUSY;
 8001cc4:	2302      	movs	r3, #2
  }
}
 8001cc6:	4618      	mov	r0, r3
 8001cc8:	3710      	adds	r7, #16
 8001cca:	46bd      	mov	sp, r7
 8001ccc:	bd80      	pop	{r7, pc}
	...

08001cd0 <HAL_UART_IRQHandler>:
  * @param  huart  Pointer to a UART_HandleTypeDef structure that contains
  *                the configuration information for the specified UART module.
  * @retval None
  */
void HAL_UART_IRQHandler(UART_HandleTypeDef *huart)
{
 8001cd0:	b580      	push	{r7, lr}
 8001cd2:	b0ba      	sub	sp, #232	@ 0xe8
 8001cd4:	af00      	add	r7, sp, #0
 8001cd6:	6078      	str	r0, [r7, #4]
  uint32_t isrflags   = READ_REG(huart->Instance->SR);
 8001cd8:	687b      	ldr	r3, [r7, #4]
 8001cda:	681b      	ldr	r3, [r3, #0]
 8001cdc:	681b      	ldr	r3, [r3, #0]
 8001cde:	f8c7 30e4 	str.w	r3, [r7, #228]	@ 0xe4
  uint32_t cr1its     = READ_REG(huart->Instance->CR1);
 8001ce2:	687b      	ldr	r3, [r7, #4]
 8001ce4:	681b      	ldr	r3, [r3, #0]
 8001ce6:	68db      	ldr	r3, [r3, #12]
 8001ce8:	f8c7 30e0 	str.w	r3, [r7, #224]	@ 0xe0
  uint32_t cr3its     = READ_REG(huart->Instance->CR3);
 8001cec:	687b      	ldr	r3, [r7, #4]
 8001cee:	681b      	ldr	r3, [r3, #0]
 8001cf0:	695b      	ldr	r3, [r3, #20]
 8001cf2:	f8c7 30dc 	str.w	r3, [r7, #220]	@ 0xdc
  uint32_t errorflags = 0x00U;
 8001cf6:	2300      	movs	r3, #0
 8001cf8:	f8c7 30d8 	str.w	r3, [r7, #216]	@ 0xd8
  uint32_t dmarequest = 0x00U;
 8001cfc:	2300      	movs	r3, #0
 8001cfe:	f8c7 30d4 	str.w	r3, [r7, #212]	@ 0xd4

  /* If no error occurs */
  errorflags = (isrflags & (uint32_t)(USART_SR_PE | USART_SR_FE | USART_SR_ORE | USART_SR_NE));
 8001d02:	f8d7 30e4 	ldr.w	r3, [r7, #228]	@ 0xe4
 8001d06:	f003 030f 	and.w	r3, r3, #15
 8001d0a:	f8c7 30d8 	str.w	r3, [r7, #216]	@ 0xd8
  if (errorflags == RESET)
 8001d0e:	f8d7 30d8 	ldr.w	r3, [r7, #216]	@ 0xd8
 8001d12:	2b00      	cmp	r3, #0
 8001d14:	d10f      	bne.n	8001d36 <HAL_UART_IRQHandler+0x66>
  {
    /* UART in mode Receiver -------------------------------------------------*/
    if (((isrflags & USART_SR_RXNE) != RESET) && ((cr1its & USART_CR1_RXNEIE) != RESET))
 8001d16:	f8d7 30e4 	ldr.w	r3, [r7, #228]	@ 0xe4
 8001d1a:	f003 0320 	and.w	r3, r3, #32
 8001d1e:	2b00      	cmp	r3, #0
 8001d20:	d009      	beq.n	8001d36 <HAL_UART_IRQHandler+0x66>
 8001d22:	f8d7 30e0 	ldr.w	r3, [r7, #224]	@ 0xe0
 8001d26:	f003 0320 	and.w	r3, r3, #32
 8001d2a:	2b00      	cmp	r3, #0
 8001d2c:	d003      	beq.n	8001d36 <HAL_UART_IRQHandler+0x66>
    {
      UART_Receive_IT(huart);
 8001d2e:	6878      	ldr	r0, [r7, #4]
 8001d30:	f000 fb93 	bl	800245a <UART_Receive_IT>
      return;
 8001d34:	e25b      	b.n	80021ee <HAL_UART_IRQHandler+0x51e>
    }
  }

  /* If some errors occur */
  if ((errorflags != RESET) && (((cr3its & USART_CR3_EIE) != RESET)
 8001d36:	f8d7 30d8 	ldr.w	r3, [r7, #216]	@ 0xd8
 8001d3a:	2b00      	cmp	r3, #0
 8001d3c:	f000 80de 	beq.w	8001efc <HAL_UART_IRQHandler+0x22c>
 8001d40:	f8d7 30dc 	ldr.w	r3, [r7, #220]	@ 0xdc
 8001d44:	f003 0301 	and.w	r3, r3, #1
 8001d48:	2b00      	cmp	r3, #0
 8001d4a:	d106      	bne.n	8001d5a <HAL_UART_IRQHandler+0x8a>
                                || ((cr1its & (USART_CR1_RXNEIE | USART_CR1_PEIE)) != RESET)))
 8001d4c:	f8d7 30e0 	ldr.w	r3, [r7, #224]	@ 0xe0
 8001d50:	f403 7390 	and.w	r3, r3, #288	@ 0x120
 8001d54:	2b00      	cmp	r3, #0
 8001d56:	f000 80d1 	beq.w	8001efc <HAL_UART_IRQHandler+0x22c>
  {
    /* UART parity error interrupt occurred ----------------------------------*/
    if (((isrflags & USART_SR_PE) != RESET) && ((cr1its & USART_CR1_PEIE) != RESET))
 8001d5a:	f8d7 30e4 	ldr.w	r3, [r7, #228]	@ 0xe4
 8001d5e:	f003 0301 	and.w	r3, r3, #1
 8001d62:	2b00      	cmp	r3, #0
 8001d64:	d00b      	beq.n	8001d7e <HAL_UART_IRQHandler+0xae>
 8001d66:	f8d7 30e0 	ldr.w	r3, [r7, #224]	@ 0xe0
 8001d6a:	f403 7380 	and.w	r3, r3, #256	@ 0x100
 8001d6e:	2b00      	cmp	r3, #0
 8001d70:	d005      	beq.n	8001d7e <HAL_UART_IRQHandler+0xae>
    {
      huart->ErrorCode |= HAL_UART_ERROR_PE;
 8001d72:	687b      	ldr	r3, [r7, #4]
 8001d74:	6c5b      	ldr	r3, [r3, #68]	@ 0x44
 8001d76:	f043 0201 	orr.w	r2, r3, #1
 8001d7a:	687b      	ldr	r3, [r7, #4]
 8001d7c:	645a      	str	r2, [r3, #68]	@ 0x44
    }

    /* UART noise error interrupt occurred -----------------------------------*/
    if (((isrflags & USART_SR_NE) != RESET) && ((cr3its & USART_CR3_EIE) != RESET))
 8001d7e:	f8d7 30e4 	ldr.w	r3, [r7, #228]	@ 0xe4
 8001d82:	f003 0304 	and.w	r3, r3, #4
 8001d86:	2b00      	cmp	r3, #0
 8001d88:	d00b      	beq.n	8001da2 <HAL_UART_IRQHandler+0xd2>
 8001d8a:	f8d7 30dc 	ldr.w	r3, [r7, #220]	@ 0xdc
 8001d8e:	f003 0301 	and.w	r3, r3, #1
 8001d92:	2b00      	cmp	r3, #0
 8001d94:	d005      	beq.n	8001da2 <HAL_UART_IRQHandler+0xd2>
    {
      huart->ErrorCode |= HAL_UART_ERROR_NE;
 8001d96:	687b      	ldr	r3, [r7, #4]
 8001d98:	6c5b      	ldr	r3, [r3, #68]	@ 0x44
 8001d9a:	f043 0202 	orr.w	r2, r3, #2
 8001d9e:	687b      	ldr	r3, [r7, #4]
 8001da0:	645a      	str	r2, [r3, #68]	@ 0x44
    }

    /* UART frame error interrupt occurred -----------------------------------*/
    if (((isrflags & USART_SR_FE) != RESET) && ((cr3its & USART_CR3_EIE) != RESET))
 8001da2:	f8d7 30e4 	ldr.w	r3, [r7, #228]	@ 0xe4
 8001da6:	f003 0302 	and.w	r3, r3, #2
 8001daa:	2b00      	cmp	r3, #0
 8001dac:	d00b      	beq.n	8001dc6 <HAL_UART_IRQHandler+0xf6>
 8001dae:	f8d7 30dc 	ldr.w	r3, [r7, #220]	@ 0xdc
 8001db2:	f003 0301 	and.w	r3, r3, #1
 8001db6:	2b00      	cmp	r3, #0
 8001db8:	d005      	beq.n	8001dc6 <HAL_UART_IRQHandler+0xf6>
    {
      huart->ErrorCode |= HAL_UART_ERROR_FE;
 8001dba:	687b      	ldr	r3, [r7, #4]
 8001dbc:	6c5b      	ldr	r3, [r3, #68]	@ 0x44
 8001dbe:	f043 0204 	orr.w	r2, r3, #4
 8001dc2:	687b      	ldr	r3, [r7, #4]
 8001dc4:	645a      	str	r2, [r3, #68]	@ 0x44
    }

    /* UART Over-Run interrupt occurred --------------------------------------*/
    if (((isrflags & USART_SR_ORE) != RESET) && (((cr1its & USART_CR1_RXNEIE) != RESET)
 8001dc6:	f8d7 30e4 	ldr.w	r3, [r7, #228]	@ 0xe4
 8001dca:	f003 0308 	and.w	r3, r3, #8
 8001dce:	2b00      	cmp	r3, #0
 8001dd0:	d011      	beq.n	8001df6 <HAL_UART_IRQHandler+0x126>
 8001dd2:	f8d7 30e0 	ldr.w	r3, [r7, #224]	@ 0xe0
 8001dd6:	f003 0320 	and.w	r3, r3, #32
 8001dda:	2b00      	cmp	r3, #0
 8001ddc:	d105      	bne.n	8001dea <HAL_UART_IRQHandler+0x11a>
                                                 || ((cr3its & USART_CR3_EIE) != RESET)))
 8001dde:	f8d7 30dc 	ldr.w	r3, [r7, #220]	@ 0xdc
 8001de2:	f003 0301 	and.w	r3, r3, #1
 8001de6:	2b00      	cmp	r3, #0
 8001de8:	d005      	beq.n	8001df6 <HAL_UART_IRQHandler+0x126>
    {
      huart->ErrorCode |= HAL_UART_ERROR_ORE;
 8001dea:	687b      	ldr	r3, [r7, #4]
 8001dec:	6c5b      	ldr	r3, [r3, #68]	@ 0x44
 8001dee:	f043 0208 	orr.w	r2, r3, #8
 8001df2:	687b      	ldr	r3, [r7, #4]
 8001df4:	645a      	str	r2, [r3, #68]	@ 0x44
    }

    /* Call UART Error Call back function if need be --------------------------*/
    if (huart->ErrorCode != HAL_UART_ERROR_NONE)
 8001df6:	687b      	ldr	r3, [r7, #4]
 8001df8:	6c5b      	ldr	r3, [r3, #68]	@ 0x44
 8001dfa:	2b00      	cmp	r3, #0
 8001dfc:	f000 81f2 	beq.w	80021e4 <HAL_UART_IRQHandler+0x514>
    {
      /* UART in mode Receiver -----------------------------------------------*/
      if (((isrflags & USART_SR_RXNE) != RESET) && ((cr1its & USART_CR1_RXNEIE) != RESET))
 8001e00:	f8d7 30e4 	ldr.w	r3, [r7, #228]	@ 0xe4
 8001e04:	f003 0320 	and.w	r3, r3, #32
 8001e08:	2b00      	cmp	r3, #0
 8001e0a:	d008      	beq.n	8001e1e <HAL_UART_IRQHandler+0x14e>
 8001e0c:	f8d7 30e0 	ldr.w	r3, [r7, #224]	@ 0xe0
 8001e10:	f003 0320 	and.w	r3, r3, #32
 8001e14:	2b00      	cmp	r3, #0
 8001e16:	d002      	beq.n	8001e1e <HAL_UART_IRQHandler+0x14e>
      {
        UART_Receive_IT(huart);
 8001e18:	6878      	ldr	r0, [r7, #4]
 8001e1a:	f000 fb1e 	bl	800245a <UART_Receive_IT>
      }

      /* If Overrun error occurs, or if any error occurs in DMA mode reception,
         consider error as blocking */
      dmarequest = HAL_IS_BIT_SET(huart->Instance->CR3, USART_CR3_DMAR);
 8001e1e:	687b      	ldr	r3, [r7, #4]
 8001e20:	681b      	ldr	r3, [r3, #0]
 8001e22:	695b      	ldr	r3, [r3, #20]
 8001e24:	f003 0340 	and.w	r3, r3, #64	@ 0x40
 8001e28:	2b00      	cmp	r3, #0
 8001e2a:	bf14      	ite	ne
 8001e2c:	2301      	movne	r3, #1
 8001e2e:	2300      	moveq	r3, #0
 8001e30:	b2db      	uxtb	r3, r3
 8001e32:	f8c7 30d4 	str.w	r3, [r7, #212]	@ 0xd4
      if (((huart->ErrorCode & HAL_UART_ERROR_ORE) != RESET) || dmarequest)
 8001e36:	687b      	ldr	r3, [r7, #4]
 8001e38:	6c5b      	ldr	r3, [r3, #68]	@ 0x44
 8001e3a:	f003 0308 	and.w	r3, r3, #8
 8001e3e:	2b00      	cmp	r3, #0
 8001e40:	d103      	bne.n	8001e4a <HAL_UART_IRQHandler+0x17a>
 8001e42:	f8d7 30d4 	ldr.w	r3, [r7, #212]	@ 0xd4
 8001e46:	2b00      	cmp	r3, #0
 8001e48:	d04f      	beq.n	8001eea <HAL_UART_IRQHandler+0x21a>
      {
        /* Blocking error : transfer is aborted
           Set the UART state ready to be able to start again the process,
           Disable Rx Interrupts, and disable Rx DMA request, if ongoing */
        UART_EndRxTransfer(huart);
 8001e4a:	6878      	ldr	r0, [r7, #4]
 8001e4c:	f000 fa28 	bl	80022a0 <UART_EndRxTransfer>

        /* Disable the UART DMA Rx request if enabled */
        if (HAL_IS_BIT_SET(huart->Instance->CR3, USART_CR3_DMAR))
 8001e50:	687b      	ldr	r3, [r7, #4]
 8001e52:	681b      	ldr	r3, [r3, #0]
 8001e54:	695b      	ldr	r3, [r3, #20]
 8001e56:	f003 0340 	and.w	r3, r3, #64	@ 0x40
 8001e5a:	2b00      	cmp	r3, #0
 8001e5c:	d041      	beq.n	8001ee2 <HAL_UART_IRQHandler+0x212>
        {
          ATOMIC_CLEAR_BIT(huart->Instance->CR3, USART_CR3_DMAR);
 8001e5e:	687b      	ldr	r3, [r7, #4]
 8001e60:	681b      	ldr	r3, [r3, #0]
 8001e62:	3314      	adds	r3, #20
 8001e64:	f8c7 309c 	str.w	r3, [r7, #156]	@ 0x9c
 */
__STATIC_FORCEINLINE uint32_t __LDREXW(volatile uint32_t *addr)
{
    uint32_t result;

   __ASM volatile ("ldrex %0, %1" : "=r" (result) : "Q" (*addr) );
 8001e68:	f8d7 309c 	ldr.w	r3, [r7, #156]	@ 0x9c
 8001e6c:	e853 3f00 	ldrex	r3, [r3]
 8001e70:	f8c7 3098 	str.w	r3, [r7, #152]	@ 0x98
   return(result);
 8001e74:	f8d7 3098 	ldr.w	r3, [r7, #152]	@ 0x98
 8001e78:	f023 0340 	bic.w	r3, r3, #64	@ 0x40
 8001e7c:	f8c7 30d0 	str.w	r3, [r7, #208]	@ 0xd0
 8001e80:	687b      	ldr	r3, [r7, #4]
 8001e82:	681b      	ldr	r3, [r3, #0]
 8001e84:	3314      	adds	r3, #20
 8001e86:	f8d7 20d0 	ldr.w	r2, [r7, #208]	@ 0xd0
 8001e8a:	f8c7 20a8 	str.w	r2, [r7, #168]	@ 0xa8
 8001e8e:	f8c7 30a4 	str.w	r3, [r7, #164]	@ 0xa4
 */
__STATIC_FORCEINLINE uint32_t __STREXW(uint32_t value, volatile uint32_t *addr)
{
   uint32_t result;

   __ASM volatile ("strex %0, %2, %1" : "=&r" (result), "=Q" (*addr) : "r" (value) );
 8001e92:	f8d7 10a4 	ldr.w	r1, [r7, #164]	@ 0xa4
 8001e96:	f8d7 20a8 	ldr.w	r2, [r7, #168]	@ 0xa8
 8001e9a:	e841 2300 	strex	r3, r2, [r1]
 8001e9e:	f8c7 30a0 	str.w	r3, [r7, #160]	@ 0xa0
   return(result);
 8001ea2:	f8d7 30a0 	ldr.w	r3, [r7, #160]	@ 0xa0
 8001ea6:	2b00      	cmp	r3, #0
 8001ea8:	d1d9      	bne.n	8001e5e <HAL_UART_IRQHandler+0x18e>

          /* Abort the UART DMA Rx channel */
          if (huart->hdmarx != NULL)
 8001eaa:	687b      	ldr	r3, [r7, #4]
 8001eac:	6bdb      	ldr	r3, [r3, #60]	@ 0x3c
 8001eae:	2b00      	cmp	r3, #0
 8001eb0:	d013      	beq.n	8001eda <HAL_UART_IRQHandler+0x20a>
          {
            /* Set the UART DMA Abort callback :
               will lead to call HAL_UART_ErrorCallback() at end of DMA abort procedure */
            huart->hdmarx->XferAbortCallback = UART_DMAAbortOnError;
 8001eb2:	687b      	ldr	r3, [r7, #4]
 8001eb4:	6bdb      	ldr	r3, [r3, #60]	@ 0x3c
 8001eb6:	4a7e      	ldr	r2, [pc, #504]	@ (80020b0 <HAL_UART_IRQHandler+0x3e0>)
 8001eb8:	635a      	str	r2, [r3, #52]	@ 0x34
            if (HAL_DMA_Abort_IT(huart->hdmarx) != HAL_OK)
 8001eba:	687b      	ldr	r3, [r7, #4]
 8001ebc:	6bdb      	ldr	r3, [r3, #60]	@ 0x3c
 8001ebe:	4618      	mov	r0, r3
 8001ec0:	f7ff f852 	bl	8000f68 <HAL_DMA_Abort_IT>
 8001ec4:	4603      	mov	r3, r0
 8001ec6:	2b00      	cmp	r3, #0
 8001ec8:	d016      	beq.n	8001ef8 <HAL_UART_IRQHandler+0x228>
            {
              /* Call Directly XferAbortCallback function in case of error */
              huart->hdmarx->XferAbortCallback(huart->hdmarx);
 8001eca:	687b      	ldr	r3, [r7, #4]
 8001ecc:	6bdb      	ldr	r3, [r3, #60]	@ 0x3c
 8001ece:	6b5b      	ldr	r3, [r3, #52]	@ 0x34
 8001ed0:	687a      	ldr	r2, [r7, #4]
 8001ed2:	6bd2      	ldr	r2, [r2, #60]	@ 0x3c
 8001ed4:	4610      	mov	r0, r2
 8001ed6:	4798      	blx	r3
        if (HAL_IS_BIT_SET(huart->Instance->CR3, USART_CR3_DMAR))
 8001ed8:	e00e      	b.n	8001ef8 <HAL_UART_IRQHandler+0x228>
#if (USE_HAL_UART_REGISTER_CALLBACKS == 1)
            /*Call registered error callback*/
            huart->ErrorCallback(huart);
#else
            /*Call legacy weak error callback*/
            HAL_UART_ErrorCallback(huart);
 8001eda:	6878      	ldr	r0, [r7, #4]
 8001edc:	f000 f993 	bl	8002206 <HAL_UART_ErrorCallback>
        if (HAL_IS_BIT_SET(huart->Instance->CR3, USART_CR3_DMAR))
 8001ee0:	e00a      	b.n	8001ef8 <HAL_UART_IRQHandler+0x228>
#if (USE_HAL_UART_REGISTER_CALLBACKS == 1)
          /*Call registered error callback*/
          huart->ErrorCallback(huart);
#else
          /*Call legacy weak error callback*/
          HAL_UART_ErrorCallback(huart);
 8001ee2:	6878      	ldr	r0, [r7, #4]
 8001ee4:	f000 f98f 	bl	8002206 <HAL_UART_ErrorCallback>
        if (HAL_IS_BIT_SET(huart->Instance->CR3, USART_CR3_DMAR))
 8001ee8:	e006      	b.n	8001ef8 <HAL_UART_IRQHandler+0x228>
#if (USE_HAL_UART_REGISTER_CALLBACKS == 1)
        /*Call registered error callback*/
        huart->ErrorCallback(huart);
#else
        /*Call legacy weak error callback*/
        HAL_UART_ErrorCallback(huart);
 8001eea:	6878      	ldr	r0, [r7, #4]
 8001eec:	f000 f98b 	bl	8002206 <HAL_UART_ErrorCallback>
#endif /* USE_HAL_UART_REGISTER_CALLBACKS */

        huart->ErrorCode = HAL_UART_ERROR_NONE;
 8001ef0:	687b      	ldr	r3, [r7, #4]
 8001ef2:	2200      	movs	r2, #0
 8001ef4:	645a      	str	r2, [r3, #68]	@ 0x44
      }
    }
    return;
 8001ef6:	e175      	b.n	80021e4 <HAL_UART_IRQHandler+0x514>
        if (HAL_IS_BIT_SET(huart->Instance->CR3, USART_CR3_DMAR))
 8001ef8:	bf00      	nop
    return;
 8001efa:	e173      	b.n	80021e4 <HAL_UART_IRQHandler+0x514>
  } /* End if some error occurs */

  /* Check current reception Mode :
     If Reception till IDLE event has been selected : */
  if ((huart->ReceptionType == HAL_UART_RECEPTION_TOIDLE)
 8001efc:	687b      	ldr	r3, [r7, #4]
 8001efe:	6b1b      	ldr	r3, [r3, #48]	@ 0x30
 8001f00:	2b01      	cmp	r3, #1
 8001f02:	f040 814f 	bne.w	80021a4 <HAL_UART_IRQHandler+0x4d4>
      && ((isrflags & USART_SR_IDLE) != 0U)
 8001f06:	f8d7 30e4 	ldr.w	r3, [r7, #228]	@ 0xe4
 8001f0a:	f003 0310 	and.w	r3, r3, #16
 8001f0e:	2b00      	cmp	r3, #0
 8001f10:	f000 8148 	beq.w	80021a4 <HAL_UART_IRQHandler+0x4d4>
      && ((cr1its & USART_SR_IDLE) != 0U))
 8001f14:	f8d7 30e0 	ldr.w	r3, [r7, #224]	@ 0xe0
 8001f18:	f003 0310 	and.w	r3, r3, #16
 8001f1c:	2b00      	cmp	r3, #0
 8001f1e:	f000 8141 	beq.w	80021a4 <HAL_UART_IRQHandler+0x4d4>
  {
    __HAL_UART_CLEAR_IDLEFLAG(huart);
 8001f22:	2300      	movs	r3, #0
 8001f24:	60bb      	str	r3, [r7, #8]
 8001f26:	687b      	ldr	r3, [r7, #4]
 8001f28:	681b      	ldr	r3, [r3, #0]
 8001f2a:	681b      	ldr	r3, [r3, #0]
 8001f2c:	60bb      	str	r3, [r7, #8]
 8001f2e:	687b      	ldr	r3, [r7, #4]
 8001f30:	681b      	ldr	r3, [r3, #0]
 8001f32:	685b      	ldr	r3, [r3, #4]
 8001f34:	60bb      	str	r3, [r7, #8]
 8001f36:	68bb      	ldr	r3, [r7, #8]

    /* Check if DMA mode is enabled in UART */
    if (HAL_IS_BIT_SET(huart->Instance->CR3, USART_CR3_DMAR))
 8001f38:	687b      	ldr	r3, [r7, #4]
 8001f3a:	681b      	ldr	r3, [r3, #0]
 8001f3c:	695b      	ldr	r3, [r3, #20]
 8001f3e:	f003 0340 	and.w	r3, r3, #64	@ 0x40
 8001f42:	2b00      	cmp	r3, #0
 8001f44:	f000 80b6 	beq.w	80020b4 <HAL_UART_IRQHandler+0x3e4>
    {
      /* DMA mode enabled */
      /* Check received length : If all expected data are received, do nothing,
         (DMA cplt callback will be called).
         Otherwise, if at least one data has already been received, IDLE event is to be notified to user */
      uint16_t nb_remaining_rx_data = (uint16_t) __HAL_DMA_GET_COUNTER(huart->hdmarx);
 8001f48:	687b      	ldr	r3, [r7, #4]
 8001f4a:	6bdb      	ldr	r3, [r3, #60]	@ 0x3c
 8001f4c:	681b      	ldr	r3, [r3, #0]
 8001f4e:	685b      	ldr	r3, [r3, #4]
 8001f50:	f8a7 30be 	strh.w	r3, [r7, #190]	@ 0xbe
      if ((nb_remaining_rx_data > 0U)
 8001f54:	f8b7 30be 	ldrh.w	r3, [r7, #190]	@ 0xbe
 8001f58:	2b00      	cmp	r3, #0
 8001f5a:	f000 8145 	beq.w	80021e8 <HAL_UART_IRQHandler+0x518>
          && (nb_remaining_rx_data < huart->RxXferSize))
 8001f5e:	687b      	ldr	r3, [r7, #4]
 8001f60:	8d9b      	ldrh	r3, [r3, #44]	@ 0x2c
 8001f62:	f8b7 20be 	ldrh.w	r2, [r7, #190]	@ 0xbe
 8001f66:	429a      	cmp	r2, r3
 8001f68:	f080 813e 	bcs.w	80021e8 <HAL_UART_IRQHandler+0x518>
      {
        /* Reception is not complete */
        huart->RxXferCount = nb_remaining_rx_data;
 8001f6c:	687b      	ldr	r3, [r7, #4]
 8001f6e:	f8b7 20be 	ldrh.w	r2, [r7, #190]	@ 0xbe
 8001f72:	85da      	strh	r2, [r3, #46]	@ 0x2e

        /* In Normal mode, end DMA xfer and HAL UART Rx process*/
        if (huart->hdmarx->Init.Mode != DMA_CIRCULAR)
 8001f74:	687b      	ldr	r3, [r7, #4]
 8001f76:	6bdb      	ldr	r3, [r3, #60]	@ 0x3c
 8001f78:	699b      	ldr	r3, [r3, #24]
 8001f7a:	2b20      	cmp	r3, #32
 8001f7c:	f000 8088 	beq.w	8002090 <HAL_UART_IRQHandler+0x3c0>
        {
          /* Disable PE and ERR (Frame error, noise error, overrun error) interrupts */
          ATOMIC_CLEAR_BIT(huart->Instance->CR1, USART_CR1_PEIE);
 8001f80:	687b      	ldr	r3, [r7, #4]
 8001f82:	681b      	ldr	r3, [r3, #0]
 8001f84:	330c      	adds	r3, #12
 8001f86:	f8c7 3088 	str.w	r3, [r7, #136]	@ 0x88
   __ASM volatile ("ldrex %0, %1" : "=r" (result) : "Q" (*addr) );
 8001f8a:	f8d7 3088 	ldr.w	r3, [r7, #136]	@ 0x88
 8001f8e:	e853 3f00 	ldrex	r3, [r3]
 8001f92:	f8c7 3084 	str.w	r3, [r7, #132]	@ 0x84
   return(result);
 8001f96:	f8d7 3084 	ldr.w	r3, [r7, #132]	@ 0x84
 8001f9a:	f423 7380 	bic.w	r3, r3, #256	@ 0x100
 8001f9e:	f8c7 30b8 	str.w	r3, [r7, #184]	@ 0xb8
 8001fa2:	687b      	ldr	r3, [r7, #4]
 8001fa4:	681b      	ldr	r3, [r3, #0]
 8001fa6:	330c      	adds	r3, #12
 8001fa8:	f8d7 20b8 	ldr.w	r2, [r7, #184]	@ 0xb8
 8001fac:	f8c7 2094 	str.w	r2, [r7, #148]	@ 0x94
 8001fb0:	f8c7 3090 	str.w	r3, [r7, #144]	@ 0x90
   __ASM volatile ("strex %0, %2, %1" : "=&r" (result), "=Q" (*addr) : "r" (value) );
 8001fb4:	f8d7 1090 	ldr.w	r1, [r7, #144]	@ 0x90
 8001fb8:	f8d7 2094 	ldr.w	r2, [r7, #148]	@ 0x94
 8001fbc:	e841 2300 	strex	r3, r2, [r1]
 8001fc0:	f8c7 308c 	str.w	r3, [r7, #140]	@ 0x8c
   return(result);
 8001fc4:	f8d7 308c 	ldr.w	r3, [r7, #140]	@ 0x8c
 8001fc8:	2b00      	cmp	r3, #0
 8001fca:	d1d9      	bne.n	8001f80 <HAL_UART_IRQHandler+0x2b0>
          ATOMIC_CLEAR_BIT(huart->Instance->CR3, USART_CR3_EIE);
 8001fcc:	687b      	ldr	r3, [r7, #4]
 8001fce:	681b      	ldr	r3, [r3, #0]
 8001fd0:	3314      	adds	r3, #20
 8001fd2:	677b      	str	r3, [r7, #116]	@ 0x74
   __ASM volatile ("ldrex %0, %1" : "=r" (result) : "Q" (*addr) );
 8001fd4:	6f7b      	ldr	r3, [r7, #116]	@ 0x74
 8001fd6:	e853 3f00 	ldrex	r3, [r3]
 8001fda:	673b      	str	r3, [r7, #112]	@ 0x70
   return(result);
 8001fdc:	6f3b      	ldr	r3, [r7, #112]	@ 0x70
 8001fde:	f023 0301 	bic.w	r3, r3, #1
 8001fe2:	f8c7 30b4 	str.w	r3, [r7, #180]	@ 0xb4
 8001fe6:	687b      	ldr	r3, [r7, #4]
 8001fe8:	681b      	ldr	r3, [r3, #0]
 8001fea:	3314      	adds	r3, #20
 8001fec:	f8d7 20b4 	ldr.w	r2, [r7, #180]	@ 0xb4
 8001ff0:	f8c7 2080 	str.w	r2, [r7, #128]	@ 0x80
 8001ff4:	67fb      	str	r3, [r7, #124]	@ 0x7c
   __ASM volatile ("strex %0, %2, %1" : "=&r" (result), "=Q" (*addr) : "r" (value) );
 8001ff6:	6ff9      	ldr	r1, [r7, #124]	@ 0x7c
 8001ff8:	f8d7 2080 	ldr.w	r2, [r7, #128]	@ 0x80
 8001ffc:	e841 2300 	strex	r3, r2, [r1]
 8002000:	67bb      	str	r3, [r7, #120]	@ 0x78
   return(result);
 8002002:	6fbb      	ldr	r3, [r7, #120]	@ 0x78
 8002004:	2b00      	cmp	r3, #0
 8002006:	d1e1      	bne.n	8001fcc <HAL_UART_IRQHandler+0x2fc>

          /* Disable the DMA transfer for the receiver request by resetting the DMAR bit
             in the UART CR3 register */
          ATOMIC_CLEAR_BIT(huart->Instance->CR3, USART_CR3_DMAR);
 8002008:	687b      	ldr	r3, [r7, #4]
 800200a:	681b      	ldr	r3, [r3, #0]
 800200c:	3314      	adds	r3, #20
 800200e:	663b      	str	r3, [r7, #96]	@ 0x60
   __ASM volatile ("ldrex %0, %1" : "=r" (result) : "Q" (*addr) );
 8002010:	6e3b      	ldr	r3, [r7, #96]	@ 0x60
 8002012:	e853 3f00 	ldrex	r3, [r3]
 8002016:	65fb      	str	r3, [r7, #92]	@ 0x5c
   return(result);
 8002018:	6dfb      	ldr	r3, [r7, #92]	@ 0x5c
 800201a:	f023 0340 	bic.w	r3, r3, #64	@ 0x40
 800201e:	f8c7 30b0 	str.w	r3, [r7, #176]	@ 0xb0
 8002022:	687b      	ldr	r3, [r7, #4]
 8002024:	681b      	ldr	r3, [r3, #0]
 8002026:	3314      	adds	r3, #20
 8002028:	f8d7 20b0 	ldr.w	r2, [r7, #176]	@ 0xb0
 800202c:	66fa      	str	r2, [r7, #108]	@ 0x6c
 800202e:	66bb      	str	r3, [r7, #104]	@ 0x68
   __ASM volatile ("strex %0, %2, %1" : "=&r" (result), "=Q" (*addr) : "r" (value) );
 8002030:	6eb9      	ldr	r1, [r7, #104]	@ 0x68
 8002032:	6efa      	ldr	r2, [r7, #108]	@ 0x6c
 8002034:	e841 2300 	strex	r3, r2, [r1]
 8002038:	667b      	str	r3, [r7, #100]	@ 0x64
   return(result);
 800203a:	6e7b      	ldr	r3, [r7, #100]	@ 0x64
 800203c:	2b00      	cmp	r3, #0
 800203e:	d1e3      	bne.n	8002008 <HAL_UART_IRQHandler+0x338>

          /* At end of Rx process, restore huart->RxState to Ready */
          huart->RxState = HAL_UART_STATE_READY;
 8002040:	687b      	ldr	r3, [r7, #4]
 8002042:	2220      	movs	r2, #32
 8002044:	f883 2042 	strb.w	r2, [r3, #66]	@ 0x42
          huart->ReceptionType = HAL_UART_RECEPTION_STANDARD;
 8002048:	687b      	ldr	r3, [r7, #4]
 800204a:	2200      	movs	r2, #0
 800204c:	631a      	str	r2, [r3, #48]	@ 0x30

          ATOMIC_CLEAR_BIT(huart->Instance->CR1, USART_CR1_IDLEIE);
 800204e:	687b      	ldr	r3, [r7, #4]
 8002050:	681b      	ldr	r3, [r3, #0]
 8002052:	330c      	adds	r3, #12
 8002054:	64fb      	str	r3, [r7, #76]	@ 0x4c
   __ASM volatile ("ldrex %0, %1" : "=r" (result) : "Q" (*addr) );
 8002056:	6cfb      	ldr	r3, [r7, #76]	@ 0x4c
 8002058:	e853 3f00 	ldrex	r3, [r3]
 800205c:	64bb      	str	r3, [r7, #72]	@ 0x48
   return(result);
 800205e:	6cbb      	ldr	r3, [r7, #72]	@ 0x48
 8002060:	f023 0310 	bic.w	r3, r3, #16
 8002064:	f8c7 30ac 	str.w	r3, [r7, #172]	@ 0xac
 8002068:	687b      	ldr	r3, [r7, #4]
 800206a:	681b      	ldr	r3, [r3, #0]
 800206c:	330c      	adds	r3, #12
 800206e:	f8d7 20ac 	ldr.w	r2, [r7, #172]	@ 0xac
 8002072:	65ba      	str	r2, [r7, #88]	@ 0x58
 8002074:	657b      	str	r3, [r7, #84]	@ 0x54
   __ASM volatile ("strex %0, %2, %1" : "=&r" (result), "=Q" (*addr) : "r" (value) );
 8002076:	6d79      	ldr	r1, [r7, #84]	@ 0x54
 8002078:	6dba      	ldr	r2, [r7, #88]	@ 0x58
 800207a:	e841 2300 	strex	r3, r2, [r1]
 800207e:	653b      	str	r3, [r7, #80]	@ 0x50
   return(result);
 8002080:	6d3b      	ldr	r3, [r7, #80]	@ 0x50
 8002082:	2b00      	cmp	r3, #0
 8002084:	d1e3      	bne.n	800204e <HAL_UART_IRQHandler+0x37e>

          /* Last bytes received, so no need as the abort is immediate */
          (void)HAL_DMA_Abort(huart->hdmarx);
 8002086:	687b      	ldr	r3, [r7, #4]
 8002088:	6bdb      	ldr	r3, [r3, #60]	@ 0x3c
 800208a:	4618      	mov	r0, r3
 800208c:	f7fe ff31 	bl	8000ef2 <HAL_DMA_Abort>
        }

        /* Initialize type of RxEvent that correspond to RxEvent callback execution;
        In this case, Rx Event type is Idle Event */
        huart->RxEventType = HAL_UART_RXEVENT_IDLE;
 8002090:	687b      	ldr	r3, [r7, #4]
 8002092:	2202      	movs	r2, #2
 8002094:	635a      	str	r2, [r3, #52]	@ 0x34
#if (USE_HAL_UART_REGISTER_CALLBACKS == 1)
        /*Call registered Rx Event callback*/
        huart->RxEventCallback(huart, (huart->RxXferSize - huart->RxXferCount));
#else
        /*Call legacy weak Rx Event callback*/
        HAL_UARTEx_RxEventCallback(huart, (huart->RxXferSize - huart->RxXferCount));
 8002096:	687b      	ldr	r3, [r7, #4]
 8002098:	8d9a      	ldrh	r2, [r3, #44]	@ 0x2c
 800209a:	687b      	ldr	r3, [r7, #4]
 800209c:	8ddb      	ldrh	r3, [r3, #46]	@ 0x2e
 800209e:	b29b      	uxth	r3, r3
 80020a0:	1ad3      	subs	r3, r2, r3
 80020a2:	b29b      	uxth	r3, r3
 80020a4:	4619      	mov	r1, r3
 80020a6:	6878      	ldr	r0, [r7, #4]
 80020a8:	f000 f8b6 	bl	8002218 <HAL_UARTEx_RxEventCallback>
#endif /* USE_HAL_UART_REGISTER_CALLBACKS */
      }
      return;
 80020ac:	e09c      	b.n	80021e8 <HAL_UART_IRQHandler+0x518>
 80020ae:	bf00      	nop
 80020b0:	08002365 	.word	0x08002365
    else
    {
      /* DMA mode not enabled */
      /* Check received length : If all expected data are received, do nothing.
         Otherwise, if at least one data has already been received, IDLE event is to be notified to user */
      uint16_t nb_rx_data = huart->RxXferSize - huart->RxXferCount;
 80020b4:	687b      	ldr	r3, [r7, #4]
 80020b6:	8d9a      	ldrh	r2, [r3, #44]	@ 0x2c
 80020b8:	687b      	ldr	r3, [r7, #4]
 80020ba:	8ddb      	ldrh	r3, [r3, #46]	@ 0x2e
 80020bc:	b29b      	uxth	r3, r3
 80020be:	1ad3      	subs	r3, r2, r3
 80020c0:	f8a7 30ce 	strh.w	r3, [r7, #206]	@ 0xce
      if ((huart->RxXferCount > 0U)
 80020c4:	687b      	ldr	r3, [r7, #4]
 80020c6:	8ddb      	ldrh	r3, [r3, #46]	@ 0x2e
 80020c8:	b29b      	uxth	r3, r3
 80020ca:	2b00      	cmp	r3, #0
 80020cc:	f000 808e 	beq.w	80021ec <HAL_UART_IRQHandler+0x51c>
          && (nb_rx_data > 0U))
 80020d0:	f8b7 30ce 	ldrh.w	r3, [r7, #206]	@ 0xce
 80020d4:	2b00      	cmp	r3, #0
 80020d6:	f000 8089 	beq.w	80021ec <HAL_UART_IRQHandler+0x51c>
      {
        /* Disable the UART Parity Error Interrupt and RXNE interrupts */
        ATOMIC_CLEAR_BIT(huart->Instance->CR1, (USART_CR1_RXNEIE | USART_CR1_PEIE));
 80020da:	687b      	ldr	r3, [r7, #4]
 80020dc:	681b      	ldr	r3, [r3, #0]
 80020de:	330c      	adds	r3, #12
 80020e0:	63bb      	str	r3, [r7, #56]	@ 0x38
   __ASM volatile ("ldrex %0, %1" : "=r" (result) : "Q" (*addr) );
 80020e2:	6bbb      	ldr	r3, [r7, #56]	@ 0x38
 80020e4:	e853 3f00 	ldrex	r3, [r3]
 80020e8:	637b      	str	r3, [r7, #52]	@ 0x34
   return(result);
 80020ea:	6b7b      	ldr	r3, [r7, #52]	@ 0x34
 80020ec:	f423 7390 	bic.w	r3, r3, #288	@ 0x120
 80020f0:	f8c7 30c8 	str.w	r3, [r7, #200]	@ 0xc8
 80020f4:	687b      	ldr	r3, [r7, #4]
 80020f6:	681b      	ldr	r3, [r3, #0]
 80020f8:	330c      	adds	r3, #12
 80020fa:	f8d7 20c8 	ldr.w	r2, [r7, #200]	@ 0xc8
 80020fe:	647a      	str	r2, [r7, #68]	@ 0x44
 8002100:	643b      	str	r3, [r7, #64]	@ 0x40
   __ASM volatile ("strex %0, %2, %1" : "=&r" (result), "=Q" (*addr) : "r" (value) );
 8002102:	6c39      	ldr	r1, [r7, #64]	@ 0x40
 8002104:	6c7a      	ldr	r2, [r7, #68]	@ 0x44
 8002106:	e841 2300 	strex	r3, r2, [r1]
 800210a:	63fb      	str	r3, [r7, #60]	@ 0x3c
   return(result);
 800210c:	6bfb      	ldr	r3, [r7, #60]	@ 0x3c
 800210e:	2b00      	cmp	r3, #0
 8002110:	d1e3      	bne.n	80020da <HAL_UART_IRQHandler+0x40a>

        /* Disable the UART Error Interrupt: (Frame error, noise error, overrun error) */
        ATOMIC_CLEAR_BIT(huart->Instance->CR3, USART_CR3_EIE);
 8002112:	687b      	ldr	r3, [r7, #4]
 8002114:	681b      	ldr	r3, [r3, #0]
 8002116:	3314      	adds	r3, #20
 8002118:	627b      	str	r3, [r7, #36]	@ 0x24
   __ASM volatile ("ldrex %0, %1" : "=r" (result) : "Q" (*addr) );
 800211a:	6a7b      	ldr	r3, [r7, #36]	@ 0x24
 800211c:	e853 3f00 	ldrex	r3, [r3]
 8002120:	623b      	str	r3, [r7, #32]
   return(result);
 8002122:	6a3b      	ldr	r3, [r7, #32]
 8002124:	f023 0301 	bic.w	r3, r3, #1
 8002128:	f8c7 30c4 	str.w	r3, [r7, #196]	@ 0xc4
 800212c:	687b      	ldr	r3, [r7, #4]
 800212e:	681b      	ldr	r3, [r3, #0]
 8002130:	3314      	adds	r3, #20
 8002132:	f8d7 20c4 	ldr.w	r2, [r7, #196]	@ 0xc4
 8002136:	633a      	str	r2, [r7, #48]	@ 0x30
 8002138:	62fb      	str	r3, [r7, #44]	@ 0x2c
   __ASM volatile ("strex %0, %2, %1" : "=&r" (result), "=Q" (*addr) : "r" (value) );
 800213a:	6af9      	ldr	r1, [r7, #44]	@ 0x2c
 800213c:	6b3a      	ldr	r2, [r7, #48]	@ 0x30
 800213e:	e841 2300 	strex	r3, r2, [r1]
 8002142:	62bb      	str	r3, [r7, #40]	@ 0x28
   return(result);
 8002144:	6abb      	ldr	r3, [r7, #40]	@ 0x28
 8002146:	2b00      	cmp	r3, #0
 8002148:	d1e3      	bne.n	8002112 <HAL_UART_IRQHandler+0x442>

        /* Rx process is completed, restore huart->RxState to Ready */
        huart->RxState = HAL_UART_STATE_READY;
 800214a:	687b      	ldr	r3, [r7, #4]
 800214c:	2220      	movs	r2, #32
 800214e:	f883 2042 	strb.w	r2, [r3, #66]	@ 0x42
        huart->ReceptionType = HAL_UART_RECEPTION_STANDARD;
 8002152:	687b      	ldr	r3, [r7, #4]
 8002154:	2200      	movs	r2, #0
 8002156:	631a      	str	r2, [r3, #48]	@ 0x30

        ATOMIC_CLEAR_BIT(huart->Instance->CR1, USART_CR1_IDLEIE);
 8002158:	687b      	ldr	r3, [r7, #4]
 800215a:	681b      	ldr	r3, [r3, #0]
 800215c:	330c      	adds	r3, #12
 800215e:	613b      	str	r3, [r7, #16]
   __ASM volatile ("ldrex %0, %1" : "=r" (result) : "Q" (*addr) );
 8002160:	693b      	ldr	r3, [r7, #16]
 8002162:	e853 3f00 	ldrex	r3, [r3]
 8002166:	60fb      	str	r3, [r7, #12]
   return(result);
 8002168:	68fb      	ldr	r3, [r7, #12]
 800216a:	f023 0310 	bic.w	r3, r3, #16
 800216e:	f8c7 30c0 	str.w	r3, [r7, #192]	@ 0xc0
 8002172:	687b      	ldr	r3, [r7, #4]
 8002174:	681b      	ldr	r3, [r3, #0]
 8002176:	330c      	adds	r3, #12
 8002178:	f8d7 20c0 	ldr.w	r2, [r7, #192]	@ 0xc0
 800217c:	61fa      	str	r2, [r7, #28]
 800217e:	61bb      	str	r3, [r7, #24]
   __ASM volatile ("strex %0, %2, %1" : "=&r" (result), "=Q" (*addr) : "r" (value) );
 8002180:	69b9      	ldr	r1, [r7, #24]
 8002182:	69fa      	ldr	r2, [r7, #28]
 8002184:	e841 2300 	strex	r3, r2, [r1]
 8002188:	617b      	str	r3, [r7, #20]
   return(result);
 800218a:	697b      	ldr	r3, [r7, #20]
 800218c:	2b00      	cmp	r3, #0
 800218e:	d1e3      	bne.n	8002158 <HAL_UART_IRQHandler+0x488>

        /* Initialize type of RxEvent that correspond to RxEvent callback execution;
           In this case, Rx Event type is Idle Event */
        huart->RxEventType = HAL_UART_RXEVENT_IDLE;
 8002190:	687b      	ldr	r3, [r7, #4]
 8002192:	2202      	movs	r2, #2
 8002194:	635a      	str	r2, [r3, #52]	@ 0x34
#if (USE_HAL_UART_REGISTER_CALLBACKS == 1)
        /*Call registered Rx complete callback*/
        huart->RxEventCallback(huart, nb_rx_data);
#else
        /*Call legacy weak Rx Event callback*/
        HAL_UARTEx_RxEventCallback(huart, nb_rx_data);
 8002196:	f8b7 30ce 	ldrh.w	r3, [r7, #206]	@ 0xce
 800219a:	4619      	mov	r1, r3
 800219c:	6878      	ldr	r0, [r7, #4]
 800219e:	f000 f83b 	bl	8002218 <HAL_UARTEx_RxEventCallback>
#endif /* USE_HAL_UART_REGISTER_CALLBACKS */
      }
      return;
 80021a2:	e023      	b.n	80021ec <HAL_UART_IRQHandler+0x51c>
    }
  }

  /* UART in mode Transmitter ------------------------------------------------*/
  if (((isrflags & USART_SR_TXE) != RESET) && ((cr1its & USART_CR1_TXEIE) != RESET))
 80021a4:	f8d7 30e4 	ldr.w	r3, [r7, #228]	@ 0xe4
 80021a8:	f003 0380 	and.w	r3, r3, #128	@ 0x80
 80021ac:	2b00      	cmp	r3, #0
 80021ae:	d009      	beq.n	80021c4 <HAL_UART_IRQHandler+0x4f4>
 80021b0:	f8d7 30e0 	ldr.w	r3, [r7, #224]	@ 0xe0
 80021b4:	f003 0380 	and.w	r3, r3, #128	@ 0x80
 80021b8:	2b00      	cmp	r3, #0
 80021ba:	d003      	beq.n	80021c4 <HAL_UART_IRQHandler+0x4f4>
  {
    UART_Transmit_IT(huart);
 80021bc:	6878      	ldr	r0, [r7, #4]
 80021be:	f000 f8e5 	bl	800238c <UART_Transmit_IT>
    return;
 80021c2:	e014      	b.n	80021ee <HAL_UART_IRQHandler+0x51e>
  }

  /* UART in mode Transmitter end --------------------------------------------*/
  if (((isrflags & USART_SR_TC) != RESET) && ((cr1its & USART_CR1_TCIE) != RESET))
 80021c4:	f8d7 30e4 	ldr.w	r3, [r7, #228]	@ 0xe4
 80021c8:	f003 0340 	and.w	r3, r3, #64	@ 0x40
 80021cc:	2b00      	cmp	r3, #0
 80021ce:	d00e      	beq.n	80021ee <HAL_UART_IRQHandler+0x51e>
 80021d0:	f8d7 30e0 	ldr.w	r3, [r7, #224]	@ 0xe0
 80021d4:	f003 0340 	and.w	r3, r3, #64	@ 0x40
 80021d8:	2b00      	cmp	r3, #0
 80021da:	d008      	beq.n	80021ee <HAL_UART_IRQHandler+0x51e>
  {
    UART_EndTransmit_IT(huart);
 80021dc:	6878      	ldr	r0, [r7, #4]
 80021de:	f000 f924 	bl	800242a <UART_EndTransmit_IT>
    return;
 80021e2:	e004      	b.n	80021ee <HAL_UART_IRQHandler+0x51e>
    return;
 80021e4:	bf00      	nop
 80021e6:	e002      	b.n	80021ee <HAL_UART_IRQHandler+0x51e>
      return;
 80021e8:	bf00      	nop
 80021ea:	e000      	b.n	80021ee <HAL_UART_IRQHandler+0x51e>
      return;
 80021ec:	bf00      	nop
  }
}
 80021ee:	37e8      	adds	r7, #232	@ 0xe8
 80021f0:	46bd      	mov	sp, r7
 80021f2:	bd80      	pop	{r7, pc}

080021f4 <HAL_UART_TxCpltCallback>:
  * @param  huart  Pointer to a UART_HandleTypeDef structure that contains
  *                the configuration information for the specified UART module.
  * @retval None
  */
__weak void HAL_UART_TxCpltCallback(UART_HandleTypeDef *huart)
{
 80021f4:	b480      	push	{r7}
 80021f6:	b083      	sub	sp, #12
 80021f8:	af00      	add	r7, sp, #0
 80021fa:	6078      	str	r0, [r7, #4]
  /* Prevent unused argument(s) compilation warning */
  UNUSED(huart);
  /* NOTE: This function should not be modified, when the callback is needed,
           the HAL_UART_TxCpltCallback could be implemented in the user file
   */
}
 80021fc:	bf00      	nop
 80021fe:	370c      	adds	r7, #12
 8002200:	46bd      	mov	sp, r7
 8002202:	bc80      	pop	{r7}
 8002204:	4770      	bx	lr

08002206 <HAL_UART_ErrorCallback>:
  * @param  huart  Pointer to a UART_HandleTypeDef structure that contains
  *                the configuration information for the specified UART module.
  * @retval None
  */
__weak void HAL_UART_ErrorCallback(UART_HandleTypeDef *huart)
{
 8002206:	b480      	push	{r7}
 8002208:	b083      	sub	sp, #12
 800220a:	af00      	add	r7, sp, #0
 800220c:	6078      	str	r0, [r7, #4]
  /* Prevent unused argument(s) compilation warning */
  UNUSED(huart);
  /* NOTE: This function should not be modified, when the callback is needed,
           the HAL_UART_ErrorCallback could be implemented in the user file
   */
}
 800220e:	bf00      	nop
 8002210:	370c      	adds	r7, #12
 8002212:	46bd      	mov	sp, r7
 8002214:	bc80      	pop	{r7}
 8002216:	4770      	bx	lr

08002218 <HAL_UARTEx_RxEventCallback>:
  * @param  Size  Number of data available in application reception buffer (indicates a position in
  *               reception buffer until which, data are available)
  * @retval None
  */
__weak void HAL_UARTEx_RxEventCallback(UART_HandleTypeDef *huart, uint16_t Size)
{
 8002218:	b480      	push	{r7}
 800221a:	b083      	sub	sp, #12
 800221c:	af00      	add	r7, sp, #0
 800221e:	6078      	str	r0, [r7, #4]
 8002220:	460b      	mov	r3, r1
 8002222:	807b      	strh	r3, [r7, #2]
  UNUSED(Size);

  /* NOTE : This function should not be modified, when the callback is needed,
            the HAL_UARTEx_RxEventCallback can be implemented in the user file.
   */
}
 8002224:	bf00      	nop
 8002226:	370c      	adds	r7, #12
 8002228:	46bd      	mov	sp, r7
 800222a:	bc80      	pop	{r7}
 800222c:	4770      	bx	lr

0800222e <UART_Start_Receive_IT>:
  * @param  pData Pointer to data buffer (u8 or u16 data elements).
  * @param  Size  Amount of data elements (u8 or u16) to be received.
  * @retval HAL status
  */
HAL_StatusTypeDef UART_Start_Receive_IT(UART_HandleTypeDef *huart, uint8_t *pData, uint16_t Size)
{
 800222e:	b480      	push	{r7}
 8002230:	b085      	sub	sp, #20
 8002232:	af00      	add	r7, sp, #0
 8002234:	60f8      	str	r0, [r7, #12]
 8002236:	60b9      	str	r1, [r7, #8]
 8002238:	4613      	mov	r3, r2
 800223a:	80fb      	strh	r3, [r7, #6]
  huart->pRxBuffPtr = pData;
 800223c:	68fb      	ldr	r3, [r7, #12]
 800223e:	68ba      	ldr	r2, [r7, #8]
 8002240:	629a      	str	r2, [r3, #40]	@ 0x28
  huart->RxXferSize = Size;
 8002242:	68fb      	ldr	r3, [r7, #12]
 8002244:	88fa      	ldrh	r2, [r7, #6]
 8002246:	859a      	strh	r2, [r3, #44]	@ 0x2c
  huart->RxXferCount = Size;
 8002248:	68fb      	ldr	r3, [r7, #12]
 800224a:	88fa      	ldrh	r2, [r7, #6]
 800224c:	85da      	strh	r2, [r3, #46]	@ 0x2e

  huart->ErrorCode = HAL_UART_ERROR_NONE;
 800224e:	68fb      	ldr	r3, [r7, #12]
 8002250:	2200      	movs	r2, #0
 8002252:	645a      	str	r2, [r3, #68]	@ 0x44
  huart->RxState = HAL_UART_STATE_BUSY_RX;
 8002254:	68fb      	ldr	r3, [r7, #12]
 8002256:	2222      	movs	r2, #34	@ 0x22
 8002258:	f883 2042 	strb.w	r2, [r3, #66]	@ 0x42

  if (huart->Init.Parity != UART_PARITY_NONE)
 800225c:	68fb      	ldr	r3, [r7, #12]
 800225e:	691b      	ldr	r3, [r3, #16]
 8002260:	2b00      	cmp	r3, #0
 8002262:	d007      	beq.n	8002274 <UART_Start_Receive_IT+0x46>
  {
    /* Enable the UART Parity Error Interrupt */
    __HAL_UART_ENABLE_IT(huart, UART_IT_PE);
 8002264:	68fb      	ldr	r3, [r7, #12]
 8002266:	681b      	ldr	r3, [r3, #0]
 8002268:	68da      	ldr	r2, [r3, #12]
 800226a:	68fb      	ldr	r3, [r7, #12]
 800226c:	681b      	ldr	r3, [r3, #0]
 800226e:	f442 7280 	orr.w	r2, r2, #256	@ 0x100
 8002272:	60da      	str	r2, [r3, #12]
  }

  /* Enable the UART Error Interrupt: (Frame error, noise error, overrun error) */
  __HAL_UART_ENABLE_IT(huart, UART_IT_ERR);
 8002274:	68fb      	ldr	r3, [r7, #12]
 8002276:	681b      	ldr	r3, [r3, #0]
 8002278:	695a      	ldr	r2, [r3, #20]
 800227a:	68fb      	ldr	r3, [r7, #12]
 800227c:	681b      	ldr	r3, [r3, #0]
 800227e:	f042 0201 	orr.w	r2, r2, #1
 8002282:	615a      	str	r2, [r3, #20]

  /* Enable the UART Data Register not empty Interrupt */
  __HAL_UART_ENABLE_IT(huart, UART_IT_RXNE);
 8002284:	68fb      	ldr	r3, [r7, #12]
 8002286:	681b      	ldr	r3, [r3, #0]
 8002288:	68da      	ldr	r2, [r3, #12]
 800228a:	68fb      	ldr	r3, [r7, #12]
 800228c:	681b      	ldr	r3, [r3, #0]
 800228e:	f042 0220 	orr.w	r2, r2, #32
 8002292:	60da      	str	r2, [r3, #12]

  return HAL_OK;
 8002294:	2300      	movs	r3, #0
}
 8002296:	4618      	mov	r0, r3
 8002298:	3714      	adds	r7, #20
 800229a:	46bd      	mov	sp, r7
 800229c:	bc80      	pop	{r7}
 800229e:	4770      	bx	lr

080022a0 <UART_EndRxTransfer>:
  * @brief  End ongoing Rx transfer on UART peripheral (following error detection or Reception completion).
  * @param  huart UART handle.
  * @retval None
  */
static void UART_EndRxTransfer(UART_HandleTypeDef *huart)
{
 80022a0:	b480      	push	{r7}
 80022a2:	b095      	sub	sp, #84	@ 0x54
 80022a4:	af00      	add	r7, sp, #0
 80022a6:	6078      	str	r0, [r7, #4]
  /* Disable RXNE, PE and ERR (Frame error, noise error, overrun error) interrupts */
  ATOMIC_CLEAR_BIT(huart->Instance->CR1, (USART_CR1_RXNEIE | USART_CR1_PEIE));
 80022a8:	687b      	ldr	r3, [r7, #4]
 80022aa:	681b      	ldr	r3, [r3, #0]
 80022ac:	330c      	adds	r3, #12
 80022ae:	637b      	str	r3, [r7, #52]	@ 0x34
   __ASM volatile ("ldrex %0, %1" : "=r" (result) : "Q" (*addr) );
 80022b0:	6b7b      	ldr	r3, [r7, #52]	@ 0x34
 80022b2:	e853 3f00 	ldrex	r3, [r3]
 80022b6:	633b      	str	r3, [r7, #48]	@ 0x30
   return(result);
 80022b8:	6b3b      	ldr	r3, [r7, #48]	@ 0x30
 80022ba:	f423 7390 	bic.w	r3, r3, #288	@ 0x120
 80022be:	64fb      	str	r3, [r7, #76]	@ 0x4c
 80022c0:	687b      	ldr	r3, [r7, #4]
 80022c2:	681b      	ldr	r3, [r3, #0]
 80022c4:	330c      	adds	r3, #12
 80022c6:	6cfa      	ldr	r2, [r7, #76]	@ 0x4c
 80022c8:	643a      	str	r2, [r7, #64]	@ 0x40
 80022ca:	63fb      	str	r3, [r7, #60]	@ 0x3c
   __ASM volatile ("strex %0, %2, %1" : "=&r" (result), "=Q" (*addr) : "r" (value) );
 80022cc:	6bf9      	ldr	r1, [r7, #60]	@ 0x3c
 80022ce:	6c3a      	ldr	r2, [r7, #64]	@ 0x40
 80022d0:	e841 2300 	strex	r3, r2, [r1]
 80022d4:	63bb      	str	r3, [r7, #56]	@ 0x38
   return(result);
 80022d6:	6bbb      	ldr	r3, [r7, #56]	@ 0x38
 80022d8:	2b00      	cmp	r3, #0
 80022da:	d1e5      	bne.n	80022a8 <UART_EndRxTransfer+0x8>
  ATOMIC_CLEAR_BIT(huart->Instance->CR3, USART_CR3_EIE);
 80022dc:	687b      	ldr	r3, [r7, #4]
 80022de:	681b      	ldr	r3, [r3, #0]
 80022e0:	3314      	adds	r3, #20
 80022e2:	623b      	str	r3, [r7, #32]
   __ASM volatile ("ldrex %0, %1" : "=r" (result) : "Q" (*addr) );
 80022e4:	6a3b      	ldr	r3, [r7, #32]
 80022e6:	e853 3f00 	ldrex	r3, [r3]
 80022ea:	61fb      	str	r3, [r7, #28]
   return(result);
 80022ec:	69fb      	ldr	r3, [r7, #28]
 80022ee:	f023 0301 	bic.w	r3, r3, #1
 80022f2:	64bb      	str	r3, [r7, #72]	@ 0x48
 80022f4:	687b      	ldr	r3, [r7, #4]
 80022f6:	681b      	ldr	r3, [r3, #0]
 80022f8:	3314      	adds	r3, #20
 80022fa:	6cba      	ldr	r2, [r7, #72]	@ 0x48
 80022fc:	62fa      	str	r2, [r7, #44]	@ 0x2c
 80022fe:	62bb      	str	r3, [r7, #40]	@ 0x28
   __ASM volatile ("strex %0, %2, %1" : "=&r" (result), "=Q" (*addr) : "r" (value) );
 8002300:	6ab9      	ldr	r1, [r7, #40]	@ 0x28
 8002302:	6afa      	ldr	r2, [r7, #44]	@ 0x2c
 8002304:	e841 2300 	strex	r3, r2, [r1]
 8002308:	627b      	str	r3, [r7, #36]	@ 0x24
   return(result);
 800230a:	6a7b      	ldr	r3, [r7, #36]	@ 0x24
 800230c:	2b00      	cmp	r3, #0
 800230e:	d1e5      	bne.n	80022dc <UART_EndRxTransfer+0x3c>

  /* In case of reception waiting for IDLE event, disable also the IDLE IE interrupt source */
  if (huart->ReceptionType == HAL_UART_RECEPTION_TOIDLE)
 8002310:	687b      	ldr	r3, [r7, #4]
 8002312:	6b1b      	ldr	r3, [r3, #48]	@ 0x30
 8002314:	2b01      	cmp	r3, #1
 8002316:	d119      	bne.n	800234c <UART_EndRxTransfer+0xac>
  {
    ATOMIC_CLEAR_BIT(huart->Instance->CR1, USART_CR1_IDLEIE);
 8002318:	687b      	ldr	r3, [r7, #4]
 800231a:	681b      	ldr	r3, [r3, #0]
 800231c:	330c      	adds	r3, #12
 800231e:	60fb      	str	r3, [r7, #12]
   __ASM volatile ("ldrex %0, %1" : "=r" (result) : "Q" (*addr) );
 8002320:	68fb      	ldr	r3, [r7, #12]
 8002322:	e853 3f00 	ldrex	r3, [r3]
 8002326:	60bb      	str	r3, [r7, #8]
   return(result);
 8002328:	68bb      	ldr	r3, [r7, #8]
 800232a:	f023 0310 	bic.w	r3, r3, #16
 800232e:	647b      	str	r3, [r7, #68]	@ 0x44
 8002330:	687b      	ldr	r3, [r7, #4]
 8002332:	681b      	ldr	r3, [r3, #0]
 8002334:	330c      	adds	r3, #12
 8002336:	6c7a      	ldr	r2, [r7, #68]	@ 0x44
 8002338:	61ba      	str	r2, [r7, #24]
 800233a:	617b      	str	r3, [r7, #20]
   __ASM volatile ("strex %0, %2, %1" : "=&r" (result), "=Q" (*addr) : "r" (value) );
 800233c:	6979      	ldr	r1, [r7, #20]
 800233e:	69ba      	ldr	r2, [r7, #24]
 8002340:	e841 2300 	strex	r3, r2, [r1]
 8002344:	613b      	str	r3, [r7, #16]
   return(result);
 8002346:	693b      	ldr	r3, [r7, #16]
 8002348:	2b00      	cmp	r3, #0
 800234a:	d1e5      	bne.n	8002318 <UART_EndRxTransfer+0x78>
  }

  /* At end of Rx process, restore huart->RxState to Ready */
  huart->RxState = HAL_UART_STATE_READY;
 800234c:	687b      	ldr	r3, [r7, #4]
 800234e:	2220      	movs	r2, #32
 8002350:	f883 2042 	strb.w	r2, [r3, #66]	@ 0x42
  huart->ReceptionType = HAL_UART_RECEPTION_STANDARD;
 8002354:	687b      	ldr	r3, [r7, #4]
 8002356:	2200      	movs	r2, #0
 8002358:	631a      	str	r2, [r3, #48]	@ 0x30
}
 800235a:	bf00      	nop
 800235c:	3754      	adds	r7, #84	@ 0x54
 800235e:	46bd      	mov	sp, r7
 8002360:	bc80      	pop	{r7}
 8002362:	4770      	bx	lr

08002364 <UART_DMAAbortOnError>:
  * @param  hdma  Pointer to a DMA_HandleTypeDef structure that contains
  *               the configuration information for the specified DMA module.
  * @retval None
  */
static void UART_DMAAbortOnError(DMA_HandleTypeDef *hdma)
{
 8002364:	b580      	push	{r7, lr}
 8002366:	b084      	sub	sp, #16
 8002368:	af00      	add	r7, sp, #0
 800236a:	6078      	str	r0, [r7, #4]
  UART_HandleTypeDef *huart = (UART_HandleTypeDef *)((DMA_HandleTypeDef *)hdma)->Parent;
 800236c:	687b      	ldr	r3, [r7, #4]
 800236e:	6a5b      	ldr	r3, [r3, #36]	@ 0x24
 8002370:	60fb      	str	r3, [r7, #12]
  huart->RxXferCount = 0x00U;
 8002372:	68fb      	ldr	r3, [r7, #12]
 8002374:	2200      	movs	r2, #0
 8002376:	85da      	strh	r2, [r3, #46]	@ 0x2e
  huart->TxXferCount = 0x00U;
 8002378:	68fb      	ldr	r3, [r7, #12]
 800237a:	2200      	movs	r2, #0
 800237c:	84da      	strh	r2, [r3, #38]	@ 0x26
#if (USE_HAL_UART_REGISTER_CALLBACKS == 1)
  /*Call registered error callback*/
  huart->ErrorCallback(huart);
#else
  /*Call legacy weak error callback*/
  HAL_UART_ErrorCallback(huart);
 800237e:	68f8      	ldr	r0, [r7, #12]
 8002380:	f7ff ff41 	bl	8002206 <HAL_UART_ErrorCallback>
#endif /* USE_HAL_UART_REGISTER_CALLBACKS */
}
 8002384:	bf00      	nop
 8002386:	3710      	adds	r7, #16
 8002388:	46bd      	mov	sp, r7
 800238a:	bd80      	pop	{r7, pc}

0800238c <UART_Transmit_IT>:
  * @param  huart  Pointer to a UART_HandleTypeDef structure that contains
  *                the configuration information for the specified UART module.
  * @retval HAL status
  */
static HAL_StatusTypeDef UART_Transmit_IT(UART_HandleTypeDef *huart)
{
 800238c:	b480      	push	{r7}
 800238e:	b085      	sub	sp, #20
 8002390:	af00      	add	r7, sp, #0
 8002392:	6078      	str	r0, [r7, #4]
  const uint16_t *tmp;

  /* Check that a Tx process is ongoing */
  if (huart->gState == HAL_UART_STATE_BUSY_TX)
 8002394:	687b      	ldr	r3, [r7, #4]
 8002396:	f893 3041 	ldrb.w	r3, [r3, #65]	@ 0x41
 800239a:	b2db      	uxtb	r3, r3
 800239c:	2b21      	cmp	r3, #33	@ 0x21
 800239e:	d13e      	bne.n	800241e <UART_Transmit_IT+0x92>
  {
    if ((huart->Init.WordLength == UART_WORDLENGTH_9B) && (huart->Init.Parity == UART_PARITY_NONE))
 80023a0:	687b      	ldr	r3, [r7, #4]
 80023a2:	689b      	ldr	r3, [r3, #8]
 80023a4:	f5b3 5f80 	cmp.w	r3, #4096	@ 0x1000
 80023a8:	d114      	bne.n	80023d4 <UART_Transmit_IT+0x48>
 80023aa:	687b      	ldr	r3, [r7, #4]
 80023ac:	691b      	ldr	r3, [r3, #16]
 80023ae:	2b00      	cmp	r3, #0
 80023b0:	d110      	bne.n	80023d4 <UART_Transmit_IT+0x48>
    {
      tmp = (const uint16_t *) huart->pTxBuffPtr;
 80023b2:	687b      	ldr	r3, [r7, #4]
 80023b4:	6a1b      	ldr	r3, [r3, #32]
 80023b6:	60fb      	str	r3, [r7, #12]
      huart->Instance->DR = (uint16_t)(*tmp & (uint16_t)0x01FF);
 80023b8:	68fb      	ldr	r3, [r7, #12]
 80023ba:	881b      	ldrh	r3, [r3, #0]
 80023bc:	461a      	mov	r2, r3
 80023be:	687b      	ldr	r3, [r7, #4]
 80023c0:	681b      	ldr	r3, [r3, #0]
 80023c2:	f3c2 0208 	ubfx	r2, r2, #0, #9
 80023c6:	605a      	str	r2, [r3, #4]
      huart->pTxBuffPtr += 2U;
 80023c8:	687b      	ldr	r3, [r7, #4]
 80023ca:	6a1b      	ldr	r3, [r3, #32]
 80023cc:	1c9a      	adds	r2, r3, #2
 80023ce:	687b      	ldr	r3, [r7, #4]
 80023d0:	621a      	str	r2, [r3, #32]
 80023d2:	e008      	b.n	80023e6 <UART_Transmit_IT+0x5a>
    }
    else
    {
      huart->Instance->DR = (uint8_t)(*huart->pTxBuffPtr++ & (uint8_t)0x00FF);
 80023d4:	687b      	ldr	r3, [r7, #4]
 80023d6:	6a1b      	ldr	r3, [r3, #32]
 80023d8:	1c59      	adds	r1, r3, #1
 80023da:	687a      	ldr	r2, [r7, #4]
 80023dc:	6211      	str	r1, [r2, #32]
 80023de:	781a      	ldrb	r2, [r3, #0]
 80023e0:	687b      	ldr	r3, [r7, #4]
 80023e2:	681b      	ldr	r3, [r3, #0]
 80023e4:	605a      	str	r2, [r3, #4]
    }

    if (--huart->TxXferCount == 0U)
 80023e6:	687b      	ldr	r3, [r7, #4]
 80023e8:	8cdb      	ldrh	r3, [r3, #38]	@ 0x26
 80023ea:	b29b      	uxth	r3, r3
 80023ec:	3b01      	subs	r3, #1
 80023ee:	b29b      	uxth	r3, r3
 80023f0:	687a      	ldr	r2, [r7, #4]
 80023f2:	4619      	mov	r1, r3
 80023f4:	84d1      	strh	r1, [r2, #38]	@ 0x26
 80023f6:	2b00      	cmp	r3, #0
 80023f8:	d10f      	bne.n	800241a <UART_Transmit_IT+0x8e>
    {
      /* Disable the UART Transmit Data Register Empty Interrupt */
      __HAL_UART_DISABLE_IT(huart, UART_IT_TXE);
 80023fa:	687b      	ldr	r3, [r7, #4]
 80023fc:	681b      	ldr	r3, [r3, #0]
 80023fe:	68da      	ldr	r2, [r3, #12]
 8002400:	687b      	ldr	r3, [r7, #4]
 8002402:	681b      	ldr	r3, [r3, #0]
 8002404:	f022 0280 	bic.w	r2, r2, #128	@ 0x80
 8002408:	60da      	str	r2, [r3, #12]

      /* Enable the UART Transmit Complete Interrupt */
      __HAL_UART_ENABLE_IT(huart, UART_IT_TC);
 800240a:	687b      	ldr	r3, [r7, #4]
 800240c:	681b      	ldr	r3, [r3, #0]
 800240e:	68da      	ldr	r2, [r3, #12]
 8002410:	687b      	ldr	r3, [r7, #4]
 8002412:	681b      	ldr	r3, [r3, #0]
 8002414:	f042 0240 	orr.w	r2, r2, #64	@ 0x40
 8002418:	60da      	str	r2, [r3, #12]
    }
    return HAL_OK;
 800241a:	2300      	movs	r3, #0
 800241c:	e000      	b.n	8002420 <UART_Transmit_IT+0x94>
  }
  else
  {
    return HAL_BUSY;
 800241e:	2302      	movs	r3, #2
  }
}
 8002420:	4618      	mov	r0, r3
 8002422:	3714      	adds	r7, #20
 8002424:	46bd      	mov	sp, r7
 8002426:	bc80      	pop	{r7}
 8002428:	4770      	bx	lr

0800242a <UART_EndTransmit_IT>:
  * @param  huart  Pointer to a UART_HandleTypeDef structure that contains
  *                the configuration information for the specified UART module.
  * @retval HAL status
  */
static HAL_StatusTypeDef UART_EndTransmit_IT(UART_HandleTypeDef *huart)
{
 800242a:	b580      	push	{r7, lr}
 800242c:	b082      	sub	sp, #8
 800242e:	af00      	add	r7, sp, #0
 8002430:	6078      	str	r0, [r7, #4]
  /* Disable the UART Transmit Complete Interrupt */
  __HAL_UART_DISABLE_IT(huart, UART_IT_TC);
 8002432:	687b      	ldr	r3, [r7, #4]
 8002434:	681b      	ldr	r3, [r3, #0]
 8002436:	68da      	ldr	r2, [r3, #12]
 8002438:	687b      	ldr	r3, [r7, #4]
 800243a:	681b      	ldr	r3, [r3, #0]
 800243c:	f022 0240 	bic.w	r2, r2, #64	@ 0x40
 8002440:	60da      	str	r2, [r3, #12]

  /* Tx process is ended, restore huart->gState to Ready */
  huart->gState = HAL_UART_STATE_READY;
 8002442:	687b      	ldr	r3, [r7, #4]
 8002444:	2220      	movs	r2, #32
 8002446:	f883 2041 	strb.w	r2, [r3, #65]	@ 0x41
#if (USE_HAL_UART_REGISTER_CALLBACKS == 1)
  /*Call registered Tx complete callback*/
  huart->TxCpltCallback(huart);
#else
  /*Call legacy weak Tx complete callback*/
  HAL_UART_TxCpltCallback(huart);
 800244a:	6878      	ldr	r0, [r7, #4]
 800244c:	f7ff fed2 	bl	80021f4 <HAL_UART_TxCpltCallback>
#endif /* USE_HAL_UART_REGISTER_CALLBACKS */

  return HAL_OK;
 8002450:	2300      	movs	r3, #0
}
 8002452:	4618      	mov	r0, r3
 8002454:	3708      	adds	r7, #8
 8002456:	46bd      	mov	sp, r7
 8002458:	bd80      	pop	{r7, pc}

0800245a <UART_Receive_IT>:
  * @param  huart  Pointer to a UART_HandleTypeDef structure that contains
  *                the configuration information for the specified UART module.
  * @retval HAL status
  */
static HAL_StatusTypeDef UART_Receive_IT(UART_HandleTypeDef *huart)
{
 800245a:	b580      	push	{r7, lr}
 800245c:	b08c      	sub	sp, #48	@ 0x30
 800245e:	af00      	add	r7, sp, #0
 8002460:	6078      	str	r0, [r7, #4]
  uint8_t  *pdata8bits;
  uint16_t *pdata16bits;

  /* Check that a Rx process is ongoing */
  if (huart->RxState == HAL_UART_STATE_BUSY_RX)
 8002462:	687b      	ldr	r3, [r7, #4]
 8002464:	f893 3042 	ldrb.w	r3, [r3, #66]	@ 0x42
 8002468:	b2db      	uxtb	r3, r3
 800246a:	2b22      	cmp	r3, #34	@ 0x22
 800246c:	f040 80ae 	bne.w	80025cc <UART_Receive_IT+0x172>
  {
    if ((huart->Init.WordLength == UART_WORDLENGTH_9B) && (huart->Init.Parity == UART_PARITY_NONE))
 8002470:	687b      	ldr	r3, [r7, #4]
 8002472:	689b      	ldr	r3, [r3, #8]
 8002474:	f5b3 5f80 	cmp.w	r3, #4096	@ 0x1000
 8002478:	d117      	bne.n	80024aa <UART_Receive_IT+0x50>
 800247a:	687b      	ldr	r3, [r7, #4]
 800247c:	691b      	ldr	r3, [r3, #16]
 800247e:	2b00      	cmp	r3, #0
 8002480:	d113      	bne.n	80024aa <UART_Receive_IT+0x50>
    {
      pdata8bits  = NULL;
 8002482:	2300      	movs	r3, #0
 8002484:	62fb      	str	r3, [r7, #44]	@ 0x2c
      pdata16bits = (uint16_t *) huart->pRxBuffPtr;
 8002486:	687b      	ldr	r3, [r7, #4]
 8002488:	6a9b      	ldr	r3, [r3, #40]	@ 0x28
 800248a:	62bb      	str	r3, [r7, #40]	@ 0x28
      *pdata16bits = (uint16_t)(huart->Instance->DR & (uint16_t)0x01FF);
 800248c:	687b      	ldr	r3, [r7, #4]
 800248e:	681b      	ldr	r3, [r3, #0]
 8002490:	685b      	ldr	r3, [r3, #4]
 8002492:	b29b      	uxth	r3, r3
 8002494:	f3c3 0308 	ubfx	r3, r3, #0, #9
 8002498:	b29a      	uxth	r2, r3
 800249a:	6abb      	ldr	r3, [r7, #40]	@ 0x28
 800249c:	801a      	strh	r2, [r3, #0]
      huart->pRxBuffPtr += 2U;
 800249e:	687b      	ldr	r3, [r7, #4]
 80024a0:	6a9b      	ldr	r3, [r3, #40]	@ 0x28
 80024a2:	1c9a      	adds	r2, r3, #2
 80024a4:	687b      	ldr	r3, [r7, #4]
 80024a6:	629a      	str	r2, [r3, #40]	@ 0x28
 80024a8:	e026      	b.n	80024f8 <UART_Receive_IT+0x9e>
    }
    else
    {
      pdata8bits = (uint8_t *) huart->pRxBuffPtr;
 80024aa:	687b      	ldr	r3, [r7, #4]
 80024ac:	6a9b      	ldr	r3, [r3, #40]	@ 0x28
 80024ae:	62fb      	str	r3, [r7, #44]	@ 0x2c
      pdata16bits  = NULL;
 80024b0:	2300      	movs	r3, #0
 80024b2:	62bb      	str	r3, [r7, #40]	@ 0x28

      if ((huart->Init.WordLength == UART_WORDLENGTH_9B) || ((huart->Init.WordLength == UART_WORDLENGTH_8B) && (huart->Init.Parity == UART_PARITY_NONE)))
 80024b4:	687b      	ldr	r3, [r7, #4]
 80024b6:	689b      	ldr	r3, [r3, #8]
 80024b8:	f5b3 5f80 	cmp.w	r3, #4096	@ 0x1000
 80024bc:	d007      	beq.n	80024ce <UART_Receive_IT+0x74>
 80024be:	687b      	ldr	r3, [r7, #4]
 80024c0:	689b      	ldr	r3, [r3, #8]
 80024c2:	2b00      	cmp	r3, #0
 80024c4:	d10a      	bne.n	80024dc <UART_Receive_IT+0x82>
 80024c6:	687b      	ldr	r3, [r7, #4]
 80024c8:	691b      	ldr	r3, [r3, #16]
 80024ca:	2b00      	cmp	r3, #0
 80024cc:	d106      	bne.n	80024dc <UART_Receive_IT+0x82>
      {
        *pdata8bits = (uint8_t)(huart->Instance->DR & (uint8_t)0x00FF);
 80024ce:	687b      	ldr	r3, [r7, #4]
 80024d0:	681b      	ldr	r3, [r3, #0]
 80024d2:	685b      	ldr	r3, [r3, #4]
 80024d4:	b2da      	uxtb	r2, r3
 80024d6:	6afb      	ldr	r3, [r7, #44]	@ 0x2c
 80024d8:	701a      	strb	r2, [r3, #0]
 80024da:	e008      	b.n	80024ee <UART_Receive_IT+0x94>
      }
      else
      {
        *pdata8bits = (uint8_t)(huart->Instance->DR & (uint8_t)0x007F);
 80024dc:	687b      	ldr	r3, [r7, #4]
 80024de:	681b      	ldr	r3, [r3, #0]
 80024e0:	685b      	ldr	r3, [r3, #4]
 80024e2:	b2db      	uxtb	r3, r3
 80024e4:	f003 037f 	and.w	r3, r3, #127	@ 0x7f
 80024e8:	b2da      	uxtb	r2, r3
 80024ea:	6afb      	ldr	r3, [r7, #44]	@ 0x2c
 80024ec:	701a      	strb	r2, [r3, #0]
      }
      huart->pRxBuffPtr += 1U;
 80024ee:	687b      	ldr	r3, [r7, #4]
 80024f0:	6a9b      	ldr	r3, [r3, #40]	@ 0x28
 80024f2:	1c5a      	adds	r2, r3, #1
 80024f4:	687b      	ldr	r3, [r7, #4]
 80024f6:	629a      	str	r2, [r3, #40]	@ 0x28
    }

    if (--huart->RxXferCount == 0U)
 80024f8:	687b      	ldr	r3, [r7, #4]
 80024fa:	8ddb      	ldrh	r3, [r3, #46]	@ 0x2e
 80024fc:	b29b      	uxth	r3, r3
 80024fe:	3b01      	subs	r3, #1
 8002500:	b29b      	uxth	r3, r3
 8002502:	687a      	ldr	r2, [r7, #4]
 8002504:	4619      	mov	r1, r3
 8002506:	85d1      	strh	r1, [r2, #46]	@ 0x2e
 8002508:	2b00      	cmp	r3, #0
 800250a:	d15d      	bne.n	80025c8 <UART_Receive_IT+0x16e>
    {
      /* Disable the UART Data Register not empty Interrupt */
      __HAL_UART_DISABLE_IT(huart, UART_IT_RXNE);
 800250c:	687b      	ldr	r3, [r7, #4]
 800250e:	681b      	ldr	r3, [r3, #0]
 8002510:	68da      	ldr	r2, [r3, #12]
 8002512:	687b      	ldr	r3, [r7, #4]
 8002514:	681b      	ldr	r3, [r3, #0]
 8002516:	f022 0220 	bic.w	r2, r2, #32
 800251a:	60da      	str	r2, [r3, #12]

      /* Disable the UART Parity Error Interrupt */
      __HAL_UART_DISABLE_IT(huart, UART_IT_PE);
 800251c:	687b      	ldr	r3, [r7, #4]
 800251e:	681b      	ldr	r3, [r3, #0]
 8002520:	68da      	ldr	r2, [r3, #12]
 8002522:	687b      	ldr	r3, [r7, #4]
 8002524:	681b      	ldr	r3, [r3, #0]
 8002526:	f422 7280 	bic.w	r2, r2, #256	@ 0x100
 800252a:	60da      	str	r2, [r3, #12]

      /* Disable the UART Error Interrupt: (Frame error, noise error, overrun error) */
      __HAL_UART_DISABLE_IT(huart, UART_IT_ERR);
 800252c:	687b      	ldr	r3, [r7, #4]
 800252e:	681b      	ldr	r3, [r3, #0]
 8002530:	695a      	ldr	r2, [r3, #20]
 8002532:	687b      	ldr	r3, [r7, #4]
 8002534:	681b      	ldr	r3, [r3, #0]
 8002536:	f022 0201 	bic.w	r2, r2, #1
 800253a:	615a      	str	r2, [r3, #20]

      /* Rx process is completed, restore huart->RxState to Ready */
      huart->RxState = HAL_UART_STATE_READY;
 800253c:	687b      	ldr	r3, [r7, #4]
 800253e:	2220      	movs	r2, #32
 8002540:	f883 2042 	strb.w	r2, [r3, #66]	@ 0x42

      /* Initialize type of RxEvent to Transfer Complete */
      huart->RxEventType = HAL_UART_RXEVENT_TC;
 8002544:	687b      	ldr	r3, [r7, #4]
 8002546:	2200      	movs	r2, #0
 8002548:	635a      	str	r2, [r3, #52]	@ 0x34

      /* Check current reception Mode :
         If Reception till IDLE event has been selected : */
      if (huart->ReceptionType == HAL_UART_RECEPTION_TOIDLE)
 800254a:	687b      	ldr	r3, [r7, #4]
 800254c:	6b1b      	ldr	r3, [r3, #48]	@ 0x30
 800254e:	2b01      	cmp	r3, #1
 8002550:	d135      	bne.n	80025be <UART_Receive_IT+0x164>
      {
        /* Set reception type to Standard */
        huart->ReceptionType = HAL_UART_RECEPTION_STANDARD;
 8002552:	687b      	ldr	r3, [r7, #4]
 8002554:	2200      	movs	r2, #0
 8002556:	631a      	str	r2, [r3, #48]	@ 0x30

        /* Disable IDLE interrupt */
        ATOMIC_CLEAR_BIT(huart->Instance->CR1, USART_CR1_IDLEIE);
 8002558:	687b      	ldr	r3, [r7, #4]
 800255a:	681b      	ldr	r3, [r3, #0]
 800255c:	330c      	adds	r3, #12
 800255e:	617b      	str	r3, [r7, #20]
   __ASM volatile ("ldrex %0, %1" : "=r" (result) : "Q" (*addr) );
 8002560:	697b      	ldr	r3, [r7, #20]
 8002562:	e853 3f00 	ldrex	r3, [r3]
 8002566:	613b      	str	r3, [r7, #16]
   return(result);
 8002568:	693b      	ldr	r3, [r7, #16]
 800256a:	f023 0310 	bic.w	r3, r3, #16
 800256e:	627b      	str	r3, [r7, #36]	@ 0x24
 8002570:	687b      	ldr	r3, [r7, #4]
 8002572:	681b      	ldr	r3, [r3, #0]
 8002574:	330c      	adds	r3, #12
 8002576:	6a7a      	ldr	r2, [r7, #36]	@ 0x24
 8002578:	623a      	str	r2, [r7, #32]
 800257a:	61fb      	str	r3, [r7, #28]
   __ASM volatile ("strex %0, %2, %1" : "=&r" (result), "=Q" (*addr) : "r" (value) );
 800257c:	69f9      	ldr	r1, [r7, #28]
 800257e:	6a3a      	ldr	r2, [r7, #32]
 8002580:	e841 2300 	strex	r3, r2, [r1]
 8002584:	61bb      	str	r3, [r7, #24]
   return(result);
 8002586:	69bb      	ldr	r3, [r7, #24]
 8002588:	2b00      	cmp	r3, #0
 800258a:	d1e5      	bne.n	8002558 <UART_Receive_IT+0xfe>

        /* Check if IDLE flag is set */
        if (__HAL_UART_GET_FLAG(huart, UART_FLAG_IDLE))
 800258c:	687b      	ldr	r3, [r7, #4]
 800258e:	681b      	ldr	r3, [r3, #0]
 8002590:	681b      	ldr	r3, [r3, #0]
 8002592:	f003 0310 	and.w	r3, r3, #16
 8002596:	2b10      	cmp	r3, #16
 8002598:	d10a      	bne.n	80025b0 <UART_Receive_IT+0x156>
        {
          /* Clear IDLE flag in ISR */
          __HAL_UART_CLEAR_IDLEFLAG(huart);
 800259a:	2300      	movs	r3, #0
 800259c:	60fb      	str	r3, [r7, #12]
 800259e:	687b      	ldr	r3, [r7, #4]
 80025a0:	681b      	ldr	r3, [r3, #0]
 80025a2:	681b      	ldr	r3, [r3, #0]
 80025a4:	60fb      	str	r3, [r7, #12]
 80025a6:	687b      	ldr	r3, [r7, #4]
 80025a8:	681b      	ldr	r3, [r3, #0]
 80025aa:	685b      	ldr	r3, [r3, #4]
 80025ac:	60fb      	str	r3, [r7, #12]
 80025ae:	68fb      	ldr	r3, [r7, #12]
#if (USE_HAL_UART_REGISTER_CALLBACKS == 1)
        /*Call registered Rx Event callback*/
        huart->RxEventCallback(huart, huart->RxXferSize);
#else
        /*Call legacy weak Rx Event callback*/
        HAL_UARTEx_RxEventCallback(huart, huart->RxXferSize);
 80025b0:	687b      	ldr	r3, [r7, #4]
 80025b2:	8d9b      	ldrh	r3, [r3, #44]	@ 0x2c
 80025b4:	4619      	mov	r1, r3
 80025b6:	6878      	ldr	r0, [r7, #4]
 80025b8:	f7ff fe2e 	bl	8002218 <HAL_UARTEx_RxEventCallback>
 80025bc:	e002      	b.n	80025c4 <UART_Receive_IT+0x16a>
#if (USE_HAL_UART_REGISTER_CALLBACKS == 1)
        /*Call registered Rx complete callback*/
        huart->RxCpltCallback(huart);
#else
        /*Call legacy weak Rx complete callback*/
        HAL_UART_RxCpltCallback(huart);
 80025be:	6878      	ldr	r0, [r7, #4]
 80025c0:	f7fd ff6e 	bl	80004a0 <HAL_UART_RxCpltCallback>
#endif /* USE_HAL_UART_REGISTER_CALLBACKS */
      }

      return HAL_OK;
 80025c4:	2300      	movs	r3, #0
 80025c6:	e002      	b.n	80025ce <UART_Receive_IT+0x174>
    }
    return HAL_OK;
 80025c8:	2300      	movs	r3, #0
 80025ca:	e000      	b.n	80025ce <UART_Receive_IT+0x174>
  }
  else
  {
    return HAL_BUSY;
 80025cc:	2302      	movs	r3, #2
  }
}
 80025ce:	4618      	mov	r0, r3
 80025d0:	3730      	adds	r7, #48	@ 0x30
 80025d2:	46bd      	mov	sp, r7
 80025d4:	bd80      	pop	{r7, pc}
	...

080025d8 <UART_SetConfig>:
  * @param  huart  Pointer to a UART_HandleTypeDef structure that contains
  *                the configuration information for the specified UART module.
  * @retval None
  */
static void UART_SetConfig(UART_HandleTypeDef *huart)
{
 80025d8:	b580      	push	{r7, lr}
 80025da:	b084      	sub	sp, #16
 80025dc:	af00      	add	r7, sp, #0
 80025de:	6078      	str	r0, [r7, #4]
  assert_param(IS_UART_MODE(huart->Init.Mode));

  /*-------------------------- USART CR2 Configuration -----------------------*/
  /* Configure the UART Stop Bits: Set STOP[13:12] bits
     according to huart->Init.StopBits value */
  MODIFY_REG(huart->Instance->CR2, USART_CR2_STOP, huart->Init.StopBits);
 80025e0:	687b      	ldr	r3, [r7, #4]
 80025e2:	681b      	ldr	r3, [r3, #0]
 80025e4:	691b      	ldr	r3, [r3, #16]
 80025e6:	f423 5140 	bic.w	r1, r3, #12288	@ 0x3000
 80025ea:	687b      	ldr	r3, [r7, #4]
 80025ec:	68da      	ldr	r2, [r3, #12]
 80025ee:	687b      	ldr	r3, [r7, #4]
 80025f0:	681b      	ldr	r3, [r3, #0]
 80025f2:	430a      	orrs	r2, r1
 80025f4:	611a      	str	r2, [r3, #16]
  tmpreg = (uint32_t)huart->Init.WordLength | huart->Init.Parity | huart->Init.Mode | huart->Init.OverSampling;
  MODIFY_REG(huart->Instance->CR1,
             (uint32_t)(USART_CR1_M | USART_CR1_PCE | USART_CR1_PS | USART_CR1_TE | USART_CR1_RE | USART_CR1_OVER8),
             tmpreg);
#else
  tmpreg = (uint32_t)huart->Init.WordLength | huart->Init.Parity | huart->Init.Mode;
 80025f6:	687b      	ldr	r3, [r7, #4]
 80025f8:	689a      	ldr	r2, [r3, #8]
 80025fa:	687b      	ldr	r3, [r7, #4]
 80025fc:	691b      	ldr	r3, [r3, #16]
 80025fe:	431a      	orrs	r2, r3
 8002600:	687b      	ldr	r3, [r7, #4]
 8002602:	695b      	ldr	r3, [r3, #20]
 8002604:	4313      	orrs	r3, r2
 8002606:	60bb      	str	r3, [r7, #8]
  MODIFY_REG(huart->Instance->CR1,
 8002608:	687b      	ldr	r3, [r7, #4]
 800260a:	681b      	ldr	r3, [r3, #0]
 800260c:	68db      	ldr	r3, [r3, #12]
 800260e:	f423 53b0 	bic.w	r3, r3, #5632	@ 0x1600
 8002612:	f023 030c 	bic.w	r3, r3, #12
 8002616:	687a      	ldr	r2, [r7, #4]
 8002618:	6812      	ldr	r2, [r2, #0]
 800261a:	68b9      	ldr	r1, [r7, #8]
 800261c:	430b      	orrs	r3, r1
 800261e:	60d3      	str	r3, [r2, #12]
             tmpreg);
#endif /* USART_CR1_OVER8 */

  /*-------------------------- USART CR3 Configuration -----------------------*/
  /* Configure the UART HFC: Set CTSE and RTSE bits according to huart->Init.HwFlowCtl value */
  MODIFY_REG(huart->Instance->CR3, (USART_CR3_RTSE | USART_CR3_CTSE), huart->Init.HwFlowCtl);
 8002620:	687b      	ldr	r3, [r7, #4]
 8002622:	681b      	ldr	r3, [r3, #0]
 8002624:	695b      	ldr	r3, [r3, #20]
 8002626:	f423 7140 	bic.w	r1, r3, #768	@ 0x300
 800262a:	687b      	ldr	r3, [r7, #4]
 800262c:	699a      	ldr	r2, [r3, #24]
 800262e:	687b      	ldr	r3, [r7, #4]
 8002630:	681b      	ldr	r3, [r3, #0]
 8002632:	430a      	orrs	r2, r1
 8002634:	615a      	str	r2, [r3, #20]


  if(huart->Instance == USART1)
 8002636:	687b      	ldr	r3, [r7, #4]
 8002638:	681b      	ldr	r3, [r3, #0]
 800263a:	4a2c      	ldr	r2, [pc, #176]	@ (80026ec <UART_SetConfig+0x114>)
 800263c:	4293      	cmp	r3, r2
 800263e:	d103      	bne.n	8002648 <UART_SetConfig+0x70>
  {
    pclk = HAL_RCC_GetPCLK2Freq();
 8002640:	f7ff fa9e 	bl	8001b80 <HAL_RCC_GetPCLK2Freq>
 8002644:	60f8      	str	r0, [r7, #12]
 8002646:	e002      	b.n	800264e <UART_SetConfig+0x76>
  }
  else
  {
    pclk = HAL_RCC_GetPCLK1Freq();
 8002648:	f7ff fa86 	bl	8001b58 <HAL_RCC_GetPCLK1Freq>
 800264c:	60f8      	str	r0, [r7, #12]
  else
  {
    huart->Instance->BRR = UART_BRR_SAMPLING16(pclk, huart->Init.BaudRate);
  }
#else
  huart->Instance->BRR = UART_BRR_SAMPLING16(pclk, huart->Init.BaudRate);
 800264e:	68fa      	ldr	r2, [r7, #12]
 8002650:	4613      	mov	r3, r2
 8002652:	009b      	lsls	r3, r3, #2
 8002654:	4413      	add	r3, r2
 8002656:	009a      	lsls	r2, r3, #2
 8002658:	441a      	add	r2, r3
 800265a:	687b      	ldr	r3, [r7, #4]
 800265c:	685b      	ldr	r3, [r3, #4]
 800265e:	009b      	lsls	r3, r3, #2
 8002660:	fbb2 f3f3 	udiv	r3, r2, r3
 8002664:	4a22      	ldr	r2, [pc, #136]	@ (80026f0 <UART_SetConfig+0x118>)
 8002666:	fba2 2303 	umull	r2, r3, r2, r3
 800266a:	095b      	lsrs	r3, r3, #5
 800266c:	0119      	lsls	r1, r3, #4
 800266e:	68fa      	ldr	r2, [r7, #12]
 8002670:	4613      	mov	r3, r2
 8002672:	009b      	lsls	r3, r3, #2
 8002674:	4413      	add	r3, r2
 8002676:	009a      	lsls	r2, r3, #2
 8002678:	441a      	add	r2, r3
 800267a:	687b      	ldr	r3, [r7, #4]
 800267c:	685b      	ldr	r3, [r3, #4]
 800267e:	009b      	lsls	r3, r3, #2
 8002680:	fbb2 f2f3 	udiv	r2, r2, r3
 8002684:	4b1a      	ldr	r3, [pc, #104]	@ (80026f0 <UART_SetConfig+0x118>)
 8002686:	fba3 0302 	umull	r0, r3, r3, r2
 800268a:	095b      	lsrs	r3, r3, #5
 800268c:	2064      	movs	r0, #100	@ 0x64
 800268e:	fb00 f303 	mul.w	r3, r0, r3
 8002692:	1ad3      	subs	r3, r2, r3
 8002694:	011b      	lsls	r3, r3, #4
 8002696:	3332      	adds	r3, #50	@ 0x32
 8002698:	4a15      	ldr	r2, [pc, #84]	@ (80026f0 <UART_SetConfig+0x118>)
 800269a:	fba2 2303 	umull	r2, r3, r2, r3
 800269e:	095b      	lsrs	r3, r3, #5
 80026a0:	f003 03f0 	and.w	r3, r3, #240	@ 0xf0
 80026a4:	4419      	add	r1, r3
 80026a6:	68fa      	ldr	r2, [r7, #12]
 80026a8:	4613      	mov	r3, r2
 80026aa:	009b      	lsls	r3, r3, #2
 80026ac:	4413      	add	r3, r2
 80026ae:	009a      	lsls	r2, r3, #2
 80026b0:	441a      	add	r2, r3
 80026b2:	687b      	ldr	r3, [r7, #4]
 80026b4:	685b      	ldr	r3, [r3, #4]
 80026b6:	009b      	lsls	r3, r3, #2
 80026b8:	fbb2 f2f3 	udiv	r2, r2, r3
 80026bc:	4b0c      	ldr	r3, [pc, #48]	@ (80026f0 <UART_SetConfig+0x118>)
 80026be:	fba3 0302 	umull	r0, r3, r3, r2
 80026c2:	095b      	lsrs	r3, r3, #5
 80026c4:	2064      	movs	r0, #100	@ 0x64
 80026c6:	fb00 f303 	mul.w	r3, r0, r3
 80026ca:	1ad3      	subs	r3, r2, r3
 80026cc:	011b      	lsls	r3, r3, #4
 80026ce:	3332      	adds	r3, #50	@ 0x32
 80026d0:	4a07      	ldr	r2, [pc, #28]	@ (80026f0 <UART_SetConfig+0x118>)
 80026d2:	fba2 2303 	umull	r2, r3, r2, r3
 80026d6:	095b      	lsrs	r3, r3, #5
 80026d8:	f003 020f 	and.w	r2, r3, #15
 80026dc:	687b      	ldr	r3, [r7, #4]
 80026de:	681b      	ldr	r3, [r3, #0]
 80026e0:	440a      	add	r2, r1
 80026e2:	609a      	str	r2, [r3, #8]
#endif /* USART_CR1_OVER8 */
}
 80026e4:	bf00      	nop
 80026e6:	3710      	adds	r7, #16
 80026e8:	46bd      	mov	sp, r7
 80026ea:	bd80      	pop	{r7, pc}
 80026ec:	40013800 	.word	0x40013800
 80026f0:	51eb851f 	.word	0x51eb851f

080026f4 <memset>:
 80026f4:	4603      	mov	r3, r0
 80026f6:	4402      	add	r2, r0
 80026f8:	4293      	cmp	r3, r2
 80026fa:	d100      	bne.n	80026fe <memset+0xa>
 80026fc:	4770      	bx	lr
 80026fe:	f803 1b01 	strb.w	r1, [r3], #1
 8002702:	e7f9      	b.n	80026f8 <memset+0x4>

08002704 <__libc_init_array>:
 8002704:	b570      	push	{r4, r5, r6, lr}
 8002706:	2600      	movs	r6, #0
 8002708:	4d0c      	ldr	r5, [pc, #48]	@ (800273c <__libc_init_array+0x38>)
 800270a:	4c0d      	ldr	r4, [pc, #52]	@ (8002740 <__libc_init_array+0x3c>)
 800270c:	1b64      	subs	r4, r4, r5
 800270e:	10a4      	asrs	r4, r4, #2
 8002710:	42a6      	cmp	r6, r4
 8002712:	d109      	bne.n	8002728 <__libc_init_array+0x24>
 8002714:	f000 f81a 	bl	800274c <_init>
 8002718:	2600      	movs	r6, #0
 800271a:	4d0a      	ldr	r5, [pc, #40]	@ (8002744 <__libc_init_array+0x40>)
 800271c:	4c0a      	ldr	r4, [pc, #40]	@ (8002748 <__libc_init_array+0x44>)
 800271e:	1b64      	subs	r4, r4, r5
 8002720:	10a4      	asrs	r4, r4, #2
 8002722:	42a6      	cmp	r6, r4
 8002724:	d105      	bne.n	8002732 <__libc_init_array+0x2e>
 8002726:	bd70      	pop	{r4, r5, r6, pc}
 8002728:	f855 3b04 	ldr.w	r3, [r5], #4
 800272c:	4798      	blx	r3
 800272e:	3601      	adds	r6, #1
 8002730:	e7ee      	b.n	8002710 <__libc_init_array+0xc>
 8002732:	f855 3b04 	ldr.w	r3, [r5], #4
 8002736:	4798      	blx	r3
 8002738:	3601      	adds	r6, #1
 800273a:	e7f2      	b.n	8002722 <__libc_init_array+0x1e>
 800273c:	080027a0 	.word	0x080027a0
 8002740:	080027a0 	.word	0x080027a0
 8002744:	080027a0 	.word	0x080027a0
 8002748:	080027a4 	.word	0x080027a4

0800274c <_init>:
 800274c:	b5f8      	push	{r3, r4, r5, r6, r7, lr}
 800274e:	bf00      	nop
 8002750:	bcf8      	pop	{r3, r4, r5, r6, r7}
 8002752:	bc08      	pop	{r3}
 8002754:	469e      	mov	lr, r3
 8002756:	4770      	bx	lr

08002758 <_fini>:
 8002758:	b5f8      	push	{r3, r4, r5, r6, r7, lr}
 800275a:	bf00      	nop
 800275c:	bcf8      	pop	{r3, r4, r5, r6, r7}
 800275e:	bc08      	pop	{r3}
 8002760:	469e      	mov	lr, r3
 8002762:	4770      	bx	lr
